
kernel.sys:     file format elf32-i386


Disassembly of section .text:

00100000 <__code>:
  100000:	02 b0 ad 1b 03 00    	add    0x31bad(%eax),%dh
  100006:	00 00                	add    %al,(%eax)
  100008:	fb                   	sti    
  100009:	4f                   	dec    %edi
  10000a:	52                   	push   %edx
  10000b:	e4 00                	in     $0x0,%al
  10000d:	00 10                	add    %dl,(%eax)
  10000f:	00 00                	add    %al,(%eax)
  100011:	00 10                	add    %dl,(%eax)
  100013:	00 80 b3 10 00 c4    	add    %al,-0x3bffef4d(%eax)
  100019:	13 11                	adc    (%ecx),%edx
  10001b:	00 20                	add    %ah,(%eax)
  10001d:	00 10                	add    %dl,(%eax)
	...

00100020 <start>:
  100020:	bc 80 f3 10 00       	mov    $0x10f380,%esp
  100025:	53                   	push   %ebx
  100026:	50                   	push   %eax
  100027:	e8 30 18 00 00       	call   10185c <main>
  10002c:	e9 fb ff ff ff       	jmp    10002c <start+0xc>
	...

00100040 <flushIdt>:
  100040:	8b 44 24 04          	mov    0x4(%esp),%eax
  100044:	0f 01 18             	lidtl  (%eax)
  100047:	c3                   	ret    
	...

00100050 <isr0>:
  100050:	fa                   	cli    
  100051:	6a 00                	push   $0x0
  100053:	6a 00                	push   $0x0
  100055:	e9 ca 01 00 00       	jmp    100224 <isr_common_stub>

0010005a <isr1>:
  10005a:	fa                   	cli    
  10005b:	6a 00                	push   $0x0
  10005d:	6a 01                	push   $0x1
  10005f:	e9 c0 01 00 00       	jmp    100224 <isr_common_stub>

00100064 <isr2>:
  100064:	fa                   	cli    
  100065:	6a 00                	push   $0x0
  100067:	6a 02                	push   $0x2
  100069:	e9 b6 01 00 00       	jmp    100224 <isr_common_stub>

0010006e <isr3>:
  10006e:	fa                   	cli    
  10006f:	6a 00                	push   $0x0
  100071:	6a 03                	push   $0x3
  100073:	e9 ac 01 00 00       	jmp    100224 <isr_common_stub>

00100078 <isr4>:
  100078:	fa                   	cli    
  100079:	6a 00                	push   $0x0
  10007b:	6a 04                	push   $0x4
  10007d:	e9 a2 01 00 00       	jmp    100224 <isr_common_stub>

00100082 <isr5>:
  100082:	fa                   	cli    
  100083:	6a 00                	push   $0x0
  100085:	6a 05                	push   $0x5
  100087:	e9 98 01 00 00       	jmp    100224 <isr_common_stub>

0010008c <isr6>:
  10008c:	fa                   	cli    
  10008d:	6a 00                	push   $0x0
  10008f:	6a 06                	push   $0x6
  100091:	e9 8e 01 00 00       	jmp    100224 <isr_common_stub>

00100096 <isr7>:
  100096:	fa                   	cli    
  100097:	6a 00                	push   $0x0
  100099:	6a 07                	push   $0x7
  10009b:	e9 84 01 00 00       	jmp    100224 <isr_common_stub>

001000a0 <isr8>:
  1000a0:	fa                   	cli    
  1000a1:	6a 08                	push   $0x8
  1000a3:	e9 7c 01 00 00       	jmp    100224 <isr_common_stub>

001000a8 <isr9>:
  1000a8:	fa                   	cli    
  1000a9:	6a 00                	push   $0x0
  1000ab:	6a 09                	push   $0x9
  1000ad:	e9 72 01 00 00       	jmp    100224 <isr_common_stub>

001000b2 <isr10>:
  1000b2:	fa                   	cli    
  1000b3:	6a 0a                	push   $0xa
  1000b5:	e9 6a 01 00 00       	jmp    100224 <isr_common_stub>

001000ba <isr11>:
  1000ba:	fa                   	cli    
  1000bb:	6a 0b                	push   $0xb
  1000bd:	e9 62 01 00 00       	jmp    100224 <isr_common_stub>

001000c2 <isr12>:
  1000c2:	fa                   	cli    
  1000c3:	6a 0c                	push   $0xc
  1000c5:	e9 5a 01 00 00       	jmp    100224 <isr_common_stub>

001000ca <isr13>:
  1000ca:	fa                   	cli    
  1000cb:	6a 0d                	push   $0xd
  1000cd:	e9 52 01 00 00       	jmp    100224 <isr_common_stub>

001000d2 <isr14>:
  1000d2:	fa                   	cli    
  1000d3:	6a 0e                	push   $0xe
  1000d5:	e9 4a 01 00 00       	jmp    100224 <isr_common_stub>

001000da <isr15>:
  1000da:	fa                   	cli    
  1000db:	6a 00                	push   $0x0
  1000dd:	6a 0f                	push   $0xf
  1000df:	e9 40 01 00 00       	jmp    100224 <isr_common_stub>

001000e4 <isr16>:
  1000e4:	fa                   	cli    
  1000e5:	6a 00                	push   $0x0
  1000e7:	6a 10                	push   $0x10
  1000e9:	e9 36 01 00 00       	jmp    100224 <isr_common_stub>

001000ee <isr17>:
  1000ee:	fa                   	cli    
  1000ef:	6a 00                	push   $0x0
  1000f1:	6a 11                	push   $0x11
  1000f3:	e9 2c 01 00 00       	jmp    100224 <isr_common_stub>

001000f8 <isr18>:
  1000f8:	fa                   	cli    
  1000f9:	6a 00                	push   $0x0
  1000fb:	6a 12                	push   $0x12
  1000fd:	e9 22 01 00 00       	jmp    100224 <isr_common_stub>

00100102 <isr19>:
  100102:	fa                   	cli    
  100103:	6a 00                	push   $0x0
  100105:	6a 13                	push   $0x13
  100107:	e9 18 01 00 00       	jmp    100224 <isr_common_stub>

0010010c <isr20>:
  10010c:	fa                   	cli    
  10010d:	6a 00                	push   $0x0
  10010f:	6a 14                	push   $0x14
  100111:	e9 0e 01 00 00       	jmp    100224 <isr_common_stub>

00100116 <isr21>:
  100116:	fa                   	cli    
  100117:	6a 00                	push   $0x0
  100119:	6a 15                	push   $0x15
  10011b:	e9 04 01 00 00       	jmp    100224 <isr_common_stub>

00100120 <isr22>:
  100120:	fa                   	cli    
  100121:	6a 00                	push   $0x0
  100123:	6a 16                	push   $0x16
  100125:	e9 fa 00 00 00       	jmp    100224 <isr_common_stub>

0010012a <isr23>:
  10012a:	fa                   	cli    
  10012b:	6a 00                	push   $0x0
  10012d:	6a 17                	push   $0x17
  10012f:	e9 f0 00 00 00       	jmp    100224 <isr_common_stub>

00100134 <isr24>:
  100134:	fa                   	cli    
  100135:	6a 00                	push   $0x0
  100137:	6a 18                	push   $0x18
  100139:	e9 e6 00 00 00       	jmp    100224 <isr_common_stub>

0010013e <isr25>:
  10013e:	fa                   	cli    
  10013f:	6a 00                	push   $0x0
  100141:	6a 19                	push   $0x19
  100143:	e9 dc 00 00 00       	jmp    100224 <isr_common_stub>

00100148 <isr26>:
  100148:	fa                   	cli    
  100149:	6a 00                	push   $0x0
  10014b:	6a 1a                	push   $0x1a
  10014d:	e9 d2 00 00 00       	jmp    100224 <isr_common_stub>

00100152 <isr27>:
  100152:	fa                   	cli    
  100153:	6a 00                	push   $0x0
  100155:	6a 1b                	push   $0x1b
  100157:	e9 c8 00 00 00       	jmp    100224 <isr_common_stub>

0010015c <isr28>:
  10015c:	fa                   	cli    
  10015d:	6a 00                	push   $0x0
  10015f:	6a 1c                	push   $0x1c
  100161:	e9 be 00 00 00       	jmp    100224 <isr_common_stub>

00100166 <isr29>:
  100166:	fa                   	cli    
  100167:	6a 00                	push   $0x0
  100169:	6a 1d                	push   $0x1d
  10016b:	e9 b4 00 00 00       	jmp    100224 <isr_common_stub>

00100170 <isr30>:
  100170:	fa                   	cli    
  100171:	6a 00                	push   $0x0
  100173:	6a 1e                	push   $0x1e
  100175:	e9 aa 00 00 00       	jmp    100224 <isr_common_stub>

0010017a <isr31>:
  10017a:	fa                   	cli    
  10017b:	6a 00                	push   $0x0
  10017d:	6a 1f                	push   $0x1f
  10017f:	e9 a0 00 00 00       	jmp    100224 <isr_common_stub>

00100184 <isr32>:
  100184:	fa                   	cli    
  100185:	6a 00                	push   $0x0
  100187:	6a 20                	push   $0x20
  100189:	e9 be 00 00 00       	jmp    10024c <irq_common_stub>

0010018e <isr33>:
  10018e:	fa                   	cli    
  10018f:	6a 00                	push   $0x0
  100191:	6a 21                	push   $0x21
  100193:	e9 b4 00 00 00       	jmp    10024c <irq_common_stub>

00100198 <isr34>:
  100198:	fa                   	cli    
  100199:	6a 00                	push   $0x0
  10019b:	6a 22                	push   $0x22
  10019d:	e9 aa 00 00 00       	jmp    10024c <irq_common_stub>

001001a2 <isr35>:
  1001a2:	fa                   	cli    
  1001a3:	6a 00                	push   $0x0
  1001a5:	6a 23                	push   $0x23
  1001a7:	e9 a0 00 00 00       	jmp    10024c <irq_common_stub>

001001ac <isr36>:
  1001ac:	fa                   	cli    
  1001ad:	6a 00                	push   $0x0
  1001af:	6a 24                	push   $0x24
  1001b1:	e9 96 00 00 00       	jmp    10024c <irq_common_stub>

001001b6 <isr37>:
  1001b6:	fa                   	cli    
  1001b7:	6a 00                	push   $0x0
  1001b9:	6a 25                	push   $0x25
  1001bb:	e9 8c 00 00 00       	jmp    10024c <irq_common_stub>

001001c0 <isr38>:
  1001c0:	fa                   	cli    
  1001c1:	6a 00                	push   $0x0
  1001c3:	6a 26                	push   $0x26
  1001c5:	e9 82 00 00 00       	jmp    10024c <irq_common_stub>

001001ca <isr39>:
  1001ca:	fa                   	cli    
  1001cb:	6a 00                	push   $0x0
  1001cd:	6a 27                	push   $0x27
  1001cf:	e9 78 00 00 00       	jmp    10024c <irq_common_stub>

001001d4 <isr40>:
  1001d4:	fa                   	cli    
  1001d5:	6a 00                	push   $0x0
  1001d7:	6a 28                	push   $0x28
  1001d9:	e9 6e 00 00 00       	jmp    10024c <irq_common_stub>

001001de <isr41>:
  1001de:	fa                   	cli    
  1001df:	6a 00                	push   $0x0
  1001e1:	6a 29                	push   $0x29
  1001e3:	e9 64 00 00 00       	jmp    10024c <irq_common_stub>

001001e8 <isr42>:
  1001e8:	fa                   	cli    
  1001e9:	6a 00                	push   $0x0
  1001eb:	6a 2a                	push   $0x2a
  1001ed:	e9 5a 00 00 00       	jmp    10024c <irq_common_stub>

001001f2 <isr43>:
  1001f2:	fa                   	cli    
  1001f3:	6a 00                	push   $0x0
  1001f5:	6a 2b                	push   $0x2b
  1001f7:	e9 50 00 00 00       	jmp    10024c <irq_common_stub>

001001fc <isr44>:
  1001fc:	fa                   	cli    
  1001fd:	6a 00                	push   $0x0
  1001ff:	6a 2c                	push   $0x2c
  100201:	e9 46 00 00 00       	jmp    10024c <irq_common_stub>

00100206 <isr45>:
  100206:	fa                   	cli    
  100207:	6a 00                	push   $0x0
  100209:	6a 2d                	push   $0x2d
  10020b:	e9 3c 00 00 00       	jmp    10024c <irq_common_stub>

00100210 <isr46>:
  100210:	fa                   	cli    
  100211:	6a 00                	push   $0x0
  100213:	6a 2e                	push   $0x2e
  100215:	e9 32 00 00 00       	jmp    10024c <irq_common_stub>

0010021a <isr47>:
  10021a:	fa                   	cli    
  10021b:	6a 00                	push   $0x0
  10021d:	6a 2f                	push   $0x2f
  10021f:	e9 28 00 00 00       	jmp    10024c <irq_common_stub>

00100224 <isr_common_stub>:
  100224:	60                   	pusha  
  100225:	66 8c d8             	mov    %ds,%ax
  100228:	50                   	push   %eax
  100229:	66 b8 10 00          	mov    $0x10,%ax
  10022d:	8e d8                	mov    %eax,%ds
  10022f:	8e c0                	mov    %eax,%es
  100231:	8e e0                	mov    %eax,%fs
  100233:	8e e8                	mov    %eax,%gs
  100235:	e8 0e 02 00 00       	call   100448 <isrHandler>
  10023a:	58                   	pop    %eax
  10023b:	8e d8                	mov    %eax,%ds
  10023d:	8e c0                	mov    %eax,%es
  10023f:	8e e0                	mov    %eax,%fs
  100241:	8e e8                	mov    %eax,%gs
  100243:	61                   	popa   
  100244:	81 c4 08 00 00 00    	add    $0x8,%esp
  10024a:	fb                   	sti    
  10024b:	cf                   	iret   

0010024c <irq_common_stub>:
  10024c:	60                   	pusha  
  10024d:	66 8c d8             	mov    %ds,%ax
  100250:	50                   	push   %eax
  100251:	66 b8 10 00          	mov    $0x10,%ax
  100255:	8e d8                	mov    %eax,%ds
  100257:	8e c0                	mov    %eax,%es
  100259:	8e e0                	mov    %eax,%fs
  10025b:	8e e8                	mov    %eax,%gs
  10025d:	e8 20 03 00 00       	call   100582 <irqHandler>
  100262:	5b                   	pop    %ebx
  100263:	8e db                	mov    %ebx,%ds
  100265:	8e c3                	mov    %ebx,%es
  100267:	8e e3                	mov    %ebx,%fs
  100269:	8e eb                	mov    %ebx,%gs
  10026b:	61                   	popa   
  10026c:	81 c4 08 00 00 00    	add    $0x8,%esp
  100272:	fb                   	sti    
  100273:	cf                   	iret   
	...

00100280 <flushGdt>:
  100280:	c8 00 00 00          	enter  $0x0,$0x0
  100284:	8b 45 08             	mov    0x8(%ebp),%eax
  100287:	0f 01 10             	lgdtl  (%eax)
  10028a:	66 b8 10 00          	mov    $0x10,%ax
  10028e:	8e d8                	mov    %eax,%ds
  100290:	8e c0                	mov    %eax,%es
  100292:	8e e0                	mov    %eax,%fs
  100294:	8e e8                	mov    %eax,%gs
  100296:	8e d0                	mov    %eax,%ss
  100298:	ea 9f 02 10 00 08 00 	ljmp   $0x8,$0x10029f

0010029f <flush>:
  10029f:	c9                   	leave  
  1002a0:	c3                   	ret    
  1002a1:	00 00                	add    %al,(%eax)
	...

001002a4 <_D6kernel2io4outbFthZv>:
  1002a4:	55                   	push   %ebp
  1002a5:	89 e5                	mov    %esp,%ebp
  1002a7:	66 8b 55 08          	mov    0x8(%ebp),%dx
  1002ab:	8a 45 0c             	mov    0xc(%ebp),%al
  1002ae:	ee                   	out    %al,(%dx)
  1002af:	5d                   	pop    %ebp
  1002b0:	c3                   	ret    

001002b1 <_D6kernel2io3inbFtZh>:
  1002b1:	55                   	push   %ebp
  1002b2:	89 e5                	mov    %esp,%ebp
  1002b4:	83 ec 10             	sub    $0x10,%esp
  1002b7:	c6 45 ff 00          	movb   $0x0,-0x1(%ebp)
  1002bb:	66 8b 55 08          	mov    0x8(%ebp),%dx
  1002bf:	ec                   	in     (%dx),%al
  1002c0:	8a 45 ff             	mov    -0x1(%ebp),%al
  1002c3:	0f b6 45 ff          	movzbl -0x1(%ebp),%eax
  1002c7:	c9                   	leave  
  1002c8:	c3                   	ret    

001002c9 <_D6kernel2io3inwFtZt>:
  1002c9:	55                   	push   %ebp
  1002ca:	89 e5                	mov    %esp,%ebp
  1002cc:	83 ec 10             	sub    $0x10,%esp
  1002cf:	66 c7 45 fe 00 00    	movw   $0x0,-0x2(%ebp)
  1002d5:	66 8b 55 08          	mov    0x8(%ebp),%dx
  1002d9:	ec                   	in     (%dx),%al
  1002da:	8a 45 fe             	mov    -0x2(%ebp),%al
  1002dd:	0f b7 45 fe          	movzwl -0x2(%ebp),%eax
  1002e1:	c9                   	leave  
  1002e2:	c3                   	ret    

001002e3 <_D6kernel2io8io_delayFZv>:
  1002e3:	55                   	push   %ebp
  1002e4:	89 e5                	mov    %esp,%ebp
  1002e6:	83 ec 10             	sub    $0x10,%esp
  1002e9:	c7 45 fc 00 00 00 00 	movl   $0x0,-0x4(%ebp)
  1002f0:	c7 45 fc 00 00 00 00 	movl   $0x0,-0x4(%ebp)
  1002f7:	83 7d fc 31          	cmpl   $0x31,-0x4(%ebp)
  1002fb:	0f 9e c0             	setle  %al
  1002fe:	83 f0 01             	xor    $0x1,%eax
  100301:	84 c0                	test   %al,%al
  100303:	75 06                	jne    10030b <_D6kernel2io8io_delayFZv+0x28>
  100305:	83 45 fc 01          	addl   $0x1,-0x4(%ebp)
  100309:	eb ec                	jmp    1002f7 <_D6kernel2io8io_delayFZv+0x14>
  10030b:	c9                   	leave  
  10030c:	c3                   	ret    
  10030d:	00 00                	add    %al,(%eax)
	...

00100310 <_D6kernel3x868keyboard15keyboardHandlerFS6kernel3x863isr9registersZv>:
  100310:	55                   	push   %ebp
  100311:	89 e5                	mov    %esp,%ebp
  100313:	83 ec 38             	sub    $0x38,%esp
  100316:	c6 45 ff 00          	movb   $0x0,-0x1(%ebp)
  10031a:	c7 04 24 60 00 00 00 	movl   $0x60,(%esp)
  100321:	e8 8b ff ff ff       	call   1002b1 <_D6kernel2io3inbFtZh>
  100326:	88 45 ff             	mov    %al,-0x1(%ebp)
  100329:	0f b6 45 ff          	movzbl -0x1(%ebp),%eax
  10032d:	83 e0 01             	and    $0x1,%eax
  100330:	84 c0                	test   %al,%al
  100332:	0f 85 cc 00 00 00    	jne    100404 <_D6kernel3x868keyboard15keyboardHandlerFS6kernel3x863isr9registersZv+0xf4>
  100338:	a1 20 f6 10 00       	mov    0x10f620,%eax
  10033d:	89 45 e4             	mov    %eax,-0x1c(%ebp)
  100340:	81 7d e4 ff 01 00 00 	cmpl   $0x1ff,-0x1c(%ebp)
  100347:	0f 96 c2             	setbe  %dl
  10034a:	83 c0 01             	add    $0x1,%eax
  10034d:	a3 20 f6 10 00       	mov    %eax,0x10f620
  100352:	84 d2                	test   %dl,%dl
  100354:	74 08                	je     10035e <_D6kernel3x868keyboard15keyboardHandlerFS6kernel3x863isr9registersZv+0x4e>
  100356:	8b 45 e4             	mov    -0x1c(%ebp),%eax
  100359:	89 45 e0             	mov    %eax,-0x20(%ebp)
  10035c:	eb 28                	jmp    100386 <_D6kernel3x868keyboard15keyboardHandlerFS6kernel3x863isr9registersZv+0x76>
  10035e:	c7 45 e8 15 00 00 00 	movl   $0x15,-0x18(%ebp)
  100365:	c7 45 ec ad 62 10 00 	movl   $0x1062ad,-0x14(%ebp)
  10036c:	c7 44 24 08 2d 00 00 	movl   $0x2d,0x8(%esp)
  100373:	00 
  100374:	8b 45 e8             	mov    -0x18(%ebp),%eax
  100377:	8b 55 ec             	mov    -0x14(%ebp),%edx
  10037a:	89 04 24             	mov    %eax,(%esp)
  10037d:	89 54 24 04          	mov    %edx,0x4(%esp)
  100381:	e8 1c 2c 00 00       	call   102fa2 <_d_array_bounds>
  100386:	8b 4d e0             	mov    -0x20(%ebp),%ecx
  100389:	81 c1 20 f4 10 00    	add    $0x10f420,%ecx
  10038f:	8b 15 00 a0 10 00    	mov    0x10a000,%edx
  100395:	0f b6 45 ff          	movzbl -0x1(%ebp),%eax
  100399:	8d 04 02             	lea    (%edx,%eax,1),%eax
  10039c:	0f b6 00             	movzbl (%eax),%eax
  10039f:	88 01                	mov    %al,(%ecx)
  1003a1:	c7 04 24 c3 62 10 00 	movl   $0x1062c3,(%esp)
  1003a8:	e8 30 17 00 00       	call   101add <_D5video4text4text4putsFPaZv>
  1003ad:	a1 2c f6 10 00       	mov    0x10f62c,%eax
  1003b2:	89 04 24             	mov    %eax,(%esp)
  1003b5:	e8 1c 18 00 00       	call   101bd6 <_D5video4text4text6printdFkZv>
  1003ba:	c7 04 24 0a 00 00 00 	movl   $0xa,(%esp)
  1003c1:	e8 ca 16 00 00       	call   101a90 <_D5video4text4text4putcFaZv>
  1003c6:	8b 15 00 a0 10 00    	mov    0x10a000,%edx
  1003cc:	0f b6 45 ff          	movzbl -0x1(%ebp),%eax
  1003d0:	8d 04 02             	lea    (%edx,%eax,1),%eax
  1003d3:	0f b6 00             	movzbl (%eax),%eax
  1003d6:	0f b6 c0             	movzbl %al,%eax
  1003d9:	89 04 24             	mov    %eax,(%esp)
  1003dc:	e8 af 16 00 00       	call   101a90 <_D5video4text4text4putcFaZv>
  1003e1:	0f b6 05 28 f6 10 00 	movzbl 0x10f628,%eax
  1003e8:	0f b6 c0             	movzbl %al,%eax
  1003eb:	83 f8 01             	cmp    $0x1,%eax
  1003ee:	75 07                	jne    1003f7 <_D6kernel3x868keyboard15keyboardHandlerFS6kernel3x863isr9registersZv+0xe7>
  1003f0:	c6 05 28 f6 10 00 00 	movb   $0x0,0x10f628
  1003f7:	a1 2c f6 10 00       	mov    0x10f62c,%eax
  1003fc:	83 c0 01             	add    $0x1,%eax
  1003ff:	a3 2c f6 10 00       	mov    %eax,0x10f62c
  100404:	c9                   	leave  
  100405:	c3                   	ret    

00100406 <_D6kernel3x868keyboard15waitForKeyPressFZv>:
  100406:	55                   	push   %ebp
  100407:	89 e5                	mov    %esp,%ebp
  100409:	c6 05 28 f6 10 00 01 	movb   $0x1,0x10f628
  100410:	0f b6 05 28 f6 10 00 	movzbl 0x10f628,%eax
  100417:	0f b6 c0             	movzbl %al,%eax
  10041a:	83 f8 01             	cmp    $0x1,%eax
  10041d:	0f 94 c0             	sete   %al
  100420:	83 f0 01             	xor    $0x1,%eax
  100423:	84 c0                	test   %al,%al
  100425:	74 e9                	je     100410 <_D6kernel3x868keyboard15waitForKeyPressFZv+0xa>
  100427:	5d                   	pop    %ebp
  100428:	c3                   	ret    

00100429 <_D6kernel3x868keyboard12initKeyboardFZv>:
  100429:	55                   	push   %ebp
  10042a:	89 e5                	mov    %esp,%ebp
  10042c:	83 ec 08             	sub    $0x8,%esp
  10042f:	b8 10 03 10 00       	mov    $0x100310,%eax
  100434:	89 44 24 04          	mov    %eax,0x4(%esp)
  100438:	c7 04 24 21 00 00 00 	movl   $0x21,(%esp)
  10043f:	e8 83 02 00 00       	call   1006c7 <_D6kernel3x863isr17registerInterruptFhT6kernel3x863isr3isrZv>
  100444:	c9                   	leave  
  100445:	c3                   	ret    
	...

00100448 <isrHandler>:
  100448:	55                   	push   %ebp
  100449:	89 e5                	mov    %esp,%ebp
  10044b:	83 ec 78             	sub    $0x78,%esp
  10044e:	8b 45 2c             	mov    0x2c(%ebp),%eax
  100451:	3d 00 01 00 00       	cmp    $0x100,%eax
  100456:	73 0b                	jae    100463 <isrHandler+0x1b>
  100458:	8b 45 2c             	mov    0x2c(%ebp),%eax
  10045b:	c1 e0 02             	shl    $0x2,%eax
  10045e:	89 45 d4             	mov    %eax,-0x2c(%ebp)
  100461:	eb 28                	jmp    10048b <isrHandler+0x43>
  100463:	c7 45 d8 10 00 00 00 	movl   $0x10,-0x28(%ebp)
  10046a:	c7 45 dc 18 63 10 00 	movl   $0x106318,-0x24(%ebp)
  100471:	c7 44 24 08 21 00 00 	movl   $0x21,0x8(%esp)
  100478:	00 
  100479:	8b 45 d8             	mov    -0x28(%ebp),%eax
  10047c:	8b 55 dc             	mov    -0x24(%ebp),%edx
  10047f:	89 04 24             	mov    %eax,(%esp)
  100482:	89 54 24 04          	mov    %edx,0x4(%esp)
  100486:	e8 17 2b 00 00       	call   102fa2 <_d_array_bounds>
  10048b:	8b 45 d4             	mov    -0x2c(%ebp),%eax
  10048e:	05 80 f6 10 00       	add    $0x10f680,%eax
  100493:	8b 00                	mov    (%eax),%eax
  100495:	85 c0                	test   %eax,%eax
  100497:	0f 84 c0 00 00 00    	je     10055d <isrHandler+0x115>
  10049d:	8b 45 2c             	mov    0x2c(%ebp),%eax
  1004a0:	3d 00 01 00 00       	cmp    $0x100,%eax
  1004a5:	73 0b                	jae    1004b2 <isrHandler+0x6a>
  1004a7:	8b 45 2c             	mov    0x2c(%ebp),%eax
  1004aa:	c1 e0 02             	shl    $0x2,%eax
  1004ad:	89 45 e4             	mov    %eax,-0x1c(%ebp)
  1004b0:	eb 28                	jmp    1004da <isrHandler+0x92>
  1004b2:	c7 45 e8 10 00 00 00 	movl   $0x10,-0x18(%ebp)
  1004b9:	c7 45 ec 18 63 10 00 	movl   $0x106318,-0x14(%ebp)
  1004c0:	c7 44 24 08 22 00 00 	movl   $0x22,0x8(%esp)
  1004c7:	00 
  1004c8:	8b 45 e8             	mov    -0x18(%ebp),%eax
  1004cb:	8b 55 ec             	mov    -0x14(%ebp),%edx
  1004ce:	89 04 24             	mov    %eax,(%esp)
  1004d1:	89 54 24 04          	mov    %edx,0x4(%esp)
  1004d5:	e8 c8 2a 00 00       	call   102fa2 <_d_array_bounds>
  1004da:	8b 45 e4             	mov    -0x1c(%ebp),%eax
  1004dd:	05 80 f6 10 00       	add    $0x10f680,%eax
  1004e2:	8b 00                	mov    (%eax),%eax
  1004e4:	89 45 fc             	mov    %eax,-0x4(%ebp)
  1004e7:	8b 45 08             	mov    0x8(%ebp),%eax
  1004ea:	89 04 24             	mov    %eax,(%esp)
  1004ed:	8b 45 0c             	mov    0xc(%ebp),%eax
  1004f0:	89 44 24 04          	mov    %eax,0x4(%esp)
  1004f4:	8b 45 10             	mov    0x10(%ebp),%eax
  1004f7:	89 44 24 08          	mov    %eax,0x8(%esp)
  1004fb:	8b 45 14             	mov    0x14(%ebp),%eax
  1004fe:	89 44 24 0c          	mov    %eax,0xc(%esp)
  100502:	8b 45 18             	mov    0x18(%ebp),%eax
  100505:	89 44 24 10          	mov    %eax,0x10(%esp)
  100509:	8b 45 1c             	mov    0x1c(%ebp),%eax
  10050c:	89 44 24 14          	mov    %eax,0x14(%esp)
  100510:	8b 45 20             	mov    0x20(%ebp),%eax
  100513:	89 44 24 18          	mov    %eax,0x18(%esp)
  100517:	8b 45 24             	mov    0x24(%ebp),%eax
  10051a:	89 44 24 1c          	mov    %eax,0x1c(%esp)
  10051e:	8b 45 28             	mov    0x28(%ebp),%eax
  100521:	89 44 24 20          	mov    %eax,0x20(%esp)
  100525:	8b 45 2c             	mov    0x2c(%ebp),%eax
  100528:	89 44 24 24          	mov    %eax,0x24(%esp)
  10052c:	8b 45 30             	mov    0x30(%ebp),%eax
  10052f:	89 44 24 28          	mov    %eax,0x28(%esp)
  100533:	8b 45 34             	mov    0x34(%ebp),%eax
  100536:	89 44 24 2c          	mov    %eax,0x2c(%esp)
  10053a:	8b 45 38             	mov    0x38(%ebp),%eax
  10053d:	89 44 24 30          	mov    %eax,0x30(%esp)
  100541:	8b 45 3c             	mov    0x3c(%ebp),%eax
  100544:	89 44 24 34          	mov    %eax,0x34(%esp)
  100548:	8b 45 40             	mov    0x40(%ebp),%eax
  10054b:	89 44 24 38          	mov    %eax,0x38(%esp)
  10054f:	8b 45 44             	mov    0x44(%ebp),%eax
  100552:	89 44 24 3c          	mov    %eax,0x3c(%esp)
  100556:	8b 45 fc             	mov    -0x4(%ebp),%eax
  100559:	ff d0                	call   *%eax
  10055b:	eb 23                	jmp    100580 <isrHandler+0x138>
  10055d:	c7 04 24 29 63 10 00 	movl   $0x106329,(%esp)
  100564:	e8 74 15 00 00       	call   101add <_D5video4text4text4putsFPaZv>
  100569:	8b 45 2c             	mov    0x2c(%ebp),%eax
  10056c:	89 04 24             	mov    %eax,(%esp)
  10056f:	e8 62 16 00 00       	call   101bd6 <_D5video4text4text6printdFkZv>
  100574:	c7 04 24 0a 00 00 00 	movl   $0xa,(%esp)
  10057b:	e8 10 15 00 00       	call   101a90 <_D5video4text4text4putcFaZv>
  100580:	c9                   	leave  
  100581:	c3                   	ret    

00100582 <irqHandler>:
  100582:	55                   	push   %ebp
  100583:	89 e5                	mov    %esp,%ebp
  100585:	83 ec 78             	sub    $0x78,%esp
  100588:	8b 45 2c             	mov    0x2c(%ebp),%eax
  10058b:	83 f8 28             	cmp    $0x28,%eax
  10058e:	72 14                	jb     1005a4 <irqHandler+0x22>
  100590:	c7 44 24 04 20 00 00 	movl   $0x20,0x4(%esp)
  100597:	00 
  100598:	c7 04 24 a0 00 00 00 	movl   $0xa0,(%esp)
  10059f:	e8 00 fd ff ff       	call   1002a4 <_D6kernel2io4outbFthZv>
  1005a4:	c7 44 24 04 20 00 00 	movl   $0x20,0x4(%esp)
  1005ab:	00 
  1005ac:	c7 04 24 20 00 00 00 	movl   $0x20,(%esp)
  1005b3:	e8 ec fc ff ff       	call   1002a4 <_D6kernel2io4outbFthZv>
  1005b8:	8b 45 2c             	mov    0x2c(%ebp),%eax
  1005bb:	3d 00 01 00 00       	cmp    $0x100,%eax
  1005c0:	73 0b                	jae    1005cd <irqHandler+0x4b>
  1005c2:	8b 45 2c             	mov    0x2c(%ebp),%eax
  1005c5:	c1 e0 02             	shl    $0x2,%eax
  1005c8:	89 45 d4             	mov    %eax,-0x2c(%ebp)
  1005cb:	eb 28                	jmp    1005f5 <irqHandler+0x73>
  1005cd:	c7 45 d8 10 00 00 00 	movl   $0x10,-0x28(%ebp)
  1005d4:	c7 45 dc 18 63 10 00 	movl   $0x106318,-0x24(%ebp)
  1005db:	c7 44 24 08 32 00 00 	movl   $0x32,0x8(%esp)
  1005e2:	00 
  1005e3:	8b 45 d8             	mov    -0x28(%ebp),%eax
  1005e6:	8b 55 dc             	mov    -0x24(%ebp),%edx
  1005e9:	89 04 24             	mov    %eax,(%esp)
  1005ec:	89 54 24 04          	mov    %edx,0x4(%esp)
  1005f0:	e8 ad 29 00 00       	call   102fa2 <_d_array_bounds>
  1005f5:	8b 45 d4             	mov    -0x2c(%ebp),%eax
  1005f8:	05 80 f6 10 00       	add    $0x10f680,%eax
  1005fd:	8b 00                	mov    (%eax),%eax
  1005ff:	85 c0                	test   %eax,%eax
  100601:	0f 84 be 00 00 00    	je     1006c5 <irqHandler+0x143>
  100607:	8b 45 2c             	mov    0x2c(%ebp),%eax
  10060a:	3d 00 01 00 00       	cmp    $0x100,%eax
  10060f:	73 0b                	jae    10061c <irqHandler+0x9a>
  100611:	8b 45 2c             	mov    0x2c(%ebp),%eax
  100614:	c1 e0 02             	shl    $0x2,%eax
  100617:	89 45 e4             	mov    %eax,-0x1c(%ebp)
  10061a:	eb 28                	jmp    100644 <irqHandler+0xc2>
  10061c:	c7 45 e8 10 00 00 00 	movl   $0x10,-0x18(%ebp)
  100623:	c7 45 ec 18 63 10 00 	movl   $0x106318,-0x14(%ebp)
  10062a:	c7 44 24 08 33 00 00 	movl   $0x33,0x8(%esp)
  100631:	00 
  100632:	8b 45 e8             	mov    -0x18(%ebp),%eax
  100635:	8b 55 ec             	mov    -0x14(%ebp),%edx
  100638:	89 04 24             	mov    %eax,(%esp)
  10063b:	89 54 24 04          	mov    %edx,0x4(%esp)
  10063f:	e8 5e 29 00 00       	call   102fa2 <_d_array_bounds>
  100644:	8b 45 e4             	mov    -0x1c(%ebp),%eax
  100647:	05 80 f6 10 00       	add    $0x10f680,%eax
  10064c:	8b 00                	mov    (%eax),%eax
  10064e:	89 45 fc             	mov    %eax,-0x4(%ebp)
  100651:	8b 45 08             	mov    0x8(%ebp),%eax
  100654:	89 04 24             	mov    %eax,(%esp)
  100657:	8b 45 0c             	mov    0xc(%ebp),%eax
  10065a:	89 44 24 04          	mov    %eax,0x4(%esp)
  10065e:	8b 45 10             	mov    0x10(%ebp),%eax
  100661:	89 44 24 08          	mov    %eax,0x8(%esp)
  100665:	8b 45 14             	mov    0x14(%ebp),%eax
  100668:	89 44 24 0c          	mov    %eax,0xc(%esp)
  10066c:	8b 45 18             	mov    0x18(%ebp),%eax
  10066f:	89 44 24 10          	mov    %eax,0x10(%esp)
  100673:	8b 45 1c             	mov    0x1c(%ebp),%eax
  100676:	89 44 24 14          	mov    %eax,0x14(%esp)
  10067a:	8b 45 20             	mov    0x20(%ebp),%eax
  10067d:	89 44 24 18          	mov    %eax,0x18(%esp)
  100681:	8b 45 24             	mov    0x24(%ebp),%eax
  100684:	89 44 24 1c          	mov    %eax,0x1c(%esp)
  100688:	8b 45 28             	mov    0x28(%ebp),%eax
  10068b:	89 44 24 20          	mov    %eax,0x20(%esp)
  10068f:	8b 45 2c             	mov    0x2c(%ebp),%eax
  100692:	89 44 24 24          	mov    %eax,0x24(%esp)
  100696:	8b 45 30             	mov    0x30(%ebp),%eax
  100699:	89 44 24 28          	mov    %eax,0x28(%esp)
  10069d:	8b 45 34             	mov    0x34(%ebp),%eax
  1006a0:	89 44 24 2c          	mov    %eax,0x2c(%esp)
  1006a4:	8b 45 38             	mov    0x38(%ebp),%eax
  1006a7:	89 44 24 30          	mov    %eax,0x30(%esp)
  1006ab:	8b 45 3c             	mov    0x3c(%ebp),%eax
  1006ae:	89 44 24 34          	mov    %eax,0x34(%esp)
  1006b2:	8b 45 40             	mov    0x40(%ebp),%eax
  1006b5:	89 44 24 38          	mov    %eax,0x38(%esp)
  1006b9:	8b 45 44             	mov    0x44(%ebp),%eax
  1006bc:	89 44 24 3c          	mov    %eax,0x3c(%esp)
  1006c0:	8b 45 fc             	mov    -0x4(%ebp),%eax
  1006c3:	ff d0                	call   *%eax
  1006c5:	c9                   	leave  
  1006c6:	c3                   	ret    

001006c7 <_D6kernel3x863isr17registerInterruptFhT6kernel3x863isr3isrZv>:
  1006c7:	55                   	push   %ebp
  1006c8:	89 e5                	mov    %esp,%ebp
  1006ca:	83 ec 28             	sub    $0x28,%esp
  1006cd:	0f b6 45 08          	movzbl 0x8(%ebp),%eax
  1006d1:	3d 00 01 00 00       	cmp    $0x100,%eax
  1006d6:	73 0c                	jae    1006e4 <_D6kernel3x863isr17registerInterruptFhT6kernel3x863isr3isrZv+0x1d>
  1006d8:	0f b6 45 08          	movzbl 0x8(%ebp),%eax
  1006dc:	c1 e0 02             	shl    $0x2,%eax
  1006df:	89 45 f4             	mov    %eax,-0xc(%ebp)
  1006e2:	eb 28                	jmp    10070c <_D6kernel3x863isr17registerInterruptFhT6kernel3x863isr3isrZv+0x45>
  1006e4:	c7 45 f8 10 00 00 00 	movl   $0x10,-0x8(%ebp)
  1006eb:	c7 45 fc 18 63 10 00 	movl   $0x106318,-0x4(%ebp)
  1006f2:	c7 44 24 08 3d 00 00 	movl   $0x3d,0x8(%esp)
  1006f9:	00 
  1006fa:	8b 45 f8             	mov    -0x8(%ebp),%eax
  1006fd:	8b 55 fc             	mov    -0x4(%ebp),%edx
  100700:	89 04 24             	mov    %eax,(%esp)
  100703:	89 54 24 04          	mov    %edx,0x4(%esp)
  100707:	e8 96 28 00 00       	call   102fa2 <_d_array_bounds>
  10070c:	8b 55 f4             	mov    -0xc(%ebp),%edx
  10070f:	81 c2 80 f6 10 00    	add    $0x10f680,%edx
  100715:	8b 45 0c             	mov    0xc(%ebp),%eax
  100718:	89 02                	mov    %eax,(%edx)
  10071a:	c9                   	leave  
  10071b:	c3                   	ret    

0010071c <_D6kernel3x866memory8memdebugFZv>:
  10071c:	55                   	push   %ebp
  10071d:	89 e5                	mov    %esp,%ebp
  10071f:	83 ec 08             	sub    $0x8,%esp
  100722:	c7 04 24 51 63 10 00 	movl   $0x106351,(%esp)
  100729:	e8 af 13 00 00       	call   101add <_D5video4text4text4putsFPaZv>
  10072e:	b8 c4 13 11 00       	mov    $0x1113c4,%eax
  100733:	89 04 24             	mov    %eax,(%esp)
  100736:	e8 d9 13 00 00       	call   101b14 <_D5video4text4text6printxFkZv>
  10073b:	c7 04 24 59 63 10 00 	movl   $0x106359,(%esp)
  100742:	e8 96 13 00 00       	call   101add <_D5video4text4text4putsFPaZv>
  100747:	a1 c4 13 11 00       	mov    0x1113c4,%eax
  10074c:	89 04 24             	mov    %eax,(%esp)
  10074f:	e8 c0 13 00 00       	call   101b14 <_D5video4text4text6printxFkZv>
  100754:	c7 04 24 61 63 10 00 	movl   $0x106361,(%esp)
  10075b:	e8 7d 13 00 00       	call   101add <_D5video4text4text4putsFPaZv>
  100760:	a1 80 ad 10 00       	mov    0x10ad80,%eax
  100765:	89 04 24             	mov    %eax,(%esp)
  100768:	e8 a7 13 00 00       	call   101b14 <_D5video4text4text6printxFkZv>
  10076d:	c7 04 24 0a 00 00 00 	movl   $0xa,(%esp)
  100774:	e8 17 13 00 00       	call   101a90 <_D5video4text4text4putcFaZv>
  100779:	c9                   	leave  
  10077a:	c3                   	ret    

0010077b <_D6kernel3x866memory7kmallocFkZPv>:
  10077b:	55                   	push   %ebp
  10077c:	89 e5                	mov    %esp,%ebp
  10077e:	83 ec 18             	sub    $0x18,%esp
  100781:	a1 80 ad 10 00       	mov    0x10ad80,%eax
  100786:	89 45 fc             	mov    %eax,-0x4(%ebp)
  100789:	c7 04 24 61 63 10 00 	movl   $0x106361,(%esp)
  100790:	e8 48 13 00 00       	call   101add <_D5video4text4text4putsFPaZv>
  100795:	a1 80 ad 10 00       	mov    0x10ad80,%eax
  10079a:	89 04 24             	mov    %eax,(%esp)
  10079d:	e8 72 13 00 00       	call   101b14 <_D5video4text4text6printxFkZv>
  1007a2:	c7 04 24 0a 00 00 00 	movl   $0xa,(%esp)
  1007a9:	e8 e2 12 00 00       	call   101a90 <_D5video4text4text4putcFaZv>
  1007ae:	8b 15 80 ad 10 00    	mov    0x10ad80,%edx
  1007b4:	8b 45 08             	mov    0x8(%ebp),%eax
  1007b7:	8d 04 02             	lea    (%edx,%eax,1),%eax
  1007ba:	a3 80 ad 10 00       	mov    %eax,0x10ad80
  1007bf:	8b 45 fc             	mov    -0x4(%ebp),%eax
  1007c2:	c9                   	leave  
  1007c3:	c3                   	ret    

001007c4 <_D6kernel3x866memory16getPlacementAddrFZPv>:
  1007c4:	55                   	push   %ebp
  1007c5:	89 e5                	mov    %esp,%ebp
  1007c7:	a1 80 ad 10 00       	mov    0x10ad80,%eax
  1007cc:	5d                   	pop    %ebp
  1007cd:	c3                   	ret    

001007ce <_D6kernel3x866memory12kalignMemPtrFZv>:
  1007ce:	55                   	push   %ebp
  1007cf:	89 e5                	mov    %esp,%ebp
  1007d1:	83 ec 10             	sub    $0x10,%esp
  1007d4:	a1 80 ad 10 00       	mov    0x10ad80,%eax
  1007d9:	89 45 fc             	mov    %eax,-0x4(%ebp)
  1007dc:	81 65 fc 00 f0 ff ff 	andl   $0xfffff000,-0x4(%ebp)
  1007e3:	81 45 fc 00 10 00 00 	addl   $0x1000,-0x4(%ebp)
  1007ea:	8b 45 fc             	mov    -0x4(%ebp),%eax
  1007ed:	a3 80 ad 10 00       	mov    %eax,0x10ad80
  1007f2:	c9                   	leave  
  1007f3:	c3                   	ret    

001007f4 <_D6kernel3x866memory9kmalloc_aFkZPv>:
  1007f4:	55                   	push   %ebp
  1007f5:	89 e5                	mov    %esp,%ebp
  1007f7:	83 ec 08             	sub    $0x8,%esp
  1007fa:	e8 cf ff ff ff       	call   1007ce <_D6kernel3x866memory12kalignMemPtrFZv>
  1007ff:	8b 45 08             	mov    0x8(%ebp),%eax
  100802:	89 04 24             	mov    %eax,(%esp)
  100805:	e8 71 ff ff ff       	call   10077b <_D6kernel3x866memory7kmallocFkZPv>
  10080a:	c9                   	leave  
  10080b:	c3                   	ret    

0010080c <_D6kernel3x866memory9kmalloc_pFkPkZPv>:
  10080c:	55                   	push   %ebp
  10080d:	89 e5                	mov    %esp,%ebp
  10080f:	83 ec 10             	sub    $0x10,%esp
  100812:	83 7d 0c 00          	cmpl   $0x0,0xc(%ebp)
  100816:	74 0c                	je     100824 <_D6kernel3x866memory9kmalloc_pFkPkZPv+0x18>
  100818:	a1 80 ad 10 00       	mov    0x10ad80,%eax
  10081d:	89 c2                	mov    %eax,%edx
  10081f:	8b 45 0c             	mov    0xc(%ebp),%eax
  100822:	89 10                	mov    %edx,(%eax)
  100824:	a1 80 ad 10 00       	mov    0x10ad80,%eax
  100829:	89 45 fc             	mov    %eax,-0x4(%ebp)
  10082c:	a1 80 ad 10 00       	mov    0x10ad80,%eax
  100831:	89 45 f8             	mov    %eax,-0x8(%ebp)
  100834:	8b 45 08             	mov    0x8(%ebp),%eax
  100837:	01 45 f8             	add    %eax,-0x8(%ebp)
  10083a:	8b 45 f8             	mov    -0x8(%ebp),%eax
  10083d:	a3 80 ad 10 00       	mov    %eax,0x10ad80
  100842:	8b 45 fc             	mov    -0x4(%ebp),%eax
  100845:	c9                   	leave  
  100846:	c3                   	ret    
	...

00100848 <_D6kernel3pit9initTimerFkZv>:
  100848:	55                   	push   %ebp
  100849:	89 e5                	mov    %esp,%ebp
  10084b:	83 ec 28             	sub    $0x28,%esp
  10084e:	b8 e6 08 10 00       	mov    $0x1008e6,%eax
  100853:	89 44 24 04          	mov    %eax,0x4(%esp)
  100857:	c7 04 24 20 00 00 00 	movl   $0x20,(%esp)
  10085e:	e8 64 fe ff ff       	call   1006c7 <_D6kernel3x863isr17registerInterruptFhT6kernel3x863isr3isrZv>
  100863:	b8 dc 34 12 00       	mov    $0x1234dc,%eax
  100868:	ba 00 00 00 00       	mov    $0x0,%edx
  10086d:	f7 75 08             	divl   0x8(%ebp)
  100870:	89 45 fc             	mov    %eax,-0x4(%ebp)
  100873:	c7 44 24 04 36 00 00 	movl   $0x36,0x4(%esp)
  10087a:	00 
  10087b:	c7 04 24 43 00 00 00 	movl   $0x43,(%esp)
  100882:	e8 1d fa ff ff       	call   1002a4 <_D6kernel2io4outbFthZv>
  100887:	8b 45 fc             	mov    -0x4(%ebp),%eax
  10088a:	88 45 fb             	mov    %al,-0x5(%ebp)
  10088d:	8b 45 fc             	mov    -0x4(%ebp),%eax
  100890:	c1 e8 08             	shr    $0x8,%eax
  100893:	88 45 fa             	mov    %al,-0x6(%ebp)
  100896:	0f b6 45 fb          	movzbl -0x5(%ebp),%eax
  10089a:	89 44 24 04          	mov    %eax,0x4(%esp)
  10089e:	c7 04 24 40 00 00 00 	movl   $0x40,(%esp)
  1008a5:	e8 fa f9 ff ff       	call   1002a4 <_D6kernel2io4outbFthZv>
  1008aa:	0f b6 45 fa          	movzbl -0x6(%ebp),%eax
  1008ae:	89 44 24 04          	mov    %eax,0x4(%esp)
  1008b2:	c7 04 24 40 00 00 00 	movl   $0x40,(%esp)
  1008b9:	e8 e6 f9 ff ff       	call   1002a4 <_D6kernel2io4outbFthZv>
  1008be:	8b 45 08             	mov    0x8(%ebp),%eax
  1008c1:	a3 8c fa 10 00       	mov    %eax,0x10fa8c
  1008c6:	c9                   	leave  
  1008c7:	c3                   	ret    

001008c8 <_D6kernel3pit5sleepFkZv>:
  1008c8:	55                   	push   %ebp
  1008c9:	89 e5                	mov    %esp,%ebp
  1008cb:	8b 45 08             	mov    0x8(%ebp),%eax
  1008ce:	a3 90 fa 10 00       	mov    %eax,0x10fa90
  1008d3:	a1 90 fa 10 00       	mov    0x10fa90,%eax
  1008d8:	85 c0                	test   %eax,%eax
  1008da:	0f 95 c0             	setne  %al
  1008dd:	83 f0 01             	xor    $0x1,%eax
  1008e0:	84 c0                	test   %al,%al
  1008e2:	74 ef                	je     1008d3 <_D6kernel3pit5sleepFkZv+0xb>
  1008e4:	5d                   	pop    %ebp
  1008e5:	c3                   	ret    

001008e6 <_D6kernel3pit13timerCallbackFS6kernel3x863isr9registersZv>:
  1008e6:	55                   	push   %ebp
  1008e7:	89 e5                	mov    %esp,%ebp
  1008e9:	83 ec 08             	sub    $0x8,%esp
  1008ec:	a1 84 fa 10 00       	mov    0x10fa84,%eax
  1008f1:	83 c0 01             	add    $0x1,%eax
  1008f4:	a3 84 fa 10 00       	mov    %eax,0x10fa84
  1008f9:	8b 0d 84 fa 10 00    	mov    0x10fa84,%ecx
  1008ff:	c7 45 f8 1f 85 eb 51 	movl   $0x51eb851f,-0x8(%ebp)
  100906:	8b 45 f8             	mov    -0x8(%ebp),%eax
  100909:	f7 e1                	mul    %ecx
  10090b:	89 d0                	mov    %edx,%eax
  10090d:	c1 e8 04             	shr    $0x4,%eax
  100910:	89 45 fc             	mov    %eax,-0x4(%ebp)
  100913:	6b 45 fc 32          	imul   $0x32,-0x4(%ebp),%eax
  100917:	89 ca                	mov    %ecx,%edx
  100919:	29 c2                	sub    %eax,%edx
  10091b:	89 55 fc             	mov    %edx,-0x4(%ebp)
  10091e:	83 7d fc 00          	cmpl   $0x0,-0x4(%ebp)
  100922:	75 0d                	jne    100931 <_D6kernel3pit13timerCallbackFS6kernel3x863isr9registersZv+0x4b>
  100924:	a1 88 fa 10 00       	mov    0x10fa88,%eax
  100929:	83 c0 01             	add    $0x1,%eax
  10092c:	a3 88 fa 10 00       	mov    %eax,0x10fa88
  100931:	a1 90 fa 10 00       	mov    0x10fa90,%eax
  100936:	85 c0                	test   %eax,%eax
  100938:	74 0d                	je     100947 <_D6kernel3pit13timerCallbackFS6kernel3x863isr9registersZv+0x61>
  10093a:	a1 90 fa 10 00       	mov    0x10fa90,%eax
  10093f:	83 e8 01             	sub    $0x1,%eax
  100942:	a3 90 fa 10 00       	mov    %eax,0x10fa90
  100947:	c9                   	leave  
  100948:	c3                   	ret    
  100949:	00 00                	add    %al,(%eax)
	...

0010094c <_D6kernel3x866paging10initPagingFZv>:
  10094c:	55                   	push   %ebp
  10094d:	89 e5                	mov    %esp,%ebp
  10094f:	83 ec 38             	sub    $0x38,%esp
  100952:	fa                   	cli    
  100953:	c7 04 24 00 10 00 00 	movl   $0x1000,(%esp)
  10095a:	e8 95 fe ff ff       	call   1007f4 <_D6kernel3x866memory9kmalloc_aFkZPv>
  10095f:	a3 c0 0a 11 00       	mov    %eax,0x110ac0
  100964:	c7 04 24 00 00 40 00 	movl   $0x400000,(%esp)
  10096b:	e8 84 fe ff ff       	call   1007f4 <_D6kernel3x866memory9kmalloc_aFkZPv>
  100970:	a3 c4 0a 11 00       	mov    %eax,0x110ac4
  100975:	c7 45 fc 00 00 00 00 	movl   $0x0,-0x4(%ebp)
  10097c:	c7 45 f8 00 00 00 00 	movl   $0x0,-0x8(%ebp)
  100983:	c7 45 f4 00 00 00 00 	movl   $0x0,-0xc(%ebp)
  10098a:	c7 45 f4 00 00 00 00 	movl   $0x0,-0xc(%ebp)
  100991:	a1 84 ad 10 00       	mov    0x10ad84,%eax
  100996:	39 45 f4             	cmp    %eax,-0xc(%ebp)
  100999:	0f 92 c0             	setb   %al
  10099c:	83 f0 01             	xor    $0x1,%eax
  10099f:	84 c0                	test   %al,%al
  1009a1:	0f 85 8a 00 00 00    	jne    100a31 <_D6kernel3x866paging10initPagingFZv+0xe5>
  1009a7:	c7 45 f8 00 00 00 00 	movl   $0x0,-0x8(%ebp)
  1009ae:	81 7d f8 ff 03 00 00 	cmpl   $0x3ff,-0x8(%ebp)
  1009b5:	0f 96 c0             	setbe  %al
  1009b8:	83 f0 01             	xor    $0x1,%eax
  1009bb:	84 c0                	test   %al,%al
  1009bd:	75 69                	jne    100a28 <_D6kernel3x866paging10initPagingFZv+0xdc>
  1009bf:	8b 15 c4 0a 11 00    	mov    0x110ac4,%edx
  1009c5:	8b 45 f4             	mov    -0xc(%ebp),%eax
  1009c8:	c1 e0 0c             	shl    $0xc,%eax
  1009cb:	8d 04 02             	lea    (%edx,%eax,1),%eax
  1009ce:	89 45 e0             	mov    %eax,-0x20(%ebp)
  1009d1:	81 7d f8 00 04 00 00 	cmpl   $0x400,-0x8(%ebp)
  1009d8:	73 0b                	jae    1009e5 <_D6kernel3x866paging10initPagingFZv+0x99>
  1009da:	8b 45 f8             	mov    -0x8(%ebp),%eax
  1009dd:	c1 e0 02             	shl    $0x2,%eax
  1009e0:	89 45 e4             	mov    %eax,-0x1c(%ebp)
  1009e3:	eb 28                	jmp    100a0d <_D6kernel3x866paging10initPagingFZv+0xc1>
  1009e5:	c7 45 e8 13 00 00 00 	movl   $0x13,-0x18(%ebp)
  1009ec:	c7 45 ec 97 63 10 00 	movl   $0x106397,-0x14(%ebp)
  1009f3:	c7 44 24 08 29 00 00 	movl   $0x29,0x8(%esp)
  1009fa:	00 
  1009fb:	8b 45 e8             	mov    -0x18(%ebp),%eax
  1009fe:	8b 55 ec             	mov    -0x14(%ebp),%edx
  100a01:	89 04 24             	mov    %eax,(%esp)
  100a04:	89 54 24 04          	mov    %edx,0x4(%esp)
  100a08:	e8 95 25 00 00       	call   102fa2 <_d_array_bounds>
  100a0d:	8b 45 e0             	mov    -0x20(%ebp),%eax
  100a10:	03 45 e4             	add    -0x1c(%ebp),%eax
  100a13:	8b 55 fc             	mov    -0x4(%ebp),%edx
  100a16:	83 ca 03             	or     $0x3,%edx
  100a19:	89 10                	mov    %edx,(%eax)
  100a1b:	81 45 fc 00 10 00 00 	addl   $0x1000,-0x4(%ebp)
  100a22:	83 45 f8 01          	addl   $0x1,-0x8(%ebp)
  100a26:	eb 86                	jmp    1009ae <_D6kernel3x866paging10initPagingFZv+0x62>
  100a28:	83 45 f4 01          	addl   $0x1,-0xc(%ebp)
  100a2c:	e9 60 ff ff ff       	jmp    100991 <_D6kernel3x866paging10initPagingFZv+0x45>
  100a31:	8b 15 c0 0a 11 00    	mov    0x110ac0,%edx
  100a37:	a1 c4 0a 11 00       	mov    0x110ac4,%eax
  100a3c:	89 02                	mov    %eax,(%edx)
  100a3e:	8b 15 c0 0a 11 00    	mov    0x110ac0,%edx
  100a44:	a1 c0 0a 11 00       	mov    0x110ac0,%eax
  100a49:	8b 00                	mov    (%eax),%eax
  100a4b:	83 c8 03             	or     $0x3,%eax
  100a4e:	89 02                	mov    %eax,(%edx)
  100a50:	c7 45 f8 01 00 00 00 	movl   $0x1,-0x8(%ebp)
  100a57:	81 7d f8 ff 03 00 00 	cmpl   $0x3ff,-0x8(%ebp)
  100a5e:	0f 96 c0             	setbe  %al
  100a61:	83 f0 01             	xor    $0x1,%eax
  100a64:	84 c0                	test   %al,%al
  100a66:	75 1b                	jne    100a83 <_D6kernel3x866paging10initPagingFZv+0x137>
  100a68:	8b 15 c0 0a 11 00    	mov    0x110ac0,%edx
  100a6e:	8b 45 f8             	mov    -0x8(%ebp),%eax
  100a71:	c1 e0 02             	shl    $0x2,%eax
  100a74:	8d 04 02             	lea    (%edx,%eax,1),%eax
  100a77:	c7 00 02 00 00 00    	movl   $0x2,(%eax)
  100a7d:	83 45 f8 01          	addl   $0x1,-0x8(%ebp)
  100a81:	eb d4                	jmp    100a57 <_D6kernel3x866paging10initPagingFZv+0x10b>
  100a83:	b8 ba 0a 10 00       	mov    $0x100aba,%eax
  100a88:	89 44 24 04          	mov    %eax,0x4(%esp)
  100a8c:	c7 04 24 0e 00 00 00 	movl   $0xe,(%esp)
  100a93:	e8 2f fc ff ff       	call   1006c7 <_D6kernel3x863isr17registerInterruptFhT6kernel3x863isr3isrZv>
  100a98:	a1 c0 0a 11 00       	mov    0x110ac0,%eax
  100a9d:	0f 22 d8             	mov    %eax,%cr3
  100aa0:	0f 20 c0             	mov    %cr0,%eax
  100aa3:	0d 00 00 00 80       	or     $0x80000000,%eax
  100aa8:	0f 22 c0             	mov    %eax,%cr0
  100aab:	fb                   	sti    
  100aac:	c7 04 24 ab 63 10 00 	movl   $0x1063ab,(%esp)
  100ab3:	e8 3d 10 00 00       	call   101af5 <_D5video4text4text6putslnFPaZv>
  100ab8:	c9                   	leave  
  100ab9:	c3                   	ret    

00100aba <_D6kernel3x866paging9pageFaultFS6kernel3x863isr9registersZv>:
  100aba:	55                   	push   %ebp
  100abb:	89 e5                	mov    %esp,%ebp
  100abd:	83 ec 28             	sub    $0x28,%esp
  100ac0:	c7 45 e8 00 00 00 00 	movl   $0x0,-0x18(%ebp)
  100ac7:	c7 45 fc 00 00 00 00 	movl   $0x0,-0x4(%ebp)
  100ace:	c7 45 f8 00 00 00 00 	movl   $0x0,-0x8(%ebp)
  100ad5:	c7 45 f4 00 00 00 00 	movl   $0x0,-0xc(%ebp)
  100adc:	c7 45 f0 00 00 00 00 	movl   $0x0,-0x10(%ebp)
  100ae3:	c7 45 ec 00 00 00 00 	movl   $0x0,-0x14(%ebp)
  100aea:	0f 20 d0             	mov    %cr2,%eax
  100aed:	89 45 e8             	mov    %eax,-0x18(%ebp)
  100af0:	e8 9e 14 00 00       	call   101f93 <_D5video4text4misc9panicInitFZv>
  100af5:	8b 45 30             	mov    0x30(%ebp),%eax
  100af8:	83 e0 01             	and    $0x1,%eax
  100afb:	83 f0 01             	xor    $0x1,%eax
  100afe:	0f b6 c0             	movzbl %al,%eax
  100b01:	89 45 fc             	mov    %eax,-0x4(%ebp)
  100b04:	8b 45 30             	mov    0x30(%ebp),%eax
  100b07:	83 e0 02             	and    $0x2,%eax
  100b0a:	89 45 f8             	mov    %eax,-0x8(%ebp)
  100b0d:	8b 45 30             	mov    0x30(%ebp),%eax
  100b10:	83 e0 04             	and    $0x4,%eax
  100b13:	89 45 f4             	mov    %eax,-0xc(%ebp)
  100b16:	8b 45 30             	mov    0x30(%ebp),%eax
  100b19:	83 e0 08             	and    $0x8,%eax
  100b1c:	89 45 f0             	mov    %eax,-0x10(%ebp)
  100b1f:	8b 45 30             	mov    0x30(%ebp),%eax
  100b22:	83 e0 10             	and    $0x10,%eax
  100b25:	89 45 ec             	mov    %eax,-0x14(%ebp)
  100b28:	c7 04 24 bb 63 10 00 	movl   $0x1063bb,(%esp)
  100b2f:	e8 a9 0f 00 00       	call   101add <_D5video4text4text4putsFPaZv>
  100b34:	8b 45 e8             	mov    -0x18(%ebp),%eax
  100b37:	89 04 24             	mov    %eax,(%esp)
  100b3a:	e8 d5 0f 00 00       	call   101b14 <_D5video4text4text6printxFkZv>
  100b3f:	c7 04 24 0a 00 00 00 	movl   $0xa,(%esp)
  100b46:	e8 45 0f 00 00       	call   101a90 <_D5video4text4text4putcFaZv>
  100b4b:	83 7d fc 00          	cmpl   $0x0,-0x4(%ebp)
  100b4f:	74 0c                	je     100b5d <_D6kernel3x866paging9pageFaultFS6kernel3x863isr9registersZv+0xa3>
  100b51:	c7 04 24 c8 63 10 00 	movl   $0x1063c8,(%esp)
  100b58:	e8 98 0f 00 00       	call   101af5 <_D5video4text4text6putslnFPaZv>
  100b5d:	83 7d f8 00          	cmpl   $0x0,-0x8(%ebp)
  100b61:	74 0c                	je     100b6f <_D6kernel3x866paging9pageFaultFS6kernel3x863isr9registersZv+0xb5>
  100b63:	c7 04 24 dc 63 10 00 	movl   $0x1063dc,(%esp)
  100b6a:	e8 86 0f 00 00       	call   101af5 <_D5video4text4text6putslnFPaZv>
  100b6f:	83 7d f4 00          	cmpl   $0x0,-0xc(%ebp)
  100b73:	74 0c                	je     100b81 <_D6kernel3x866paging9pageFaultFS6kernel3x863isr9registersZv+0xc7>
  100b75:	c7 04 24 00 64 10 00 	movl   $0x106400,(%esp)
  100b7c:	e8 74 0f 00 00       	call   101af5 <_D5video4text4text6putslnFPaZv>
  100b81:	83 7d f0 00          	cmpl   $0x0,-0x10(%ebp)
  100b85:	74 0c                	je     100b93 <_D6kernel3x866paging9pageFaultFS6kernel3x863isr9registersZv+0xd9>
  100b87:	c7 04 24 34 64 10 00 	movl   $0x106434,(%esp)
  100b8e:	e8 62 0f 00 00       	call   101af5 <_D5video4text4text6putslnFPaZv>
  100b93:	eb fe                	jmp    100b93 <_D6kernel3x866paging9pageFaultFS6kernel3x863isr9registersZv+0xd9>
  100b95:	00 00                	add    %al,(%eax)
	...

00100b98 <_D6kernel3x863idt7initIdtFZv>:
  100b98:	55                   	push   %ebp
  100b99:	89 e5                	mov    %esp,%ebp
  100b9b:	83 ec 18             	sub    $0x18,%esp
  100b9e:	c7 44 24 04 11 00 00 	movl   $0x11,0x4(%esp)
  100ba5:	00 
  100ba6:	c7 04 24 20 00 00 00 	movl   $0x20,(%esp)
  100bad:	e8 f2 f6 ff ff       	call   1002a4 <_D6kernel2io4outbFthZv>
  100bb2:	c7 44 24 04 11 00 00 	movl   $0x11,0x4(%esp)
  100bb9:	00 
  100bba:	c7 04 24 a0 00 00 00 	movl   $0xa0,(%esp)
  100bc1:	e8 de f6 ff ff       	call   1002a4 <_D6kernel2io4outbFthZv>
  100bc6:	c7 44 24 04 20 00 00 	movl   $0x20,0x4(%esp)
  100bcd:	00 
  100bce:	c7 04 24 21 00 00 00 	movl   $0x21,(%esp)
  100bd5:	e8 ca f6 ff ff       	call   1002a4 <_D6kernel2io4outbFthZv>
  100bda:	c7 44 24 04 28 00 00 	movl   $0x28,0x4(%esp)
  100be1:	00 
  100be2:	c7 04 24 a1 00 00 00 	movl   $0xa1,(%esp)
  100be9:	e8 b6 f6 ff ff       	call   1002a4 <_D6kernel2io4outbFthZv>
  100bee:	c7 44 24 04 04 00 00 	movl   $0x4,0x4(%esp)
  100bf5:	00 
  100bf6:	c7 04 24 21 00 00 00 	movl   $0x21,(%esp)
  100bfd:	e8 a2 f6 ff ff       	call   1002a4 <_D6kernel2io4outbFthZv>
  100c02:	c7 44 24 04 02 00 00 	movl   $0x2,0x4(%esp)
  100c09:	00 
  100c0a:	c7 04 24 a1 00 00 00 	movl   $0xa1,(%esp)
  100c11:	e8 8e f6 ff ff       	call   1002a4 <_D6kernel2io4outbFthZv>
  100c16:	c7 44 24 04 01 00 00 	movl   $0x1,0x4(%esp)
  100c1d:	00 
  100c1e:	c7 04 24 21 00 00 00 	movl   $0x21,(%esp)
  100c25:	e8 7a f6 ff ff       	call   1002a4 <_D6kernel2io4outbFthZv>
  100c2a:	c7 44 24 04 01 00 00 	movl   $0x1,0x4(%esp)
  100c31:	00 
  100c32:	c7 04 24 a1 00 00 00 	movl   $0xa1,(%esp)
  100c39:	e8 66 f6 ff ff       	call   1002a4 <_D6kernel2io4outbFthZv>
  100c3e:	c7 44 24 04 00 00 00 	movl   $0x0,0x4(%esp)
  100c45:	00 
  100c46:	c7 04 24 21 00 00 00 	movl   $0x21,(%esp)
  100c4d:	e8 52 f6 ff ff       	call   1002a4 <_D6kernel2io4outbFthZv>
  100c52:	c7 44 24 04 00 00 00 	movl   $0x0,0x4(%esp)
  100c59:	00 
  100c5a:	c7 04 24 a1 00 00 00 	movl   $0xa1,(%esp)
  100c61:	e8 3e f6 ff ff       	call   1002a4 <_D6kernel2io4outbFthZv>
  100c66:	66 c7 05 00 13 11 00 	movw   $0x7ff,0x111300
  100c6d:	ff 07 
  100c6f:	b8 00 0b 11 00       	mov    $0x110b00,%eax
  100c74:	a3 02 13 11 00       	mov    %eax,0x111302
  100c79:	c7 44 24 08 00 08 00 	movl   $0x800,0x8(%esp)
  100c80:	00 
  100c81:	c7 44 24 04 00 00 00 	movl   $0x0,0x4(%esp)
  100c88:	00 
  100c89:	c7 04 24 00 0b 11 00 	movl   $0x110b00,(%esp)
  100c90:	e8 e3 55 00 00       	call   106278 <_D6common6memsetFPvhkZv>
  100c95:	b8 50 00 10 00       	mov    $0x100050,%eax
  100c9a:	c7 44 24 0c 8e 00 00 	movl   $0x8e,0xc(%esp)
  100ca1:	00 
  100ca2:	c7 44 24 08 08 00 00 	movl   $0x8,0x8(%esp)
  100ca9:	00 
  100caa:	89 44 24 04          	mov    %eax,0x4(%esp)
  100cae:	c7 04 24 00 00 00 00 	movl   $0x0,(%esp)
  100cb5:	e8 da 06 00 00       	call   101394 <_D6kernel3x863idt6idtSetFhkthZv>
  100cba:	b8 5a 00 10 00       	mov    $0x10005a,%eax
  100cbf:	c7 44 24 0c 8e 00 00 	movl   $0x8e,0xc(%esp)
  100cc6:	00 
  100cc7:	c7 44 24 08 08 00 00 	movl   $0x8,0x8(%esp)
  100cce:	00 
  100ccf:	89 44 24 04          	mov    %eax,0x4(%esp)
  100cd3:	c7 04 24 01 00 00 00 	movl   $0x1,(%esp)
  100cda:	e8 b5 06 00 00       	call   101394 <_D6kernel3x863idt6idtSetFhkthZv>
  100cdf:	b8 64 00 10 00       	mov    $0x100064,%eax
  100ce4:	c7 44 24 0c 8e 00 00 	movl   $0x8e,0xc(%esp)
  100ceb:	00 
  100cec:	c7 44 24 08 08 00 00 	movl   $0x8,0x8(%esp)
  100cf3:	00 
  100cf4:	89 44 24 04          	mov    %eax,0x4(%esp)
  100cf8:	c7 04 24 02 00 00 00 	movl   $0x2,(%esp)
  100cff:	e8 90 06 00 00       	call   101394 <_D6kernel3x863idt6idtSetFhkthZv>
  100d04:	b8 6e 00 10 00       	mov    $0x10006e,%eax
  100d09:	c7 44 24 0c 8e 00 00 	movl   $0x8e,0xc(%esp)
  100d10:	00 
  100d11:	c7 44 24 08 08 00 00 	movl   $0x8,0x8(%esp)
  100d18:	00 
  100d19:	89 44 24 04          	mov    %eax,0x4(%esp)
  100d1d:	c7 04 24 03 00 00 00 	movl   $0x3,(%esp)
  100d24:	e8 6b 06 00 00       	call   101394 <_D6kernel3x863idt6idtSetFhkthZv>
  100d29:	b8 78 00 10 00       	mov    $0x100078,%eax
  100d2e:	c7 44 24 0c 8e 00 00 	movl   $0x8e,0xc(%esp)
  100d35:	00 
  100d36:	c7 44 24 08 08 00 00 	movl   $0x8,0x8(%esp)
  100d3d:	00 
  100d3e:	89 44 24 04          	mov    %eax,0x4(%esp)
  100d42:	c7 04 24 04 00 00 00 	movl   $0x4,(%esp)
  100d49:	e8 46 06 00 00       	call   101394 <_D6kernel3x863idt6idtSetFhkthZv>
  100d4e:	b8 82 00 10 00       	mov    $0x100082,%eax
  100d53:	c7 44 24 0c 8e 00 00 	movl   $0x8e,0xc(%esp)
  100d5a:	00 
  100d5b:	c7 44 24 08 08 00 00 	movl   $0x8,0x8(%esp)
  100d62:	00 
  100d63:	89 44 24 04          	mov    %eax,0x4(%esp)
  100d67:	c7 04 24 05 00 00 00 	movl   $0x5,(%esp)
  100d6e:	e8 21 06 00 00       	call   101394 <_D6kernel3x863idt6idtSetFhkthZv>
  100d73:	b8 8c 00 10 00       	mov    $0x10008c,%eax
  100d78:	c7 44 24 0c 8e 00 00 	movl   $0x8e,0xc(%esp)
  100d7f:	00 
  100d80:	c7 44 24 08 08 00 00 	movl   $0x8,0x8(%esp)
  100d87:	00 
  100d88:	89 44 24 04          	mov    %eax,0x4(%esp)
  100d8c:	c7 04 24 06 00 00 00 	movl   $0x6,(%esp)
  100d93:	e8 fc 05 00 00       	call   101394 <_D6kernel3x863idt6idtSetFhkthZv>
  100d98:	b8 96 00 10 00       	mov    $0x100096,%eax
  100d9d:	c7 44 24 0c 8e 00 00 	movl   $0x8e,0xc(%esp)
  100da4:	00 
  100da5:	c7 44 24 08 08 00 00 	movl   $0x8,0x8(%esp)
  100dac:	00 
  100dad:	89 44 24 04          	mov    %eax,0x4(%esp)
  100db1:	c7 04 24 07 00 00 00 	movl   $0x7,(%esp)
  100db8:	e8 d7 05 00 00       	call   101394 <_D6kernel3x863idt6idtSetFhkthZv>
  100dbd:	b8 a0 00 10 00       	mov    $0x1000a0,%eax
  100dc2:	c7 44 24 0c 8e 00 00 	movl   $0x8e,0xc(%esp)
  100dc9:	00 
  100dca:	c7 44 24 08 08 00 00 	movl   $0x8,0x8(%esp)
  100dd1:	00 
  100dd2:	89 44 24 04          	mov    %eax,0x4(%esp)
  100dd6:	c7 04 24 08 00 00 00 	movl   $0x8,(%esp)
  100ddd:	e8 b2 05 00 00       	call   101394 <_D6kernel3x863idt6idtSetFhkthZv>
  100de2:	b8 a8 00 10 00       	mov    $0x1000a8,%eax
  100de7:	c7 44 24 0c 8e 00 00 	movl   $0x8e,0xc(%esp)
  100dee:	00 
  100def:	c7 44 24 08 08 00 00 	movl   $0x8,0x8(%esp)
  100df6:	00 
  100df7:	89 44 24 04          	mov    %eax,0x4(%esp)
  100dfb:	c7 04 24 09 00 00 00 	movl   $0x9,(%esp)
  100e02:	e8 8d 05 00 00       	call   101394 <_D6kernel3x863idt6idtSetFhkthZv>
  100e07:	b8 b2 00 10 00       	mov    $0x1000b2,%eax
  100e0c:	c7 44 24 0c 8e 00 00 	movl   $0x8e,0xc(%esp)
  100e13:	00 
  100e14:	c7 44 24 08 08 00 00 	movl   $0x8,0x8(%esp)
  100e1b:	00 
  100e1c:	89 44 24 04          	mov    %eax,0x4(%esp)
  100e20:	c7 04 24 0a 00 00 00 	movl   $0xa,(%esp)
  100e27:	e8 68 05 00 00       	call   101394 <_D6kernel3x863idt6idtSetFhkthZv>
  100e2c:	b8 ba 00 10 00       	mov    $0x1000ba,%eax
  100e31:	c7 44 24 0c 8e 00 00 	movl   $0x8e,0xc(%esp)
  100e38:	00 
  100e39:	c7 44 24 08 08 00 00 	movl   $0x8,0x8(%esp)
  100e40:	00 
  100e41:	89 44 24 04          	mov    %eax,0x4(%esp)
  100e45:	c7 04 24 0b 00 00 00 	movl   $0xb,(%esp)
  100e4c:	e8 43 05 00 00       	call   101394 <_D6kernel3x863idt6idtSetFhkthZv>
  100e51:	b8 c2 00 10 00       	mov    $0x1000c2,%eax
  100e56:	c7 44 24 0c 8e 00 00 	movl   $0x8e,0xc(%esp)
  100e5d:	00 
  100e5e:	c7 44 24 08 08 00 00 	movl   $0x8,0x8(%esp)
  100e65:	00 
  100e66:	89 44 24 04          	mov    %eax,0x4(%esp)
  100e6a:	c7 04 24 0c 00 00 00 	movl   $0xc,(%esp)
  100e71:	e8 1e 05 00 00       	call   101394 <_D6kernel3x863idt6idtSetFhkthZv>
  100e76:	b8 ca 00 10 00       	mov    $0x1000ca,%eax
  100e7b:	c7 44 24 0c 8e 00 00 	movl   $0x8e,0xc(%esp)
  100e82:	00 
  100e83:	c7 44 24 08 08 00 00 	movl   $0x8,0x8(%esp)
  100e8a:	00 
  100e8b:	89 44 24 04          	mov    %eax,0x4(%esp)
  100e8f:	c7 04 24 0d 00 00 00 	movl   $0xd,(%esp)
  100e96:	e8 f9 04 00 00       	call   101394 <_D6kernel3x863idt6idtSetFhkthZv>
  100e9b:	b8 d2 00 10 00       	mov    $0x1000d2,%eax
  100ea0:	c7 44 24 0c 8e 00 00 	movl   $0x8e,0xc(%esp)
  100ea7:	00 
  100ea8:	c7 44 24 08 08 00 00 	movl   $0x8,0x8(%esp)
  100eaf:	00 
  100eb0:	89 44 24 04          	mov    %eax,0x4(%esp)
  100eb4:	c7 04 24 0e 00 00 00 	movl   $0xe,(%esp)
  100ebb:	e8 d4 04 00 00       	call   101394 <_D6kernel3x863idt6idtSetFhkthZv>
  100ec0:	b8 da 00 10 00       	mov    $0x1000da,%eax
  100ec5:	c7 44 24 0c 8e 00 00 	movl   $0x8e,0xc(%esp)
  100ecc:	00 
  100ecd:	c7 44 24 08 08 00 00 	movl   $0x8,0x8(%esp)
  100ed4:	00 
  100ed5:	89 44 24 04          	mov    %eax,0x4(%esp)
  100ed9:	c7 04 24 0f 00 00 00 	movl   $0xf,(%esp)
  100ee0:	e8 af 04 00 00       	call   101394 <_D6kernel3x863idt6idtSetFhkthZv>
  100ee5:	b8 e4 00 10 00       	mov    $0x1000e4,%eax
  100eea:	c7 44 24 0c 8e 00 00 	movl   $0x8e,0xc(%esp)
  100ef1:	00 
  100ef2:	c7 44 24 08 08 00 00 	movl   $0x8,0x8(%esp)
  100ef9:	00 
  100efa:	89 44 24 04          	mov    %eax,0x4(%esp)
  100efe:	c7 04 24 10 00 00 00 	movl   $0x10,(%esp)
  100f05:	e8 8a 04 00 00       	call   101394 <_D6kernel3x863idt6idtSetFhkthZv>
  100f0a:	b8 ee 00 10 00       	mov    $0x1000ee,%eax
  100f0f:	c7 44 24 0c 8e 00 00 	movl   $0x8e,0xc(%esp)
  100f16:	00 
  100f17:	c7 44 24 08 08 00 00 	movl   $0x8,0x8(%esp)
  100f1e:	00 
  100f1f:	89 44 24 04          	mov    %eax,0x4(%esp)
  100f23:	c7 04 24 11 00 00 00 	movl   $0x11,(%esp)
  100f2a:	e8 65 04 00 00       	call   101394 <_D6kernel3x863idt6idtSetFhkthZv>
  100f2f:	b8 f8 00 10 00       	mov    $0x1000f8,%eax
  100f34:	c7 44 24 0c 8e 00 00 	movl   $0x8e,0xc(%esp)
  100f3b:	00 
  100f3c:	c7 44 24 08 08 00 00 	movl   $0x8,0x8(%esp)
  100f43:	00 
  100f44:	89 44 24 04          	mov    %eax,0x4(%esp)
  100f48:	c7 04 24 12 00 00 00 	movl   $0x12,(%esp)
  100f4f:	e8 40 04 00 00       	call   101394 <_D6kernel3x863idt6idtSetFhkthZv>
  100f54:	b8 02 01 10 00       	mov    $0x100102,%eax
  100f59:	c7 44 24 0c 8e 00 00 	movl   $0x8e,0xc(%esp)
  100f60:	00 
  100f61:	c7 44 24 08 08 00 00 	movl   $0x8,0x8(%esp)
  100f68:	00 
  100f69:	89 44 24 04          	mov    %eax,0x4(%esp)
  100f6d:	c7 04 24 13 00 00 00 	movl   $0x13,(%esp)
  100f74:	e8 1b 04 00 00       	call   101394 <_D6kernel3x863idt6idtSetFhkthZv>
  100f79:	b8 0c 01 10 00       	mov    $0x10010c,%eax
  100f7e:	c7 44 24 0c 8e 00 00 	movl   $0x8e,0xc(%esp)
  100f85:	00 
  100f86:	c7 44 24 08 08 00 00 	movl   $0x8,0x8(%esp)
  100f8d:	00 
  100f8e:	89 44 24 04          	mov    %eax,0x4(%esp)
  100f92:	c7 04 24 14 00 00 00 	movl   $0x14,(%esp)
  100f99:	e8 f6 03 00 00       	call   101394 <_D6kernel3x863idt6idtSetFhkthZv>
  100f9e:	b8 16 01 10 00       	mov    $0x100116,%eax
  100fa3:	c7 44 24 0c 8e 00 00 	movl   $0x8e,0xc(%esp)
  100faa:	00 
  100fab:	c7 44 24 08 08 00 00 	movl   $0x8,0x8(%esp)
  100fb2:	00 
  100fb3:	89 44 24 04          	mov    %eax,0x4(%esp)
  100fb7:	c7 04 24 15 00 00 00 	movl   $0x15,(%esp)
  100fbe:	e8 d1 03 00 00       	call   101394 <_D6kernel3x863idt6idtSetFhkthZv>
  100fc3:	b8 20 01 10 00       	mov    $0x100120,%eax
  100fc8:	c7 44 24 0c 8e 00 00 	movl   $0x8e,0xc(%esp)
  100fcf:	00 
  100fd0:	c7 44 24 08 08 00 00 	movl   $0x8,0x8(%esp)
  100fd7:	00 
  100fd8:	89 44 24 04          	mov    %eax,0x4(%esp)
  100fdc:	c7 04 24 16 00 00 00 	movl   $0x16,(%esp)
  100fe3:	e8 ac 03 00 00       	call   101394 <_D6kernel3x863idt6idtSetFhkthZv>
  100fe8:	b8 2a 01 10 00       	mov    $0x10012a,%eax
  100fed:	c7 44 24 0c 8e 00 00 	movl   $0x8e,0xc(%esp)
  100ff4:	00 
  100ff5:	c7 44 24 08 08 00 00 	movl   $0x8,0x8(%esp)
  100ffc:	00 
  100ffd:	89 44 24 04          	mov    %eax,0x4(%esp)
  101001:	c7 04 24 17 00 00 00 	movl   $0x17,(%esp)
  101008:	e8 87 03 00 00       	call   101394 <_D6kernel3x863idt6idtSetFhkthZv>
  10100d:	b8 34 01 10 00       	mov    $0x100134,%eax
  101012:	c7 44 24 0c 8e 00 00 	movl   $0x8e,0xc(%esp)
  101019:	00 
  10101a:	c7 44 24 08 08 00 00 	movl   $0x8,0x8(%esp)
  101021:	00 
  101022:	89 44 24 04          	mov    %eax,0x4(%esp)
  101026:	c7 04 24 18 00 00 00 	movl   $0x18,(%esp)
  10102d:	e8 62 03 00 00       	call   101394 <_D6kernel3x863idt6idtSetFhkthZv>
  101032:	b8 3e 01 10 00       	mov    $0x10013e,%eax
  101037:	c7 44 24 0c 8e 00 00 	movl   $0x8e,0xc(%esp)
  10103e:	00 
  10103f:	c7 44 24 08 08 00 00 	movl   $0x8,0x8(%esp)
  101046:	00 
  101047:	89 44 24 04          	mov    %eax,0x4(%esp)
  10104b:	c7 04 24 19 00 00 00 	movl   $0x19,(%esp)
  101052:	e8 3d 03 00 00       	call   101394 <_D6kernel3x863idt6idtSetFhkthZv>
  101057:	b8 48 01 10 00       	mov    $0x100148,%eax
  10105c:	c7 44 24 0c 8e 00 00 	movl   $0x8e,0xc(%esp)
  101063:	00 
  101064:	c7 44 24 08 08 00 00 	movl   $0x8,0x8(%esp)
  10106b:	00 
  10106c:	89 44 24 04          	mov    %eax,0x4(%esp)
  101070:	c7 04 24 1a 00 00 00 	movl   $0x1a,(%esp)
  101077:	e8 18 03 00 00       	call   101394 <_D6kernel3x863idt6idtSetFhkthZv>
  10107c:	b8 52 01 10 00       	mov    $0x100152,%eax
  101081:	c7 44 24 0c 8e 00 00 	movl   $0x8e,0xc(%esp)
  101088:	00 
  101089:	c7 44 24 08 08 00 00 	movl   $0x8,0x8(%esp)
  101090:	00 
  101091:	89 44 24 04          	mov    %eax,0x4(%esp)
  101095:	c7 04 24 1b 00 00 00 	movl   $0x1b,(%esp)
  10109c:	e8 f3 02 00 00       	call   101394 <_D6kernel3x863idt6idtSetFhkthZv>
  1010a1:	b8 5c 01 10 00       	mov    $0x10015c,%eax
  1010a6:	c7 44 24 0c 8e 00 00 	movl   $0x8e,0xc(%esp)
  1010ad:	00 
  1010ae:	c7 44 24 08 08 00 00 	movl   $0x8,0x8(%esp)
  1010b5:	00 
  1010b6:	89 44 24 04          	mov    %eax,0x4(%esp)
  1010ba:	c7 04 24 1c 00 00 00 	movl   $0x1c,(%esp)
  1010c1:	e8 ce 02 00 00       	call   101394 <_D6kernel3x863idt6idtSetFhkthZv>
  1010c6:	b8 66 01 10 00       	mov    $0x100166,%eax
  1010cb:	c7 44 24 0c 8e 00 00 	movl   $0x8e,0xc(%esp)
  1010d2:	00 
  1010d3:	c7 44 24 08 08 00 00 	movl   $0x8,0x8(%esp)
  1010da:	00 
  1010db:	89 44 24 04          	mov    %eax,0x4(%esp)
  1010df:	c7 04 24 1d 00 00 00 	movl   $0x1d,(%esp)
  1010e6:	e8 a9 02 00 00       	call   101394 <_D6kernel3x863idt6idtSetFhkthZv>
  1010eb:	b8 70 01 10 00       	mov    $0x100170,%eax
  1010f0:	c7 44 24 0c 8e 00 00 	movl   $0x8e,0xc(%esp)
  1010f7:	00 
  1010f8:	c7 44 24 08 08 00 00 	movl   $0x8,0x8(%esp)
  1010ff:	00 
  101100:	89 44 24 04          	mov    %eax,0x4(%esp)
  101104:	c7 04 24 1e 00 00 00 	movl   $0x1e,(%esp)
  10110b:	e8 84 02 00 00       	call   101394 <_D6kernel3x863idt6idtSetFhkthZv>
  101110:	b8 7a 01 10 00       	mov    $0x10017a,%eax
  101115:	c7 44 24 0c 8e 00 00 	movl   $0x8e,0xc(%esp)
  10111c:	00 
  10111d:	c7 44 24 08 08 00 00 	movl   $0x8,0x8(%esp)
  101124:	00 
  101125:	89 44 24 04          	mov    %eax,0x4(%esp)
  101129:	c7 04 24 1f 00 00 00 	movl   $0x1f,(%esp)
  101130:	e8 5f 02 00 00       	call   101394 <_D6kernel3x863idt6idtSetFhkthZv>
  101135:	b8 84 01 10 00       	mov    $0x100184,%eax
  10113a:	c7 44 24 0c 8e 00 00 	movl   $0x8e,0xc(%esp)
  101141:	00 
  101142:	c7 44 24 08 08 00 00 	movl   $0x8,0x8(%esp)
  101149:	00 
  10114a:	89 44 24 04          	mov    %eax,0x4(%esp)
  10114e:	c7 04 24 20 00 00 00 	movl   $0x20,(%esp)
  101155:	e8 3a 02 00 00       	call   101394 <_D6kernel3x863idt6idtSetFhkthZv>
  10115a:	b8 8e 01 10 00       	mov    $0x10018e,%eax
  10115f:	c7 44 24 0c 8e 00 00 	movl   $0x8e,0xc(%esp)
  101166:	00 
  101167:	c7 44 24 08 08 00 00 	movl   $0x8,0x8(%esp)
  10116e:	00 
  10116f:	89 44 24 04          	mov    %eax,0x4(%esp)
  101173:	c7 04 24 21 00 00 00 	movl   $0x21,(%esp)
  10117a:	e8 15 02 00 00       	call   101394 <_D6kernel3x863idt6idtSetFhkthZv>
  10117f:	b8 98 01 10 00       	mov    $0x100198,%eax
  101184:	c7 44 24 0c 8e 00 00 	movl   $0x8e,0xc(%esp)
  10118b:	00 
  10118c:	c7 44 24 08 08 00 00 	movl   $0x8,0x8(%esp)
  101193:	00 
  101194:	89 44 24 04          	mov    %eax,0x4(%esp)
  101198:	c7 04 24 22 00 00 00 	movl   $0x22,(%esp)
  10119f:	e8 f0 01 00 00       	call   101394 <_D6kernel3x863idt6idtSetFhkthZv>
  1011a4:	b8 a2 01 10 00       	mov    $0x1001a2,%eax
  1011a9:	c7 44 24 0c 8e 00 00 	movl   $0x8e,0xc(%esp)
  1011b0:	00 
  1011b1:	c7 44 24 08 08 00 00 	movl   $0x8,0x8(%esp)
  1011b8:	00 
  1011b9:	89 44 24 04          	mov    %eax,0x4(%esp)
  1011bd:	c7 04 24 23 00 00 00 	movl   $0x23,(%esp)
  1011c4:	e8 cb 01 00 00       	call   101394 <_D6kernel3x863idt6idtSetFhkthZv>
  1011c9:	b8 ac 01 10 00       	mov    $0x1001ac,%eax
  1011ce:	c7 44 24 0c 8e 00 00 	movl   $0x8e,0xc(%esp)
  1011d5:	00 
  1011d6:	c7 44 24 08 08 00 00 	movl   $0x8,0x8(%esp)
  1011dd:	00 
  1011de:	89 44 24 04          	mov    %eax,0x4(%esp)
  1011e2:	c7 04 24 24 00 00 00 	movl   $0x24,(%esp)
  1011e9:	e8 a6 01 00 00       	call   101394 <_D6kernel3x863idt6idtSetFhkthZv>
  1011ee:	b8 b6 01 10 00       	mov    $0x1001b6,%eax
  1011f3:	c7 44 24 0c 8e 00 00 	movl   $0x8e,0xc(%esp)
  1011fa:	00 
  1011fb:	c7 44 24 08 08 00 00 	movl   $0x8,0x8(%esp)
  101202:	00 
  101203:	89 44 24 04          	mov    %eax,0x4(%esp)
  101207:	c7 04 24 25 00 00 00 	movl   $0x25,(%esp)
  10120e:	e8 81 01 00 00       	call   101394 <_D6kernel3x863idt6idtSetFhkthZv>
  101213:	b8 c0 01 10 00       	mov    $0x1001c0,%eax
  101218:	c7 44 24 0c 8e 00 00 	movl   $0x8e,0xc(%esp)
  10121f:	00 
  101220:	c7 44 24 08 08 00 00 	movl   $0x8,0x8(%esp)
  101227:	00 
  101228:	89 44 24 04          	mov    %eax,0x4(%esp)
  10122c:	c7 04 24 26 00 00 00 	movl   $0x26,(%esp)
  101233:	e8 5c 01 00 00       	call   101394 <_D6kernel3x863idt6idtSetFhkthZv>
  101238:	b8 ca 01 10 00       	mov    $0x1001ca,%eax
  10123d:	c7 44 24 0c 8e 00 00 	movl   $0x8e,0xc(%esp)
  101244:	00 
  101245:	c7 44 24 08 08 00 00 	movl   $0x8,0x8(%esp)
  10124c:	00 
  10124d:	89 44 24 04          	mov    %eax,0x4(%esp)
  101251:	c7 04 24 27 00 00 00 	movl   $0x27,(%esp)
  101258:	e8 37 01 00 00       	call   101394 <_D6kernel3x863idt6idtSetFhkthZv>
  10125d:	b8 d4 01 10 00       	mov    $0x1001d4,%eax
  101262:	c7 44 24 0c 8e 00 00 	movl   $0x8e,0xc(%esp)
  101269:	00 
  10126a:	c7 44 24 08 08 00 00 	movl   $0x8,0x8(%esp)
  101271:	00 
  101272:	89 44 24 04          	mov    %eax,0x4(%esp)
  101276:	c7 04 24 28 00 00 00 	movl   $0x28,(%esp)
  10127d:	e8 12 01 00 00       	call   101394 <_D6kernel3x863idt6idtSetFhkthZv>
  101282:	b8 de 01 10 00       	mov    $0x1001de,%eax
  101287:	c7 44 24 0c 8e 00 00 	movl   $0x8e,0xc(%esp)
  10128e:	00 
  10128f:	c7 44 24 08 08 00 00 	movl   $0x8,0x8(%esp)
  101296:	00 
  101297:	89 44 24 04          	mov    %eax,0x4(%esp)
  10129b:	c7 04 24 29 00 00 00 	movl   $0x29,(%esp)
  1012a2:	e8 ed 00 00 00       	call   101394 <_D6kernel3x863idt6idtSetFhkthZv>
  1012a7:	b8 e8 01 10 00       	mov    $0x1001e8,%eax
  1012ac:	c7 44 24 0c 8e 00 00 	movl   $0x8e,0xc(%esp)
  1012b3:	00 
  1012b4:	c7 44 24 08 08 00 00 	movl   $0x8,0x8(%esp)
  1012bb:	00 
  1012bc:	89 44 24 04          	mov    %eax,0x4(%esp)
  1012c0:	c7 04 24 2a 00 00 00 	movl   $0x2a,(%esp)
  1012c7:	e8 c8 00 00 00       	call   101394 <_D6kernel3x863idt6idtSetFhkthZv>
  1012cc:	b8 f2 01 10 00       	mov    $0x1001f2,%eax
  1012d1:	c7 44 24 0c 8e 00 00 	movl   $0x8e,0xc(%esp)
  1012d8:	00 
  1012d9:	c7 44 24 08 08 00 00 	movl   $0x8,0x8(%esp)
  1012e0:	00 
  1012e1:	89 44 24 04          	mov    %eax,0x4(%esp)
  1012e5:	c7 04 24 2b 00 00 00 	movl   $0x2b,(%esp)
  1012ec:	e8 a3 00 00 00       	call   101394 <_D6kernel3x863idt6idtSetFhkthZv>
  1012f1:	b8 fc 01 10 00       	mov    $0x1001fc,%eax
  1012f6:	c7 44 24 0c 8e 00 00 	movl   $0x8e,0xc(%esp)
  1012fd:	00 
  1012fe:	c7 44 24 08 08 00 00 	movl   $0x8,0x8(%esp)
  101305:	00 
  101306:	89 44 24 04          	mov    %eax,0x4(%esp)
  10130a:	c7 04 24 2c 00 00 00 	movl   $0x2c,(%esp)
  101311:	e8 7e 00 00 00       	call   101394 <_D6kernel3x863idt6idtSetFhkthZv>
  101316:	b8 06 02 10 00       	mov    $0x100206,%eax
  10131b:	c7 44 24 0c 8e 00 00 	movl   $0x8e,0xc(%esp)
  101322:	00 
  101323:	c7 44 24 08 08 00 00 	movl   $0x8,0x8(%esp)
  10132a:	00 
  10132b:	89 44 24 04          	mov    %eax,0x4(%esp)
  10132f:	c7 04 24 2d 00 00 00 	movl   $0x2d,(%esp)
  101336:	e8 59 00 00 00       	call   101394 <_D6kernel3x863idt6idtSetFhkthZv>
  10133b:	b8 10 02 10 00       	mov    $0x100210,%eax
  101340:	c7 44 24 0c 8e 00 00 	movl   $0x8e,0xc(%esp)
  101347:	00 
  101348:	c7 44 24 08 08 00 00 	movl   $0x8,0x8(%esp)
  10134f:	00 
  101350:	89 44 24 04          	mov    %eax,0x4(%esp)
  101354:	c7 04 24 2e 00 00 00 	movl   $0x2e,(%esp)
  10135b:	e8 34 00 00 00       	call   101394 <_D6kernel3x863idt6idtSetFhkthZv>
  101360:	b8 1a 02 10 00       	mov    $0x10021a,%eax
  101365:	c7 44 24 0c 8e 00 00 	movl   $0x8e,0xc(%esp)
  10136c:	00 
  10136d:	c7 44 24 08 08 00 00 	movl   $0x8,0x8(%esp)
  101374:	00 
  101375:	89 44 24 04          	mov    %eax,0x4(%esp)
  101379:	c7 04 24 2f 00 00 00 	movl   $0x2f,(%esp)
  101380:	e8 0f 00 00 00       	call   101394 <_D6kernel3x863idt6idtSetFhkthZv>
  101385:	b8 00 13 11 00       	mov    $0x111300,%eax
  10138a:	89 04 24             	mov    %eax,(%esp)
  10138d:	e8 ae ec ff ff       	call   100040 <flushIdt>
  101392:	c9                   	leave  
  101393:	c3                   	ret    

00101394 <_D6kernel3x863idt6idtSetFhkthZv>:
  101394:	55                   	push   %ebp
  101395:	89 e5                	mov    %esp,%ebp
  101397:	83 ec 68             	sub    $0x68,%esp
  10139a:	0f b6 45 08          	movzbl 0x8(%ebp),%eax
  10139e:	3d 00 01 00 00       	cmp    $0x100,%eax
  1013a3:	73 0c                	jae    1013b1 <_D6kernel3x863idt6idtSetFhkthZv+0x1d>
  1013a5:	0f b6 45 08          	movzbl 0x8(%ebp),%eax
  1013a9:	c1 e0 03             	shl    $0x3,%eax
  1013ac:	89 45 b4             	mov    %eax,-0x4c(%ebp)
  1013af:	eb 28                	jmp    1013d9 <_D6kernel3x863idt6idtSetFhkthZv+0x45>
  1013b1:	c7 45 b8 10 00 00 00 	movl   $0x10,-0x48(%ebp)
  1013b8:	c7 45 bc 5b 64 10 00 	movl   $0x10645b,-0x44(%ebp)
  1013bf:	c7 44 24 08 90 00 00 	movl   $0x90,0x8(%esp)
  1013c6:	00 
  1013c7:	8b 45 b8             	mov    -0x48(%ebp),%eax
  1013ca:	8b 55 bc             	mov    -0x44(%ebp),%edx
  1013cd:	89 04 24             	mov    %eax,(%esp)
  1013d0:	89 54 24 04          	mov    %edx,0x4(%esp)
  1013d4:	e8 c9 1b 00 00       	call   102fa2 <_d_array_bounds>
  1013d9:	8b 55 b4             	mov    -0x4c(%ebp),%edx
  1013dc:	81 c2 00 0b 11 00    	add    $0x110b00,%edx
  1013e2:	8b 45 0c             	mov    0xc(%ebp),%eax
  1013e5:	66 89 02             	mov    %ax,(%edx)
  1013e8:	0f b6 45 08          	movzbl 0x8(%ebp),%eax
  1013ec:	3d 00 01 00 00       	cmp    $0x100,%eax
  1013f1:	73 0c                	jae    1013ff <_D6kernel3x863idt6idtSetFhkthZv+0x6b>
  1013f3:	0f b6 45 08          	movzbl 0x8(%ebp),%eax
  1013f7:	c1 e0 03             	shl    $0x3,%eax
  1013fa:	89 45 c4             	mov    %eax,-0x3c(%ebp)
  1013fd:	eb 28                	jmp    101427 <_D6kernel3x863idt6idtSetFhkthZv+0x93>
  1013ff:	c7 45 c8 10 00 00 00 	movl   $0x10,-0x38(%ebp)
  101406:	c7 45 cc 5b 64 10 00 	movl   $0x10645b,-0x34(%ebp)
  10140d:	c7 44 24 08 91 00 00 	movl   $0x91,0x8(%esp)
  101414:	00 
  101415:	8b 45 c8             	mov    -0x38(%ebp),%eax
  101418:	8b 55 cc             	mov    -0x34(%ebp),%edx
  10141b:	89 04 24             	mov    %eax,(%esp)
  10141e:	89 54 24 04          	mov    %edx,0x4(%esp)
  101422:	e8 7b 1b 00 00       	call   102fa2 <_d_array_bounds>
  101427:	8b 55 c4             	mov    -0x3c(%ebp),%edx
  10142a:	81 c2 00 0b 11 00    	add    $0x110b00,%edx
  101430:	8b 45 0c             	mov    0xc(%ebp),%eax
  101433:	c1 e8 10             	shr    $0x10,%eax
  101436:	66 89 42 06          	mov    %ax,0x6(%edx)
  10143a:	0f b6 45 08          	movzbl 0x8(%ebp),%eax
  10143e:	3d 00 01 00 00       	cmp    $0x100,%eax
  101443:	73 0c                	jae    101451 <_D6kernel3x863idt6idtSetFhkthZv+0xbd>
  101445:	0f b6 45 08          	movzbl 0x8(%ebp),%eax
  101449:	c1 e0 03             	shl    $0x3,%eax
  10144c:	89 45 d4             	mov    %eax,-0x2c(%ebp)
  10144f:	eb 28                	jmp    101479 <_D6kernel3x863idt6idtSetFhkthZv+0xe5>
  101451:	c7 45 d8 10 00 00 00 	movl   $0x10,-0x28(%ebp)
  101458:	c7 45 dc 5b 64 10 00 	movl   $0x10645b,-0x24(%ebp)
  10145f:	c7 44 24 08 93 00 00 	movl   $0x93,0x8(%esp)
  101466:	00 
  101467:	8b 45 d8             	mov    -0x28(%ebp),%eax
  10146a:	8b 55 dc             	mov    -0x24(%ebp),%edx
  10146d:	89 04 24             	mov    %eax,(%esp)
  101470:	89 54 24 04          	mov    %edx,0x4(%esp)
  101474:	e8 29 1b 00 00       	call   102fa2 <_d_array_bounds>
  101479:	8b 45 d4             	mov    -0x2c(%ebp),%eax
  10147c:	05 00 0b 11 00       	add    $0x110b00,%eax
  101481:	0f b7 55 10          	movzwl 0x10(%ebp),%edx
  101485:	66 89 50 02          	mov    %dx,0x2(%eax)
  101489:	0f b6 45 08          	movzbl 0x8(%ebp),%eax
  10148d:	3d 00 01 00 00       	cmp    $0x100,%eax
  101492:	73 0c                	jae    1014a0 <_D6kernel3x863idt6idtSetFhkthZv+0x10c>
  101494:	0f b6 45 08          	movzbl 0x8(%ebp),%eax
  101498:	c1 e0 03             	shl    $0x3,%eax
  10149b:	89 45 e4             	mov    %eax,-0x1c(%ebp)
  10149e:	eb 28                	jmp    1014c8 <_D6kernel3x863idt6idtSetFhkthZv+0x134>
  1014a0:	c7 45 e8 10 00 00 00 	movl   $0x10,-0x18(%ebp)
  1014a7:	c7 45 ec 5b 64 10 00 	movl   $0x10645b,-0x14(%ebp)
  1014ae:	c7 44 24 08 94 00 00 	movl   $0x94,0x8(%esp)
  1014b5:	00 
  1014b6:	8b 45 e8             	mov    -0x18(%ebp),%eax
  1014b9:	8b 55 ec             	mov    -0x14(%ebp),%edx
  1014bc:	89 04 24             	mov    %eax,(%esp)
  1014bf:	89 54 24 04          	mov    %edx,0x4(%esp)
  1014c3:	e8 da 1a 00 00       	call   102fa2 <_d_array_bounds>
  1014c8:	8b 45 e4             	mov    -0x1c(%ebp),%eax
  1014cb:	05 00 0b 11 00       	add    $0x110b00,%eax
  1014d0:	c6 40 04 00          	movb   $0x0,0x4(%eax)
  1014d4:	0f b6 45 08          	movzbl 0x8(%ebp),%eax
  1014d8:	3d 00 01 00 00       	cmp    $0x100,%eax
  1014dd:	73 0c                	jae    1014eb <_D6kernel3x863idt6idtSetFhkthZv+0x157>
  1014df:	0f b6 45 08          	movzbl 0x8(%ebp),%eax
  1014e3:	c1 e0 03             	shl    $0x3,%eax
  1014e6:	89 45 f4             	mov    %eax,-0xc(%ebp)
  1014e9:	eb 28                	jmp    101513 <_D6kernel3x863idt6idtSetFhkthZv+0x17f>
  1014eb:	c7 45 f8 10 00 00 00 	movl   $0x10,-0x8(%ebp)
  1014f2:	c7 45 fc 5b 64 10 00 	movl   $0x10645b,-0x4(%ebp)
  1014f9:	c7 44 24 08 96 00 00 	movl   $0x96,0x8(%esp)
  101500:	00 
  101501:	8b 45 f8             	mov    -0x8(%ebp),%eax
  101504:	8b 55 fc             	mov    -0x4(%ebp),%edx
  101507:	89 04 24             	mov    %eax,(%esp)
  10150a:	89 54 24 04          	mov    %edx,0x4(%esp)
  10150e:	e8 8f 1a 00 00       	call   102fa2 <_d_array_bounds>
  101513:	8b 55 f4             	mov    -0xc(%ebp),%edx
  101516:	81 c2 00 0b 11 00    	add    $0x110b00,%edx
  10151c:	0f b6 45 14          	movzbl 0x14(%ebp),%eax
  101520:	88 42 05             	mov    %al,0x5(%edx)
  101523:	c9                   	leave  
  101524:	c3                   	ret    
  101525:	00 00                	add    %al,(%eax)
	...

00101528 <_D6kernel3x863gdt7initGdtFZv>:
  101528:	55                   	push   %ebp
  101529:	89 e5                	mov    %esp,%ebp
  10152b:	83 ec 18             	sub    $0x18,%esp
  10152e:	66 c7 05 68 13 11 00 	movw   $0x27,0x111368
  101535:	27 00 
  101537:	b8 40 13 11 00       	mov    $0x111340,%eax
  10153c:	a3 6a 13 11 00       	mov    %eax,0x11136a
  101541:	c7 44 24 10 00 00 00 	movl   $0x0,0x10(%esp)
  101548:	00 
  101549:	c7 44 24 0c 00 00 00 	movl   $0x0,0xc(%esp)
  101550:	00 
  101551:	c7 44 24 08 00 00 00 	movl   $0x0,0x8(%esp)
  101558:	00 
  101559:	c7 44 24 04 00 00 00 	movl   $0x0,0x4(%esp)
  101560:	00 
  101561:	c7 04 24 00 00 00 00 	movl   $0x0,(%esp)
  101568:	e8 bf 00 00 00       	call   10162c <_D6kernel3x863gdt6gdtSetFikkhhZv>
  10156d:	c7 44 24 10 cf 00 00 	movl   $0xcf,0x10(%esp)
  101574:	00 
  101575:	c7 44 24 0c 9a 00 00 	movl   $0x9a,0xc(%esp)
  10157c:	00 
  10157d:	c7 44 24 08 ff ff ff 	movl   $0xffffffff,0x8(%esp)
  101584:	ff 
  101585:	c7 44 24 04 00 00 00 	movl   $0x0,0x4(%esp)
  10158c:	00 
  10158d:	c7 04 24 01 00 00 00 	movl   $0x1,(%esp)
  101594:	e8 93 00 00 00       	call   10162c <_D6kernel3x863gdt6gdtSetFikkhhZv>
  101599:	c7 44 24 10 cf 00 00 	movl   $0xcf,0x10(%esp)
  1015a0:	00 
  1015a1:	c7 44 24 0c 92 00 00 	movl   $0x92,0xc(%esp)
  1015a8:	00 
  1015a9:	c7 44 24 08 ff ff ff 	movl   $0xffffffff,0x8(%esp)
  1015b0:	ff 
  1015b1:	c7 44 24 04 00 00 00 	movl   $0x0,0x4(%esp)
  1015b8:	00 
  1015b9:	c7 04 24 02 00 00 00 	movl   $0x2,(%esp)
  1015c0:	e8 67 00 00 00       	call   10162c <_D6kernel3x863gdt6gdtSetFikkhhZv>
  1015c5:	c7 44 24 10 cf 00 00 	movl   $0xcf,0x10(%esp)
  1015cc:	00 
  1015cd:	c7 44 24 0c fa 00 00 	movl   $0xfa,0xc(%esp)
  1015d4:	00 
  1015d5:	c7 44 24 08 ff ff ff 	movl   $0xffffffff,0x8(%esp)
  1015dc:	ff 
  1015dd:	c7 44 24 04 00 00 00 	movl   $0x0,0x4(%esp)
  1015e4:	00 
  1015e5:	c7 04 24 03 00 00 00 	movl   $0x3,(%esp)
  1015ec:	e8 3b 00 00 00       	call   10162c <_D6kernel3x863gdt6gdtSetFikkhhZv>
  1015f1:	c7 44 24 10 cf 00 00 	movl   $0xcf,0x10(%esp)
  1015f8:	00 
  1015f9:	c7 44 24 0c f2 00 00 	movl   $0xf2,0xc(%esp)
  101600:	00 
  101601:	c7 44 24 08 ff ff ff 	movl   $0xffffffff,0x8(%esp)
  101608:	ff 
  101609:	c7 44 24 04 00 00 00 	movl   $0x0,0x4(%esp)
  101610:	00 
  101611:	c7 04 24 04 00 00 00 	movl   $0x4,(%esp)
  101618:	e8 0f 00 00 00       	call   10162c <_D6kernel3x863gdt6gdtSetFikkhhZv>
  10161d:	b8 68 13 11 00       	mov    $0x111368,%eax
  101622:	89 04 24             	mov    %eax,(%esp)
  101625:	e8 56 ec ff ff       	call   100280 <flushGdt>
  10162a:	c9                   	leave  
  10162b:	c3                   	ret    

0010162c <_D6kernel3x863gdt6gdtSetFikkhhZv>:
  10162c:	55                   	push   %ebp
  10162d:	89 e5                	mov    %esp,%ebp
  10162f:	81 ec 88 00 00 00    	sub    $0x88,%esp
  101635:	8b 45 08             	mov    0x8(%ebp),%eax
  101638:	83 f8 05             	cmp    $0x5,%eax
  10163b:	73 0b                	jae    101648 <_D6kernel3x863gdt6gdtSetFikkhhZv+0x1c>
  10163d:	8b 45 08             	mov    0x8(%ebp),%eax
  101640:	c1 e0 03             	shl    $0x3,%eax
  101643:	89 45 94             	mov    %eax,-0x6c(%ebp)
  101646:	eb 28                	jmp    101670 <_D6kernel3x863gdt6gdtSetFikkhhZv+0x44>
  101648:	c7 45 98 10 00 00 00 	movl   $0x10,-0x68(%ebp)
  10164f:	c7 45 9c 6c 64 10 00 	movl   $0x10646c,-0x64(%ebp)
  101656:	c7 44 24 08 24 00 00 	movl   $0x24,0x8(%esp)
  10165d:	00 
  10165e:	8b 45 98             	mov    -0x68(%ebp),%eax
  101661:	8b 55 9c             	mov    -0x64(%ebp),%edx
  101664:	89 04 24             	mov    %eax,(%esp)
  101667:	89 54 24 04          	mov    %edx,0x4(%esp)
  10166b:	e8 32 19 00 00       	call   102fa2 <_d_array_bounds>
  101670:	8b 55 94             	mov    -0x6c(%ebp),%edx
  101673:	81 c2 40 13 11 00    	add    $0x111340,%edx
  101679:	8b 45 0c             	mov    0xc(%ebp),%eax
  10167c:	66 89 42 02          	mov    %ax,0x2(%edx)
  101680:	8b 45 08             	mov    0x8(%ebp),%eax
  101683:	83 f8 05             	cmp    $0x5,%eax
  101686:	73 0b                	jae    101693 <_D6kernel3x863gdt6gdtSetFikkhhZv+0x67>
  101688:	8b 45 08             	mov    0x8(%ebp),%eax
  10168b:	c1 e0 03             	shl    $0x3,%eax
  10168e:	89 45 a4             	mov    %eax,-0x5c(%ebp)
  101691:	eb 28                	jmp    1016bb <_D6kernel3x863gdt6gdtSetFikkhhZv+0x8f>
  101693:	c7 45 a8 10 00 00 00 	movl   $0x10,-0x58(%ebp)
  10169a:	c7 45 ac 6c 64 10 00 	movl   $0x10646c,-0x54(%ebp)
  1016a1:	c7 44 24 08 25 00 00 	movl   $0x25,0x8(%esp)
  1016a8:	00 
  1016a9:	8b 45 a8             	mov    -0x58(%ebp),%eax
  1016ac:	8b 55 ac             	mov    -0x54(%ebp),%edx
  1016af:	89 04 24             	mov    %eax,(%esp)
  1016b2:	89 54 24 04          	mov    %edx,0x4(%esp)
  1016b6:	e8 e7 18 00 00       	call   102fa2 <_d_array_bounds>
  1016bb:	8b 55 a4             	mov    -0x5c(%ebp),%edx
  1016be:	81 c2 40 13 11 00    	add    $0x111340,%edx
  1016c4:	8b 45 0c             	mov    0xc(%ebp),%eax
  1016c7:	c1 e8 10             	shr    $0x10,%eax
  1016ca:	88 42 04             	mov    %al,0x4(%edx)
  1016cd:	8b 45 08             	mov    0x8(%ebp),%eax
  1016d0:	83 f8 05             	cmp    $0x5,%eax
  1016d3:	73 0b                	jae    1016e0 <_D6kernel3x863gdt6gdtSetFikkhhZv+0xb4>
  1016d5:	8b 45 08             	mov    0x8(%ebp),%eax
  1016d8:	c1 e0 03             	shl    $0x3,%eax
  1016db:	89 45 b4             	mov    %eax,-0x4c(%ebp)
  1016de:	eb 28                	jmp    101708 <_D6kernel3x863gdt6gdtSetFikkhhZv+0xdc>
  1016e0:	c7 45 b8 10 00 00 00 	movl   $0x10,-0x48(%ebp)
  1016e7:	c7 45 bc 6c 64 10 00 	movl   $0x10646c,-0x44(%ebp)
  1016ee:	c7 44 24 08 26 00 00 	movl   $0x26,0x8(%esp)
  1016f5:	00 
  1016f6:	8b 45 b8             	mov    -0x48(%ebp),%eax
  1016f9:	8b 55 bc             	mov    -0x44(%ebp),%edx
  1016fc:	89 04 24             	mov    %eax,(%esp)
  1016ff:	89 54 24 04          	mov    %edx,0x4(%esp)
  101703:	e8 9a 18 00 00       	call   102fa2 <_d_array_bounds>
  101708:	8b 55 b4             	mov    -0x4c(%ebp),%edx
  10170b:	81 c2 40 13 11 00    	add    $0x111340,%edx
  101711:	8b 45 0c             	mov    0xc(%ebp),%eax
  101714:	c1 e8 18             	shr    $0x18,%eax
  101717:	88 42 07             	mov    %al,0x7(%edx)
  10171a:	8b 45 08             	mov    0x8(%ebp),%eax
  10171d:	83 f8 05             	cmp    $0x5,%eax
  101720:	73 0b                	jae    10172d <_D6kernel3x863gdt6gdtSetFikkhhZv+0x101>
  101722:	8b 45 08             	mov    0x8(%ebp),%eax
  101725:	c1 e0 03             	shl    $0x3,%eax
  101728:	89 45 c4             	mov    %eax,-0x3c(%ebp)
  10172b:	eb 28                	jmp    101755 <_D6kernel3x863gdt6gdtSetFikkhhZv+0x129>
  10172d:	c7 45 c8 10 00 00 00 	movl   $0x10,-0x38(%ebp)
  101734:	c7 45 cc 6c 64 10 00 	movl   $0x10646c,-0x34(%ebp)
  10173b:	c7 44 24 08 28 00 00 	movl   $0x28,0x8(%esp)
  101742:	00 
  101743:	8b 45 c8             	mov    -0x38(%ebp),%eax
  101746:	8b 55 cc             	mov    -0x34(%ebp),%edx
  101749:	89 04 24             	mov    %eax,(%esp)
  10174c:	89 54 24 04          	mov    %edx,0x4(%esp)
  101750:	e8 4d 18 00 00       	call   102fa2 <_d_array_bounds>
  101755:	8b 55 c4             	mov    -0x3c(%ebp),%edx
  101758:	81 c2 40 13 11 00    	add    $0x111340,%edx
  10175e:	8b 45 10             	mov    0x10(%ebp),%eax
  101761:	66 89 02             	mov    %ax,(%edx)
  101764:	8b 45 08             	mov    0x8(%ebp),%eax
  101767:	83 f8 05             	cmp    $0x5,%eax
  10176a:	73 0b                	jae    101777 <_D6kernel3x863gdt6gdtSetFikkhhZv+0x14b>
  10176c:	8b 45 08             	mov    0x8(%ebp),%eax
  10176f:	c1 e0 03             	shl    $0x3,%eax
  101772:	89 45 d4             	mov    %eax,-0x2c(%ebp)
  101775:	eb 28                	jmp    10179f <_D6kernel3x863gdt6gdtSetFikkhhZv+0x173>
  101777:	c7 45 d8 10 00 00 00 	movl   $0x10,-0x28(%ebp)
  10177e:	c7 45 dc 6c 64 10 00 	movl   $0x10646c,-0x24(%ebp)
  101785:	c7 44 24 08 29 00 00 	movl   $0x29,0x8(%esp)
  10178c:	00 
  10178d:	8b 45 d8             	mov    -0x28(%ebp),%eax
  101790:	8b 55 dc             	mov    -0x24(%ebp),%edx
  101793:	89 04 24             	mov    %eax,(%esp)
  101796:	89 54 24 04          	mov    %edx,0x4(%esp)
  10179a:	e8 03 18 00 00       	call   102fa2 <_d_array_bounds>
  10179f:	8b 55 d4             	mov    -0x2c(%ebp),%edx
  1017a2:	81 c2 40 13 11 00    	add    $0x111340,%edx
  1017a8:	8b 45 10             	mov    0x10(%ebp),%eax
  1017ab:	c1 e8 10             	shr    $0x10,%eax
  1017ae:	83 e0 0f             	and    $0xf,%eax
  1017b1:	88 42 06             	mov    %al,0x6(%edx)
  1017b4:	8b 45 08             	mov    0x8(%ebp),%eax
  1017b7:	83 f8 05             	cmp    $0x5,%eax
  1017ba:	73 0b                	jae    1017c7 <_D6kernel3x863gdt6gdtSetFikkhhZv+0x19b>
  1017bc:	8b 45 08             	mov    0x8(%ebp),%eax
  1017bf:	c1 e0 03             	shl    $0x3,%eax
  1017c2:	89 45 e4             	mov    %eax,-0x1c(%ebp)
  1017c5:	eb 28                	jmp    1017ef <_D6kernel3x863gdt6gdtSetFikkhhZv+0x1c3>
  1017c7:	c7 45 e8 10 00 00 00 	movl   $0x10,-0x18(%ebp)
  1017ce:	c7 45 ec 6c 64 10 00 	movl   $0x10646c,-0x14(%ebp)
  1017d5:	c7 44 24 08 2b 00 00 	movl   $0x2b,0x8(%esp)
  1017dc:	00 
  1017dd:	8b 45 e8             	mov    -0x18(%ebp),%eax
  1017e0:	8b 55 ec             	mov    -0x14(%ebp),%edx
  1017e3:	89 04 24             	mov    %eax,(%esp)
  1017e6:	89 54 24 04          	mov    %edx,0x4(%esp)
  1017ea:	e8 b3 17 00 00       	call   102fa2 <_d_array_bounds>
  1017ef:	8b 45 e4             	mov    -0x1c(%ebp),%eax
  1017f2:	8d 88 40 13 11 00    	lea    0x111340(%eax),%ecx
  1017f8:	05 40 13 11 00       	add    $0x111340,%eax
  1017fd:	0f b6 40 06          	movzbl 0x6(%eax),%eax
  101801:	89 c2                	mov    %eax,%edx
  101803:	0f b6 45 18          	movzbl 0x18(%ebp),%eax
  101807:	83 e0 f0             	and    $0xfffffff0,%eax
  10180a:	09 d0                	or     %edx,%eax
  10180c:	88 41 06             	mov    %al,0x6(%ecx)
  10180f:	8b 45 08             	mov    0x8(%ebp),%eax
  101812:	83 f8 05             	cmp    $0x5,%eax
  101815:	73 0b                	jae    101822 <_D6kernel3x863gdt6gdtSetFikkhhZv+0x1f6>
  101817:	8b 45 08             	mov    0x8(%ebp),%eax
  10181a:	c1 e0 03             	shl    $0x3,%eax
  10181d:	89 45 f4             	mov    %eax,-0xc(%ebp)
  101820:	eb 28                	jmp    10184a <_D6kernel3x863gdt6gdtSetFikkhhZv+0x21e>
  101822:	c7 45 f8 10 00 00 00 	movl   $0x10,-0x8(%ebp)
  101829:	c7 45 fc 6c 64 10 00 	movl   $0x10646c,-0x4(%ebp)
  101830:	c7 44 24 08 2c 00 00 	movl   $0x2c,0x8(%esp)
  101837:	00 
  101838:	8b 45 f8             	mov    -0x8(%ebp),%eax
  10183b:	8b 55 fc             	mov    -0x4(%ebp),%edx
  10183e:	89 04 24             	mov    %eax,(%esp)
  101841:	89 54 24 04          	mov    %edx,0x4(%esp)
  101845:	e8 58 17 00 00       	call   102fa2 <_d_array_bounds>
  10184a:	8b 55 f4             	mov    -0xc(%ebp),%edx
  10184d:	81 c2 40 13 11 00    	add    $0x111340,%edx
  101853:	0f b6 45 14          	movzbl 0x14(%ebp),%eax
  101857:	88 42 05             	mov    %al,0x5(%edx)
  10185a:	c9                   	leave  
  10185b:	c3                   	ret    

0010185c <main>:
  10185c:	8d 4c 24 04          	lea    0x4(%esp),%ecx
  101860:	83 e4 f0             	and    $0xfffffff0,%esp
  101863:	ff 71 fc             	pushl  -0x4(%ecx)
  101866:	55                   	push   %ebp
  101867:	89 e5                	mov    %esp,%ebp
  101869:	51                   	push   %ecx
  10186a:	83 ec 04             	sub    $0x4,%esp
  10186d:	8b 41 04             	mov    0x4(%ecx),%eax
  101870:	a3 70 13 11 00       	mov    %eax,0x111370
  101875:	e8 ae fc ff ff       	call   101528 <_D6kernel3x863gdt7initGdtFZv>
  10187a:	e8 19 f3 ff ff       	call   100b98 <_D6kernel3x863idt7initIdtFZv>
  10187f:	e8 c8 f0 ff ff       	call   10094c <_D6kernel3x866paging10initPagingFZv>
  101884:	e8 f3 01 00 00       	call   101a7c <_D5video4text4text7ttyInitFZv>
  101889:	fb                   	sti    
  10188a:	c7 04 24 32 00 00 00 	movl   $0x32,(%esp)
  101891:	e8 b2 ef ff ff       	call   100848 <_D6kernel3pit9initTimerFkZv>
  101896:	e8 8e eb ff ff       	call   100429 <_D6kernel3x868keyboard12initKeyboardFZv>
  10189b:	fb                   	sti    
  10189c:	c7 04 24 7d 64 10 00 	movl   $0x10647d,(%esp)
  1018a3:	e8 35 02 00 00       	call   101add <_D5video4text4text4putsFPaZv>
  1018a8:	c7 04 24 99 64 10 00 	movl   $0x106499,(%esp)
  1018af:	e8 29 02 00 00       	call   101add <_D5video4text4text4putsFPaZv>
  1018b4:	83 c4 04             	add    $0x4,%esp
  1018b7:	59                   	pop    %ecx
  1018b8:	5d                   	pop    %ebp
  1018b9:	8d 61 fc             	lea    -0x4(%ecx),%esp
  1018bc:	c3                   	ret    
  1018bd:	00 00                	add    %al,(%eax)
	...

001018c0 <_D5panic5panicFPaZv>:
  1018c0:	55                   	push   %ebp
  1018c1:	89 e5                	mov    %esp,%ebp
  1018c3:	83 ec 08             	sub    $0x8,%esp
  1018c6:	c7 04 24 a6 64 10 00 	movl   $0x1064a6,(%esp)
  1018cd:	e8 0b 02 00 00       	call   101add <_D5video4text4text4putsFPaZv>
  1018d2:	8b 45 08             	mov    0x8(%ebp),%eax
  1018d5:	89 04 24             	mov    %eax,(%esp)
  1018d8:	e8 18 02 00 00       	call   101af5 <_D5video4text4text6putslnFPaZv>
  1018dd:	eb fe                	jmp    1018dd <_D5panic5panicFPaZv+0x1d>
	...

001018e0 <_D5video4text4text7getAttrFZh>:
  1018e0:	55                   	push   %ebp
  1018e1:	89 e5                	mov    %esp,%ebp
  1018e3:	0f b6 05 88 13 11 00 	movzbl 0x111388,%eax
  1018ea:	5d                   	pop    %ebp
  1018eb:	c3                   	ret    

001018ec <_D5video4text4text7setAttrFhZv>:
  1018ec:	55                   	push   %ebp
  1018ed:	89 e5                	mov    %esp,%ebp
  1018ef:	0f b6 45 08          	movzbl 0x8(%ebp),%eax
  1018f3:	a2 88 13 11 00       	mov    %al,0x111388
  1018f8:	5d                   	pop    %ebp
  1018f9:	c3                   	ret    

001018fa <_D5video4text4text4getYFZk>:
  1018fa:	55                   	push   %ebp
  1018fb:	89 e5                	mov    %esp,%ebp
  1018fd:	a1 90 13 11 00       	mov    0x111390,%eax
  101902:	5d                   	pop    %ebp
  101903:	c3                   	ret    

00101904 <_D5video4text4text13internal_putcFaZv>:
  101904:	55                   	push   %ebp
  101905:	89 e5                	mov    %esp,%ebp
  101907:	83 ec 18             	sub    $0x18,%esp
  10190a:	0f b6 45 08          	movzbl 0x8(%ebp),%eax
  10190e:	83 f8 0a             	cmp    $0xa,%eax
  101911:	75 21                	jne    101934 <_D5video4text4text13internal_putcFaZv+0x30>
  101913:	c7 05 8c 13 11 00 00 	movl   $0x0,0x11138c
  10191a:	00 00 00 
  10191d:	a1 90 13 11 00       	mov    0x111390,%eax
  101922:	83 c0 01             	add    $0x1,%eax
  101925:	a3 90 13 11 00       	mov    %eax,0x111390
  10192a:	e8 96 07 00 00       	call   1020c5 <_D5video4text4misc6scrollFZv>
  10192f:	e9 8d 00 00 00       	jmp    1019c1 <_D5video4text4text13internal_putcFaZv+0xbd>
  101934:	0f b6 45 08          	movzbl 0x8(%ebp),%eax
  101938:	83 f8 0d             	cmp    $0xd,%eax
  10193b:	75 0c                	jne    101949 <_D5video4text4text13internal_putcFaZv+0x45>
  10193d:	c7 05 8c 13 11 00 00 	movl   $0x0,0x11138c
  101944:	00 00 00 
  101947:	eb 78                	jmp    1019c1 <_D5video4text4text13internal_putcFaZv+0xbd>
  101949:	0f b6 45 08          	movzbl 0x8(%ebp),%eax
  10194d:	83 f8 08             	cmp    $0x8,%eax
  101950:	0f b6 45 08          	movzbl 0x8(%ebp),%eax
  101954:	83 f8 09             	cmp    $0x9,%eax
  101957:	75 12                	jne    10196b <_D5video4text4text13internal_putcFaZv+0x67>
  101959:	a1 8c 13 11 00       	mov    0x11138c,%eax
  10195e:	83 c0 08             	add    $0x8,%eax
  101961:	83 e0 f8             	and    $0xfffffff8,%eax
  101964:	a3 8c 13 11 00       	mov    %eax,0x11138c
  101969:	eb 56                	jmp    1019c1 <_D5video4text4text13internal_putcFaZv+0xbd>
  10196b:	0f b6 45 08          	movzbl 0x8(%ebp),%eax
  10196f:	83 f8 20             	cmp    $0x20,%eax
  101972:	7c 4d                	jl     1019c1 <_D5video4text4text13internal_putcFaZv+0xbd>
  101974:	8b 0d 88 ad 10 00    	mov    0x10ad88,%ecx
  10197a:	a1 90 13 11 00       	mov    0x111390,%eax
  10197f:	8d 14 00             	lea    (%eax,%eax,1),%edx
  101982:	89 d0                	mov    %edx,%eax
  101984:	c1 e0 02             	shl    $0x2,%eax
  101987:	01 d0                	add    %edx,%eax
  101989:	c1 e0 04             	shl    $0x4,%eax
  10198c:	8d 14 01             	lea    (%ecx,%eax,1),%edx
  10198f:	a1 8c 13 11 00       	mov    0x11138c,%eax
  101994:	01 c0                	add    %eax,%eax
  101996:	8d 04 02             	lea    (%edx,%eax,1),%eax
  101999:	89 45 fc             	mov    %eax,-0x4(%ebp)
  10199c:	8b 55 fc             	mov    -0x4(%ebp),%edx
  10199f:	0f b6 45 08          	movzbl 0x8(%ebp),%eax
  1019a3:	88 02                	mov    %al,(%edx)
  1019a5:	8b 45 fc             	mov    -0x4(%ebp),%eax
  1019a8:	8d 50 01             	lea    0x1(%eax),%edx
  1019ab:	0f b6 05 88 13 11 00 	movzbl 0x111388,%eax
  1019b2:	88 02                	mov    %al,(%edx)
  1019b4:	a1 8c 13 11 00       	mov    0x11138c,%eax
  1019b9:	83 c0 01             	add    $0x1,%eax
  1019bc:	a3 8c 13 11 00       	mov    %eax,0x11138c
  1019c1:	a1 8c 13 11 00       	mov    0x11138c,%eax
  1019c6:	83 f8 50             	cmp    $0x50,%eax
  1019c9:	72 17                	jb     1019e2 <_D5video4text4text13internal_putcFaZv+0xde>
  1019cb:	c7 05 8c 13 11 00 00 	movl   $0x0,0x11138c
  1019d2:	00 00 00 
  1019d5:	a1 90 13 11 00       	mov    0x111390,%eax
  1019da:	83 c0 01             	add    $0x1,%eax
  1019dd:	a3 90 13 11 00       	mov    %eax,0x111390
  1019e2:	c9                   	leave  
  1019e3:	c3                   	ret    

001019e4 <_D5video4text4text6gotoXYFkkZv>:
  1019e4:	55                   	push   %ebp
  1019e5:	89 e5                	mov    %esp,%ebp
  1019e7:	c7 05 8c 13 11 00 00 	movl   $0x0,0x11138c
  1019ee:	00 00 00 
  1019f1:	c7 05 90 13 11 00 00 	movl   $0x0,0x111390
  1019f8:	00 00 00 
  1019fb:	5d                   	pop    %ebp
  1019fc:	c3                   	ret    

001019fd <_D5video4text4text10moveCursorFZv>:
  1019fd:	55                   	push   %ebp
  1019fe:	89 e5                	mov    %esp,%ebp
  101a00:	83 ec 18             	sub    $0x18,%esp
  101a03:	8b 15 90 13 11 00    	mov    0x111390,%edx
  101a09:	89 d0                	mov    %edx,%eax
  101a0b:	c1 e0 02             	shl    $0x2,%eax
  101a0e:	01 d0                	add    %edx,%eax
  101a10:	c1 e0 04             	shl    $0x4,%eax
  101a13:	89 c2                	mov    %eax,%edx
  101a15:	a1 8c 13 11 00       	mov    0x11138c,%eax
  101a1a:	8d 04 02             	lea    (%edx,%eax,1),%eax
  101a1d:	66 89 45 fe          	mov    %ax,-0x2(%ebp)
  101a21:	c7 44 24 04 0e 00 00 	movl   $0xe,0x4(%esp)
  101a28:	00 
  101a29:	c7 04 24 d4 03 00 00 	movl   $0x3d4,(%esp)
  101a30:	e8 6f e8 ff ff       	call   1002a4 <_D6kernel2io4outbFthZv>
  101a35:	0f b7 45 fe          	movzwl -0x2(%ebp),%eax
  101a39:	c1 f8 08             	sar    $0x8,%eax
  101a3c:	0f b6 c0             	movzbl %al,%eax
  101a3f:	89 44 24 04          	mov    %eax,0x4(%esp)
  101a43:	c7 04 24 d5 03 00 00 	movl   $0x3d5,(%esp)
  101a4a:	e8 55 e8 ff ff       	call   1002a4 <_D6kernel2io4outbFthZv>
  101a4f:	c7 44 24 04 0f 00 00 	movl   $0xf,0x4(%esp)
  101a56:	00 
  101a57:	c7 04 24 d4 03 00 00 	movl   $0x3d4,(%esp)
  101a5e:	e8 41 e8 ff ff       	call   1002a4 <_D6kernel2io4outbFthZv>
  101a63:	0f b7 45 fe          	movzwl -0x2(%ebp),%eax
  101a67:	0f b6 c0             	movzbl %al,%eax
  101a6a:	89 44 24 04          	mov    %eax,0x4(%esp)
  101a6e:	c7 04 24 d5 03 00 00 	movl   $0x3d5,(%esp)
  101a75:	e8 2a e8 ff ff       	call   1002a4 <_D6kernel2io4outbFthZv>
  101a7a:	c9                   	leave  
  101a7b:	c3                   	ret    

00101a7c <_D5video4text4text7ttyInitFZv>:
  101a7c:	55                   	push   %ebp
  101a7d:	89 e5                	mov    %esp,%ebp
  101a7f:	83 ec 08             	sub    $0x8,%esp
  101a82:	c6 05 88 13 11 00 07 	movb   $0x7,0x111388
  101a89:	e8 8e 04 00 00       	call   101f1c <clearScreen>
  101a8e:	c9                   	leave  
  101a8f:	c3                   	ret    

00101a90 <_D5video4text4text4putcFaZv>:
  101a90:	55                   	push   %ebp
  101a91:	89 e5                	mov    %esp,%ebp
  101a93:	83 ec 08             	sub    $0x8,%esp
  101a96:	0f b6 45 08          	movzbl 0x8(%ebp),%eax
  101a9a:	89 04 24             	mov    %eax,(%esp)
  101a9d:	e8 62 fe ff ff       	call   101904 <_D5video4text4text13internal_putcFaZv>
  101aa2:	e8 56 ff ff ff       	call   1019fd <_D5video4text4text10moveCursorFZv>
  101aa7:	c9                   	leave  
  101aa8:	c3                   	ret    

00101aa9 <_D5video4text4text13internal_putsFPaZv>:
  101aa9:	55                   	push   %ebp
  101aaa:	89 e5                	mov    %esp,%ebp
  101aac:	83 ec 08             	sub    $0x8,%esp
  101aaf:	8b 45 08             	mov    0x8(%ebp),%eax
  101ab2:	0f b6 00             	movzbl (%eax),%eax
  101ab5:	0f b6 c0             	movzbl %al,%eax
  101ab8:	85 c0                	test   %eax,%eax
  101aba:	0f 95 c0             	setne  %al
  101abd:	83 f0 01             	xor    $0x1,%eax
  101ac0:	84 c0                	test   %al,%al
  101ac2:	75 17                	jne    101adb <_D5video4text4text13internal_putsFPaZv+0x32>
  101ac4:	8b 45 08             	mov    0x8(%ebp),%eax
  101ac7:	0f b6 00             	movzbl (%eax),%eax
  101aca:	0f b6 c0             	movzbl %al,%eax
  101acd:	89 04 24             	mov    %eax,(%esp)
  101ad0:	e8 2f fe ff ff       	call   101904 <_D5video4text4text13internal_putcFaZv>
  101ad5:	83 45 08 01          	addl   $0x1,0x8(%ebp)
  101ad9:	eb d4                	jmp    101aaf <_D5video4text4text13internal_putsFPaZv+0x6>
  101adb:	c9                   	leave  
  101adc:	c3                   	ret    

00101add <_D5video4text4text4putsFPaZv>:
  101add:	55                   	push   %ebp
  101ade:	89 e5                	mov    %esp,%ebp
  101ae0:	83 ec 08             	sub    $0x8,%esp
  101ae3:	8b 45 08             	mov    0x8(%ebp),%eax
  101ae6:	89 04 24             	mov    %eax,(%esp)
  101ae9:	e8 bb ff ff ff       	call   101aa9 <_D5video4text4text13internal_putsFPaZv>
  101aee:	e8 0a ff ff ff       	call   1019fd <_D5video4text4text10moveCursorFZv>
  101af3:	c9                   	leave  
  101af4:	c3                   	ret    

00101af5 <_D5video4text4text6putslnFPaZv>:
  101af5:	55                   	push   %ebp
  101af6:	89 e5                	mov    %esp,%ebp
  101af8:	83 ec 08             	sub    $0x8,%esp
  101afb:	8b 45 08             	mov    0x8(%ebp),%eax
  101afe:	89 04 24             	mov    %eax,(%esp)
  101b01:	e8 a3 ff ff ff       	call   101aa9 <_D5video4text4text13internal_putsFPaZv>
  101b06:	c7 04 24 0a 00 00 00 	movl   $0xa,(%esp)
  101b0d:	e8 7e ff ff ff       	call   101a90 <_D5video4text4text4putcFaZv>
  101b12:	c9                   	leave  
  101b13:	c3                   	ret    

00101b14 <_D5video4text4text6printxFkZv>:
  101b14:	55                   	push   %ebp
  101b15:	89 e5                	mov    %esp,%ebp
  101b17:	83 ec 18             	sub    $0x18,%esp
  101b1a:	c7 45 fc 00 00 00 00 	movl   $0x0,-0x4(%ebp)
  101b21:	c6 45 fb 01          	movb   $0x1,-0x5(%ebp)
  101b25:	c7 04 24 ae 64 10 00 	movl   $0x1064ae,(%esp)
  101b2c:	e8 ac ff ff ff       	call   101add <_D5video4text4text4putsFPaZv>
  101b31:	c7 45 f4 00 00 00 00 	movl   $0x0,-0xc(%ebp)
  101b38:	c7 45 f4 1c 00 00 00 	movl   $0x1c,-0xc(%ebp)
  101b3f:	83 7d f4 00          	cmpl   $0x0,-0xc(%ebp)
  101b43:	0f 9f c0             	setg   %al
  101b46:	83 f0 01             	xor    $0x1,%eax
  101b49:	84 c0                	test   %al,%al
  101b4b:	75 54                	jne    101ba1 <_D5video4text4text6printxFkZv+0x8d>
  101b4d:	8b 4d f4             	mov    -0xc(%ebp),%ecx
  101b50:	8b 45 08             	mov    0x8(%ebp),%eax
  101b53:	d3 e8                	shr    %cl,%eax
  101b55:	83 e0 0f             	and    $0xf,%eax
  101b58:	89 45 fc             	mov    %eax,-0x4(%ebp)
  101b5b:	83 7d fc 00          	cmpl   $0x0,-0x4(%ebp)
  101b5f:	75 08                	jne    101b69 <_D5video4text4text6printxFkZv+0x55>
  101b61:	0f be 45 fb          	movsbl -0x5(%ebp),%eax
  101b65:	85 c0                	test   %eax,%eax
  101b67:	75 32                	jne    101b9b <_D5video4text4text6printxFkZv+0x87>
  101b69:	83 7d fc 0a          	cmpl   $0xa,-0x4(%ebp)
  101b6d:	7c 17                	jl     101b86 <_D5video4text4text6printxFkZv+0x72>
  101b6f:	c6 45 fb 00          	movb   $0x0,-0x5(%ebp)
  101b73:	8b 45 fc             	mov    -0x4(%ebp),%eax
  101b76:	83 c0 37             	add    $0x37,%eax
  101b79:	0f b6 c0             	movzbl %al,%eax
  101b7c:	89 04 24             	mov    %eax,(%esp)
  101b7f:	e8 0c ff ff ff       	call   101a90 <_D5video4text4text4putcFaZv>
  101b84:	eb 15                	jmp    101b9b <_D5video4text4text6printxFkZv+0x87>
  101b86:	c6 45 fb 00          	movb   $0x0,-0x5(%ebp)
  101b8a:	8b 45 fc             	mov    -0x4(%ebp),%eax
  101b8d:	83 c0 30             	add    $0x30,%eax
  101b90:	0f b6 c0             	movzbl %al,%eax
  101b93:	89 04 24             	mov    %eax,(%esp)
  101b96:	e8 f5 fe ff ff       	call   101a90 <_D5video4text4text4putcFaZv>
  101b9b:	83 6d f4 04          	subl   $0x4,-0xc(%ebp)
  101b9f:	eb 9e                	jmp    101b3f <_D5video4text4text6printxFkZv+0x2b>
  101ba1:	8b 45 08             	mov    0x8(%ebp),%eax
  101ba4:	83 e0 0f             	and    $0xf,%eax
  101ba7:	89 45 fc             	mov    %eax,-0x4(%ebp)
  101baa:	83 7d fc 0a          	cmpl   $0xa,-0x4(%ebp)
  101bae:	7c 13                	jl     101bc3 <_D5video4text4text6printxFkZv+0xaf>
  101bb0:	8b 45 fc             	mov    -0x4(%ebp),%eax
  101bb3:	83 c0 37             	add    $0x37,%eax
  101bb6:	0f b6 c0             	movzbl %al,%eax
  101bb9:	89 04 24             	mov    %eax,(%esp)
  101bbc:	e8 cf fe ff ff       	call   101a90 <_D5video4text4text4putcFaZv>
  101bc1:	eb 11                	jmp    101bd4 <_D5video4text4text6printxFkZv+0xc0>
  101bc3:	8b 45 fc             	mov    -0x4(%ebp),%eax
  101bc6:	83 c0 30             	add    $0x30,%eax
  101bc9:	0f b6 c0             	movzbl %al,%eax
  101bcc:	89 04 24             	mov    %eax,(%esp)
  101bcf:	e8 bc fe ff ff       	call   101a90 <_D5video4text4text4putcFaZv>
  101bd4:	c9                   	leave  
  101bd5:	c3                   	ret    

00101bd6 <_D5video4text4text6printdFkZv>:
  101bd6:	55                   	push   %ebp
  101bd7:	89 e5                	mov    %esp,%ebp
  101bd9:	56                   	push   %esi
  101bda:	53                   	push   %ebx
  101bdb:	81 ec e0 00 00 00    	sub    $0xe0,%esp
  101be1:	83 7d 08 00          	cmpl   $0x0,0x8(%ebp)
  101be5:	75 11                	jne    101bf8 <_D5video4text4text6printdFkZv+0x22>
  101be7:	c7 04 24 30 00 00 00 	movl   $0x30,(%esp)
  101bee:	e8 9d fe ff ff       	call   101a90 <_D5video4text4text4putcFaZv>
  101bf3:	e9 17 03 00 00       	jmp    101f0f <_D5video4text4text6printdFkZv+0x339>
  101bf8:	8b 45 08             	mov    0x8(%ebp),%eax
  101bfb:	89 45 f4             	mov    %eax,-0xc(%ebp)
  101bfe:	c7 85 30 ff ff ff 20 	movl   $0x20,-0xd0(%ebp)
  101c05:	00 00 00 
  101c08:	8d 45 cc             	lea    -0x34(%ebp),%eax
  101c0b:	89 85 34 ff ff ff    	mov    %eax,-0xcc(%ebp)
  101c11:	8b 85 30 ff ff ff    	mov    -0xd0(%ebp),%eax
  101c17:	89 45 9c             	mov    %eax,-0x64(%ebp)
  101c1a:	8b 95 34 ff ff ff    	mov    -0xcc(%ebp),%edx
  101c20:	89 55 98             	mov    %edx,-0x68(%ebp)
  101c23:	83 7d 9c 00          	cmpl   $0x0,-0x64(%ebp)
  101c27:	0f 95 c0             	setne  %al
  101c2a:	83 f0 01             	xor    $0x1,%eax
  101c2d:	84 c0                	test   %al,%al
  101c2f:	75 10                	jne    101c41 <_D5video4text4text6printdFkZv+0x6b>
  101c31:	8b 4d 98             	mov    -0x68(%ebp),%ecx
  101c34:	c6 01 ff             	movb   $0xff,(%ecx)
  101c37:	83 45 98 01          	addl   $0x1,-0x68(%ebp)
  101c3b:	83 6d 9c 01          	subl   $0x1,-0x64(%ebp)
  101c3f:	eb e2                	jmp    101c23 <_D5video4text4text6printdFkZv+0x4d>
  101c41:	c7 45 f0 00 00 00 00 	movl   $0x0,-0x10(%ebp)
  101c48:	83 7d f4 00          	cmpl   $0x0,-0xc(%ebp)
  101c4c:	0f 9f c0             	setg   %al
  101c4f:	83 f0 01             	xor    $0x1,%eax
  101c52:	84 c0                	test   %al,%al
  101c54:	0f 85 cd 00 00 00    	jne    101d27 <_D5video4text4text6printdFkZv+0x151>
  101c5a:	8b 45 f0             	mov    -0x10(%ebp),%eax
  101c5d:	83 f8 20             	cmp    $0x20,%eax
  101c60:	73 0b                	jae    101c6d <_D5video4text4text6printdFkZv+0x97>
  101c62:	8b 75 f0             	mov    -0x10(%ebp),%esi
  101c65:	89 b5 3c ff ff ff    	mov    %esi,-0xc4(%ebp)
  101c6b:	eb 34                	jmp    101ca1 <_D5video4text4text6printdFkZv+0xcb>
  101c6d:	c7 85 40 ff ff ff 11 	movl   $0x11,-0xc0(%ebp)
  101c74:	00 00 00 
  101c77:	c7 85 44 ff ff ff b1 	movl   $0x1064b1,-0xbc(%ebp)
  101c7e:	64 10 00 
  101c81:	c7 44 24 08 88 00 00 	movl   $0x88,0x8(%esp)
  101c88:	00 
  101c89:	8b 85 40 ff ff ff    	mov    -0xc0(%ebp),%eax
  101c8f:	8b 95 44 ff ff ff    	mov    -0xbc(%ebp),%edx
  101c95:	89 04 24             	mov    %eax,(%esp)
  101c98:	89 54 24 04          	mov    %edx,0x4(%esp)
  101c9c:	e8 01 13 00 00       	call   102fa2 <_d_array_bounds>
  101ca1:	8d 5d cc             	lea    -0x34(%ebp),%ebx
  101ca4:	03 9d 3c ff ff ff    	add    -0xc4(%ebp),%ebx
  101caa:	8b 4d f4             	mov    -0xc(%ebp),%ecx
  101cad:	c7 85 2c ff ff ff 67 	movl   $0x66666667,-0xd4(%ebp)
  101cb4:	66 66 66 
  101cb7:	8b 85 2c ff ff ff    	mov    -0xd4(%ebp),%eax
  101cbd:	f7 e9                	imul   %ecx
  101cbf:	c1 fa 02             	sar    $0x2,%edx
  101cc2:	89 c8                	mov    %ecx,%eax
  101cc4:	c1 f8 1f             	sar    $0x1f,%eax
  101cc7:	89 d6                	mov    %edx,%esi
  101cc9:	29 c6                	sub    %eax,%esi
  101ccb:	89 b5 48 ff ff ff    	mov    %esi,-0xb8(%ebp)
  101cd1:	8b 85 48 ff ff ff    	mov    -0xb8(%ebp),%eax
  101cd7:	c1 e0 02             	shl    $0x2,%eax
  101cda:	03 85 48 ff ff ff    	add    -0xb8(%ebp),%eax
  101ce0:	01 c0                	add    %eax,%eax
  101ce2:	89 ca                	mov    %ecx,%edx
  101ce4:	29 c2                	sub    %eax,%edx
  101ce6:	89 95 48 ff ff ff    	mov    %edx,-0xb8(%ebp)
  101cec:	0f b6 85 48 ff ff ff 	movzbl -0xb8(%ebp),%eax
  101cf3:	83 c0 30             	add    $0x30,%eax
  101cf6:	88 03                	mov    %al,(%ebx)
  101cf8:	8b 4d f4             	mov    -0xc(%ebp),%ecx
  101cfb:	c7 85 2c ff ff ff 67 	movl   $0x66666667,-0xd4(%ebp)
  101d02:	66 66 66 
  101d05:	8b 85 2c ff ff ff    	mov    -0xd4(%ebp),%eax
  101d0b:	f7 e9                	imul   %ecx
  101d0d:	c1 fa 02             	sar    $0x2,%edx
  101d10:	89 c8                	mov    %ecx,%eax
  101d12:	c1 f8 1f             	sar    $0x1f,%eax
  101d15:	89 d1                	mov    %edx,%ecx
  101d17:	29 c1                	sub    %eax,%ecx
  101d19:	89 c8                	mov    %ecx,%eax
  101d1b:	89 45 f4             	mov    %eax,-0xc(%ebp)
  101d1e:	83 45 f0 01          	addl   $0x1,-0x10(%ebp)
  101d22:	e9 21 ff ff ff       	jmp    101c48 <_D5video4text4text6printdFkZv+0x72>
  101d27:	8b 45 f0             	mov    -0x10(%ebp),%eax
  101d2a:	83 f8 20             	cmp    $0x20,%eax
  101d2d:	73 0b                	jae    101d3a <_D5video4text4text6printdFkZv+0x164>
  101d2f:	8b 75 f0             	mov    -0x10(%ebp),%esi
  101d32:	89 b5 4c ff ff ff    	mov    %esi,-0xb4(%ebp)
  101d38:	eb 34                	jmp    101d6e <_D5video4text4text6printdFkZv+0x198>
  101d3a:	c7 85 50 ff ff ff 11 	movl   $0x11,-0xb0(%ebp)
  101d41:	00 00 00 
  101d44:	c7 85 54 ff ff ff b1 	movl   $0x1064b1,-0xac(%ebp)
  101d4b:	64 10 00 
  101d4e:	c7 44 24 08 8c 00 00 	movl   $0x8c,0x8(%esp)
  101d55:	00 
  101d56:	8b 85 50 ff ff ff    	mov    -0xb0(%ebp),%eax
  101d5c:	8b 95 54 ff ff ff    	mov    -0xac(%ebp),%edx
  101d62:	89 04 24             	mov    %eax,(%esp)
  101d65:	89 54 24 04          	mov    %edx,0x4(%esp)
  101d69:	e8 34 12 00 00       	call   102fa2 <_d_array_bounds>
  101d6e:	8d 45 cc             	lea    -0x34(%ebp),%eax
  101d71:	03 85 4c ff ff ff    	add    -0xb4(%ebp),%eax
  101d77:	c6 00 00             	movb   $0x0,(%eax)
  101d7a:	c7 85 58 ff ff ff 20 	movl   $0x20,-0xa8(%ebp)
  101d81:	00 00 00 
  101d84:	8d 45 ac             	lea    -0x54(%ebp),%eax
  101d87:	89 85 5c ff ff ff    	mov    %eax,-0xa4(%ebp)
  101d8d:	8b 95 58 ff ff ff    	mov    -0xa8(%ebp),%edx
  101d93:	89 55 a4             	mov    %edx,-0x5c(%ebp)
  101d96:	8b 8d 5c ff ff ff    	mov    -0xa4(%ebp),%ecx
  101d9c:	89 4d a0             	mov    %ecx,-0x60(%ebp)
  101d9f:	83 7d a4 00          	cmpl   $0x0,-0x5c(%ebp)
  101da3:	0f 95 c0             	setne  %al
  101da6:	83 f0 01             	xor    $0x1,%eax
  101da9:	84 c0                	test   %al,%al
  101dab:	75 10                	jne    101dbd <_D5video4text4text6printdFkZv+0x1e7>
  101dad:	8b 75 a0             	mov    -0x60(%ebp),%esi
  101db0:	c6 06 ff             	movb   $0xff,(%esi)
  101db3:	83 45 a0 01          	addl   $0x1,-0x60(%ebp)
  101db7:	83 6d a4 01          	subl   $0x1,-0x5c(%ebp)
  101dbb:	eb e2                	jmp    101d9f <_D5video4text4text6printdFkZv+0x1c9>
  101dbd:	8b 45 f0             	mov    -0x10(%ebp),%eax
  101dc0:	89 85 64 ff ff ff    	mov    %eax,-0x9c(%ebp)
  101dc6:	83 bd 64 ff ff ff 1f 	cmpl   $0x1f,-0x9c(%ebp)
  101dcd:	0f 96 c0             	setbe  %al
  101dd0:	83 6d f0 01          	subl   $0x1,-0x10(%ebp)
  101dd4:	84 c0                	test   %al,%al
  101dd6:	74 0e                	je     101de6 <_D5video4text4text6printdFkZv+0x210>
  101dd8:	8b 95 64 ff ff ff    	mov    -0x9c(%ebp),%edx
  101dde:	89 95 60 ff ff ff    	mov    %edx,-0xa0(%ebp)
  101de4:	eb 34                	jmp    101e1a <_D5video4text4text6printdFkZv+0x244>
  101de6:	c7 85 68 ff ff ff 11 	movl   $0x11,-0x98(%ebp)
  101ded:	00 00 00 
  101df0:	c7 85 6c ff ff ff b1 	movl   $0x1064b1,-0x94(%ebp)
  101df7:	64 10 00 
  101dfa:	c7 44 24 08 90 00 00 	movl   $0x90,0x8(%esp)
  101e01:	00 
  101e02:	8b 85 68 ff ff ff    	mov    -0x98(%ebp),%eax
  101e08:	8b 95 6c ff ff ff    	mov    -0x94(%ebp),%edx
  101e0e:	89 04 24             	mov    %eax,(%esp)
  101e11:	89 54 24 04          	mov    %edx,0x4(%esp)
  101e15:	e8 88 11 00 00       	call   102fa2 <_d_array_bounds>
  101e1a:	8d 45 ac             	lea    -0x54(%ebp),%eax
  101e1d:	03 85 60 ff ff ff    	add    -0xa0(%ebp),%eax
  101e23:	c6 00 00             	movb   $0x0,(%eax)
  101e26:	c7 45 ec 00 00 00 00 	movl   $0x0,-0x14(%ebp)
  101e2d:	8b 45 f0             	mov    -0x10(%ebp),%eax
  101e30:	f7 d0                	not    %eax
  101e32:	c1 e8 1f             	shr    $0x1f,%eax
  101e35:	83 f0 01             	xor    $0x1,%eax
  101e38:	84 c0                	test   %al,%al
  101e3a:	0f 85 c4 00 00 00    	jne    101f04 <_D5video4text4text6printdFkZv+0x32e>
  101e40:	8b 55 f0             	mov    -0x10(%ebp),%edx
  101e43:	89 95 74 ff ff ff    	mov    %edx,-0x8c(%ebp)
  101e49:	83 bd 74 ff ff ff 1f 	cmpl   $0x1f,-0x8c(%ebp)
  101e50:	0f 96 c0             	setbe  %al
  101e53:	83 6d f0 01          	subl   $0x1,-0x10(%ebp)
  101e57:	84 c0                	test   %al,%al
  101e59:	74 0e                	je     101e69 <_D5video4text4text6printdFkZv+0x293>
  101e5b:	8b 8d 74 ff ff ff    	mov    -0x8c(%ebp),%ecx
  101e61:	89 8d 70 ff ff ff    	mov    %ecx,-0x90(%ebp)
  101e67:	eb 34                	jmp    101e9d <_D5video4text4text6printdFkZv+0x2c7>
  101e69:	c7 85 78 ff ff ff 11 	movl   $0x11,-0x88(%ebp)
  101e70:	00 00 00 
  101e73:	c7 85 7c ff ff ff b1 	movl   $0x1064b1,-0x84(%ebp)
  101e7a:	64 10 00 
  101e7d:	c7 44 24 08 94 00 00 	movl   $0x94,0x8(%esp)
  101e84:	00 
  101e85:	8b 85 78 ff ff ff    	mov    -0x88(%ebp),%eax
  101e8b:	8b 95 7c ff ff ff    	mov    -0x84(%ebp),%edx
  101e91:	89 04 24             	mov    %eax,(%esp)
  101e94:	89 54 24 04          	mov    %edx,0x4(%esp)
  101e98:	e8 05 11 00 00       	call   102fa2 <_d_array_bounds>
  101e9d:	8d 55 ac             	lea    -0x54(%ebp),%edx
  101ea0:	89 55 84             	mov    %edx,-0x7c(%ebp)
  101ea3:	8b 8d 70 ff ff ff    	mov    -0x90(%ebp),%ecx
  101ea9:	01 4d 84             	add    %ecx,-0x7c(%ebp)
  101eac:	8b 75 ec             	mov    -0x14(%ebp),%esi
  101eaf:	89 75 8c             	mov    %esi,-0x74(%ebp)
  101eb2:	83 7d 8c 1f          	cmpl   $0x1f,-0x74(%ebp)
  101eb6:	0f 96 c0             	setbe  %al
  101eb9:	83 45 ec 01          	addl   $0x1,-0x14(%ebp)
  101ebd:	84 c0                	test   %al,%al
  101ebf:	74 08                	je     101ec9 <_D5video4text4text6printdFkZv+0x2f3>
  101ec1:	8b 45 8c             	mov    -0x74(%ebp),%eax
  101ec4:	89 45 88             	mov    %eax,-0x78(%ebp)
  101ec7:	eb 28                	jmp    101ef1 <_D5video4text4text6printdFkZv+0x31b>
  101ec9:	c7 45 90 11 00 00 00 	movl   $0x11,-0x70(%ebp)
  101ed0:	c7 45 94 b1 64 10 00 	movl   $0x1064b1,-0x6c(%ebp)
  101ed7:	c7 44 24 08 94 00 00 	movl   $0x94,0x8(%esp)
  101ede:	00 
  101edf:	8b 55 90             	mov    -0x70(%ebp),%edx
  101ee2:	8b 4d 94             	mov    -0x6c(%ebp),%ecx
  101ee5:	89 14 24             	mov    %edx,(%esp)
  101ee8:	89 4c 24 04          	mov    %ecx,0x4(%esp)
  101eec:	e8 b1 10 00 00       	call   102fa2 <_d_array_bounds>
  101ef1:	8d 45 cc             	lea    -0x34(%ebp),%eax
  101ef4:	03 45 88             	add    -0x78(%ebp),%eax
  101ef7:	0f b6 00             	movzbl (%eax),%eax
  101efa:	8b 4d 84             	mov    -0x7c(%ebp),%ecx
  101efd:	88 01                	mov    %al,(%ecx)
  101eff:	e9 29 ff ff ff       	jmp    101e2d <_D5video4text4text6printdFkZv+0x257>
  101f04:	8d 45 ac             	lea    -0x54(%ebp),%eax
  101f07:	89 04 24             	mov    %eax,(%esp)
  101f0a:	e8 ce fb ff ff       	call   101add <_D5video4text4text4putsFPaZv>
  101f0f:	81 c4 e0 00 00 00    	add    $0xe0,%esp
  101f15:	5b                   	pop    %ebx
  101f16:	5e                   	pop    %esi
  101f17:	5d                   	pop    %ebp
  101f18:	c3                   	ret    
  101f19:	00 00                	add    %al,(%eax)
	...

00101f1c <clearScreen>:
  101f1c:	55                   	push   %ebp
  101f1d:	89 e5                	mov    %esp,%ebp
  101f1f:	83 ec 18             	sub    $0x18,%esp
  101f22:	c7 45 f8 00 80 0b 00 	movl   $0xb8000,-0x8(%ebp)
  101f29:	c6 45 f7 20          	movb   $0x20,-0x9(%ebp)
  101f2d:	c7 45 f0 00 00 00 00 	movl   $0x0,-0x10(%ebp)
  101f34:	c7 45 f0 00 00 00 00 	movl   $0x0,-0x10(%ebp)
  101f3b:	81 7d f0 8f 1f 00 00 	cmpl   $0x1f8f,-0x10(%ebp)
  101f42:	0f 9e c0             	setle  %al
  101f45:	83 f0 01             	xor    $0x1,%eax
  101f48:	84 c0                	test   %al,%al
  101f4a:	75 2c                	jne    101f78 <clearScreen+0x5c>
  101f4c:	8b 45 f0             	mov    -0x10(%ebp),%eax
  101f4f:	03 45 f8             	add    -0x8(%ebp),%eax
  101f52:	89 45 fc             	mov    %eax,-0x4(%ebp)
  101f55:	8b 55 fc             	mov    -0x4(%ebp),%edx
  101f58:	0f b6 45 f7          	movzbl -0x9(%ebp),%eax
  101f5c:	88 02                	mov    %al,(%edx)
  101f5e:	83 45 fc 01          	addl   $0x1,-0x4(%ebp)
  101f62:	e8 79 f9 ff ff       	call   1018e0 <_D5video4text4text7getAttrFZh>
  101f67:	89 c2                	mov    %eax,%edx
  101f69:	8b 45 fc             	mov    -0x4(%ebp),%eax
  101f6c:	88 10                	mov    %dl,(%eax)
  101f6e:	83 45 f0 01          	addl   $0x1,-0x10(%ebp)
  101f72:	83 45 f0 01          	addl   $0x1,-0x10(%ebp)
  101f76:	eb c3                	jmp    101f3b <clearScreen+0x1f>
  101f78:	c7 44 24 04 00 00 00 	movl   $0x0,0x4(%esp)
  101f7f:	00 
  101f80:	c7 04 24 00 00 00 00 	movl   $0x0,(%esp)
  101f87:	e8 58 fa ff ff       	call   1019e4 <_D5video4text4text6gotoXYFkkZv>
  101f8c:	e8 6c fa ff ff       	call   1019fd <_D5video4text4text10moveCursorFZv>
  101f91:	c9                   	leave  
  101f92:	c3                   	ret    

00101f93 <_D5video4text4misc9panicInitFZv>:
  101f93:	55                   	push   %ebp
  101f94:	89 e5                	mov    %esp,%ebp
  101f96:	83 ec 08             	sub    $0x8,%esp
  101f99:	c7 04 24 1f 00 00 00 	movl   $0x1f,(%esp)
  101fa0:	e8 47 f9 ff ff       	call   1018ec <_D5video4text4text7setAttrFhZv>
  101fa5:	e8 72 ff ff ff       	call   101f1c <clearScreen>
  101faa:	c9                   	leave  
  101fab:	c3                   	ret    

00101fac <_D5video4text4misc12setStartAddrFtZv>:
  101fac:	55                   	push   %ebp
  101fad:	89 e5                	mov    %esp,%ebp
  101faf:	83 ec 18             	sub    $0x18,%esp
  101fb2:	0f b7 45 08          	movzwl 0x8(%ebp),%eax
  101fb6:	66 89 45 fe          	mov    %ax,-0x2(%ebp)
  101fba:	c6 45 fd 00          	movb   $0x0,-0x3(%ebp)
  101fbe:	c6 45 fc 00          	movb   $0x0,-0x4(%ebp)
  101fc2:	0f b7 45 fe          	movzwl -0x2(%ebp),%eax
  101fc6:	88 45 fd             	mov    %al,-0x3(%ebp)
  101fc9:	0f b7 45 fe          	movzwl -0x2(%ebp),%eax
  101fcd:	c1 f8 08             	sar    $0x8,%eax
  101fd0:	88 45 fc             	mov    %al,-0x4(%ebp)
  101fd3:	c7 44 24 04 0c 00 00 	movl   $0xc,0x4(%esp)
  101fda:	00 
  101fdb:	c7 04 24 d4 03 00 00 	movl   $0x3d4,(%esp)
  101fe2:	e8 bd e2 ff ff       	call   1002a4 <_D6kernel2io4outbFthZv>
  101fe7:	0f b6 45 fc          	movzbl -0x4(%ebp),%eax
  101feb:	89 44 24 04          	mov    %eax,0x4(%esp)
  101fef:	c7 04 24 d5 03 00 00 	movl   $0x3d5,(%esp)
  101ff6:	e8 a9 e2 ff ff       	call   1002a4 <_D6kernel2io4outbFthZv>
  101ffb:	c7 44 24 04 0d 00 00 	movl   $0xd,0x4(%esp)
  102002:	00 
  102003:	c7 04 24 d4 03 00 00 	movl   $0x3d4,(%esp)
  10200a:	e8 95 e2 ff ff       	call   1002a4 <_D6kernel2io4outbFthZv>
  10200f:	0f b6 45 fd          	movzbl -0x3(%ebp),%eax
  102013:	89 44 24 04          	mov    %eax,0x4(%esp)
  102017:	c7 04 24 d5 03 00 00 	movl   $0x3d5,(%esp)
  10201e:	e8 81 e2 ff ff       	call   1002a4 <_D6kernel2io4outbFthZv>
  102023:	c9                   	leave  
  102024:	c3                   	ret    

00102025 <_D5video4text4misc16scrollScreenDownFZv>:
  102025:	55                   	push   %ebp
  102026:	89 e5                	mov    %esp,%ebp
  102028:	83 ec 18             	sub    $0x18,%esp
  10202b:	66 c7 45 fe 00 00    	movw   $0x0,-0x2(%ebp)
  102031:	c6 45 fd 00          	movb   $0x0,-0x3(%ebp)
  102035:	c6 45 fc 00          	movb   $0x0,-0x4(%ebp)
  102039:	0f b7 05 94 13 11 00 	movzwl 0x111394,%eax
  102040:	66 89 45 fe          	mov    %ax,-0x2(%ebp)
  102044:	66 83 45 fe 50       	addw   $0x50,-0x2(%ebp)
  102049:	0f b7 45 fe          	movzwl -0x2(%ebp),%eax
  10204d:	89 04 24             	mov    %eax,(%esp)
  102050:	e8 57 ff ff ff       	call   101fac <_D5video4text4misc12setStartAddrFtZv>
  102055:	a1 8c ad 10 00       	mov    0x10ad8c,%eax
  10205a:	83 c0 01             	add    $0x1,%eax
  10205d:	a3 8c ad 10 00       	mov    %eax,0x10ad8c
  102062:	0f b7 45 fe          	movzwl -0x2(%ebp),%eax
  102066:	66 a3 94 13 11 00    	mov    %ax,0x111394
  10206c:	c9                   	leave  
  10206d:	c3                   	ret    

0010206e <_D5video4text4misc14scrollScreenUpFZv>:
  10206e:	55                   	push   %ebp
  10206f:	89 e5                	mov    %esp,%ebp
  102071:	83 ec 18             	sub    $0x18,%esp
  102074:	66 c7 45 fe 00 00    	movw   $0x0,-0x2(%ebp)
  10207a:	c6 45 fd 00          	movb   $0x0,-0x3(%ebp)
  10207e:	c6 45 fc 00          	movb   $0x0,-0x4(%ebp)
  102082:	0f b7 05 94 13 11 00 	movzwl 0x111394,%eax
  102089:	0f b7 c0             	movzwl %ax,%eax
  10208c:	85 c0                	test   %eax,%eax
  10208e:	7e 33                	jle    1020c3 <_D5video4text4misc14scrollScreenUpFZv+0x55>
  102090:	0f b7 05 94 13 11 00 	movzwl 0x111394,%eax
  102097:	66 89 45 fe          	mov    %ax,-0x2(%ebp)
  10209b:	66 83 6d fe 50       	subw   $0x50,-0x2(%ebp)
  1020a0:	0f b7 45 fe          	movzwl -0x2(%ebp),%eax
  1020a4:	89 04 24             	mov    %eax,(%esp)
  1020a7:	e8 00 ff ff ff       	call   101fac <_D5video4text4misc12setStartAddrFtZv>
  1020ac:	a1 8c ad 10 00       	mov    0x10ad8c,%eax
  1020b1:	83 e8 01             	sub    $0x1,%eax
  1020b4:	a3 8c ad 10 00       	mov    %eax,0x10ad8c
  1020b9:	0f b7 45 fe          	movzwl -0x2(%ebp),%eax
  1020bd:	66 a3 94 13 11 00    	mov    %ax,0x111394
  1020c3:	c9                   	leave  
  1020c4:	c3                   	ret    

001020c5 <_D5video4text4misc6scrollFZv>:
  1020c5:	55                   	push   %ebp
  1020c6:	89 e5                	mov    %esp,%ebp
  1020c8:	83 ec 18             	sub    $0x18,%esp
  1020cb:	a1 8c ad 10 00       	mov    0x10ad8c,%eax
  1020d0:	3d af 00 00 00       	cmp    $0xaf,%eax
  1020d5:	72 26                	jb     1020fd <_D5video4text4misc6scrollFZv+0x38>
  1020d7:	e8 40 fe ff ff       	call   101f1c <clearScreen>
  1020dc:	c7 04 24 00 00 00 00 	movl   $0x0,(%esp)
  1020e3:	e8 c4 fe ff ff       	call   101fac <_D5video4text4misc12setStartAddrFtZv>
  1020e8:	66 c7 05 94 13 11 00 	movw   $0x0,0x111394
  1020ef:	00 00 
  1020f1:	c7 05 8c ad 10 00 19 	movl   $0x19,0x10ad8c
  1020f8:	00 00 00 
  1020fb:	eb 65                	jmp    102162 <_D5video4text4misc6scrollFZv+0x9d>
  1020fd:	e8 f8 f7 ff ff       	call   1018fa <_D5video4text4text4getYFZk>
  102102:	89 c2                	mov    %eax,%edx
  102104:	a1 8c ad 10 00       	mov    0x10ad8c,%eax
  102109:	39 c2                	cmp    %eax,%edx
  10210b:	72 50                	jb     10215d <_D5video4text4misc6scrollFZv+0x98>
  10210d:	e8 13 ff ff ff       	call   102025 <_D5video4text4misc16scrollScreenDownFZv>
  102112:	c7 45 fc 00 80 0b 00 	movl   $0xb8000,-0x4(%ebp)
  102119:	8b 15 8c ad 10 00    	mov    0x10ad8c,%edx
  10211f:	89 d0                	mov    %edx,%eax
  102121:	c1 e0 02             	shl    $0x2,%eax
  102124:	01 d0                	add    %edx,%eax
  102126:	c1 e0 04             	shl    $0x4,%eax
  102129:	01 c0                	add    %eax,%eax
  10212b:	01 45 fc             	add    %eax,-0x4(%ebp)
  10212e:	c7 45 f8 00 00 00 00 	movl   $0x0,-0x8(%ebp)
  102135:	c7 45 f8 00 00 00 00 	movl   $0x0,-0x8(%ebp)
  10213c:	83 7d f8 4f          	cmpl   $0x4f,-0x8(%ebp)
  102140:	0f 9e c0             	setle  %al
  102143:	83 f0 01             	xor    $0x1,%eax
  102146:	84 c0                	test   %al,%al
  102148:	75 18                	jne    102162 <_D5video4text4misc6scrollFZv+0x9d>
  10214a:	8b 45 f8             	mov    -0x8(%ebp),%eax
  10214d:	01 c0                	add    %eax,%eax
  10214f:	03 45 fc             	add    -0x4(%ebp),%eax
  102152:	66 c7 00 20 07       	movw   $0x720,(%eax)
  102157:	83 45 f8 01          	addl   $0x1,-0x8(%ebp)
  10215b:	eb df                	jmp    10213c <_D5video4text4misc6scrollFZv+0x77>
  10215d:	e8 98 f7 ff ff       	call   1018fa <_D5video4text4text4getYFZk>
  102162:	c9                   	leave  
  102163:	c3                   	ret    

00102164 <_D5video4text4misc12toggleCursorFkZv>:
  102164:	55                   	push   %ebp
  102165:	89 e5                	mov    %esp,%ebp
  102167:	83 ec 18             	sub    $0x18,%esp
  10216a:	f7 55 08             	notl   0x8(%ebp)
  10216d:	83 65 08 01          	andl   $0x1,0x8(%ebp)
  102171:	c7 44 24 04 0a 00 00 	movl   $0xa,0x4(%esp)
  102178:	00 
  102179:	c7 04 24 d4 03 00 00 	movl   $0x3d4,(%esp)
  102180:	e8 1f e1 ff ff       	call   1002a4 <_D6kernel2io4outbFthZv>
  102185:	c7 04 24 d5 03 00 00 	movl   $0x3d5,(%esp)
  10218c:	e8 20 e1 ff ff       	call   1002b1 <_D6kernel2io3inbFtZh>
  102191:	88 45 ff             	mov    %al,-0x1(%ebp)
  102194:	8b 45 08             	mov    0x8(%ebp),%eax
  102197:	c1 e0 05             	shl    $0x5,%eax
  10219a:	08 45 ff             	or     %al,-0x1(%ebp)
  10219d:	c7 44 24 04 0a 00 00 	movl   $0xa,0x4(%esp)
  1021a4:	00 
  1021a5:	c7 04 24 d4 03 00 00 	movl   $0x3d4,(%esp)
  1021ac:	e8 f3 e0 ff ff       	call   1002a4 <_D6kernel2io4outbFthZv>
  1021b1:	0f b6 45 ff          	movzbl -0x1(%ebp),%eax
  1021b5:	89 44 24 04          	mov    %eax,0x4(%esp)
  1021b9:	c7 04 24 d5 03 00 00 	movl   $0x3d5,(%esp)
  1021c0:	e8 df e0 ff ff       	call   1002a4 <_D6kernel2io4outbFthZv>
  1021c5:	c9                   	leave  
  1021c6:	c3                   	ret    
	...

001021c8 <_d_toObject>:
  1021c8:	55                   	push   %ebp
  1021c9:	89 e5                	mov    %esp,%ebp
  1021cb:	83 ec 10             	sub    $0x10,%esp
  1021ce:	c7 45 f4 00 00 00 00 	movl   $0x0,-0xc(%ebp)
  1021d5:	83 7d 08 00          	cmpl   $0x0,0x8(%ebp)
  1021d9:	74 38                	je     102213 <_d_toObject+0x4b>
  1021db:	8b 45 08             	mov    0x8(%ebp),%eax
  1021de:	89 45 f4             	mov    %eax,-0xc(%ebp)
  1021e1:	8b 45 f4             	mov    -0xc(%ebp),%eax
  1021e4:	8b 00                	mov    (%eax),%eax
  1021e6:	8b 00                	mov    (%eax),%eax
  1021e8:	89 45 fc             	mov    %eax,-0x4(%ebp)
  1021eb:	8b 45 08             	mov    0x8(%ebp),%eax
  1021ee:	8b 00                	mov    (%eax),%eax
  1021f0:	8b 00                	mov    (%eax),%eax
  1021f2:	89 45 f8             	mov    %eax,-0x8(%ebp)
  1021f5:	8b 45 f8             	mov    -0x8(%ebp),%eax
  1021f8:	8b 40 0c             	mov    0xc(%eax),%eax
  1021fb:	3d 00 00 01 00       	cmp    $0x10000,%eax
  102200:	7d 11                	jge    102213 <_d_toObject+0x4b>
  102202:	8b 55 08             	mov    0x8(%ebp),%edx
  102205:	8b 45 f8             	mov    -0x8(%ebp),%eax
  102208:	8b 40 0c             	mov    0xc(%eax),%eax
  10220b:	f7 d8                	neg    %eax
  10220d:	8d 04 02             	lea    (%edx,%eax,1),%eax
  102210:	89 45 f4             	mov    %eax,-0xc(%ebp)
  102213:	8b 45 f4             	mov    -0xc(%ebp),%eax
  102216:	c9                   	leave  
  102217:	c3                   	ret    

00102218 <_d_interface_cast>:
  102218:	55                   	push   %ebp
  102219:	89 e5                	mov    %esp,%ebp
  10221b:	83 ec 28             	sub    $0x28,%esp
  10221e:	c7 45 f8 00 00 00 00 	movl   $0x0,-0x8(%ebp)
  102225:	83 7d 08 00          	cmpl   $0x0,0x8(%ebp)
  102229:	74 32                	je     10225d <_d_interface_cast+0x45>
  10222b:	8b 45 08             	mov    0x8(%ebp),%eax
  10222e:	8b 00                	mov    (%eax),%eax
  102230:	8b 00                	mov    (%eax),%eax
  102232:	89 45 fc             	mov    %eax,-0x4(%ebp)
  102235:	8b 55 08             	mov    0x8(%ebp),%edx
  102238:	8b 45 fc             	mov    -0x4(%ebp),%eax
  10223b:	8b 40 0c             	mov    0xc(%eax),%eax
  10223e:	f7 d8                	neg    %eax
  102240:	8d 04 02             	lea    (%edx,%eax,1),%eax
  102243:	89 45 f8             	mov    %eax,-0x8(%ebp)
  102246:	8b 45 0c             	mov    0xc(%ebp),%eax
  102249:	89 44 24 04          	mov    %eax,0x4(%esp)
  10224d:	8b 45 f8             	mov    -0x8(%ebp),%eax
  102250:	89 04 24             	mov    %eax,(%esp)
  102253:	e8 10 00 00 00       	call   102268 <_d_dynamic_cast>
  102258:	89 45 ec             	mov    %eax,-0x14(%ebp)
  10225b:	eb 06                	jmp    102263 <_d_interface_cast+0x4b>
  10225d:	8b 45 f8             	mov    -0x8(%ebp),%eax
  102260:	89 45 ec             	mov    %eax,-0x14(%ebp)
  102263:	8b 45 ec             	mov    -0x14(%ebp),%eax
  102266:	c9                   	leave  
  102267:	c3                   	ret    

00102268 <_d_dynamic_cast>:
  102268:	55                   	push   %ebp
  102269:	89 e5                	mov    %esp,%ebp
  10226b:	83 ec 28             	sub    $0x28,%esp
  10226e:	c7 45 fc 00 00 00 00 	movl   $0x0,-0x4(%ebp)
  102275:	c7 45 f8 00 00 00 00 	movl   $0x0,-0x8(%ebp)
  10227c:	83 7d 08 00          	cmpl   $0x0,0x8(%ebp)
  102280:	74 36                	je     1022b8 <_d_dynamic_cast+0x50>
  102282:	8b 45 08             	mov    0x8(%ebp),%eax
  102285:	8b 00                	mov    (%eax),%eax
  102287:	8b 00                	mov    (%eax),%eax
  102289:	89 45 fc             	mov    %eax,-0x4(%ebp)
  10228c:	8d 45 f8             	lea    -0x8(%ebp),%eax
  10228f:	89 44 24 08          	mov    %eax,0x8(%esp)
  102293:	8b 45 0c             	mov    0xc(%ebp),%eax
  102296:	89 44 24 04          	mov    %eax,0x4(%esp)
  10229a:	8b 45 fc             	mov    -0x4(%ebp),%eax
  10229d:	89 04 24             	mov    %eax,(%esp)
  1022a0:	e8 18 00 00 00       	call   1022bd <_d_isbaseof2>
  1022a5:	85 c0                	test   %eax,%eax
  1022a7:	74 08                	je     1022b1 <_d_dynamic_cast+0x49>
  1022a9:	8b 45 f8             	mov    -0x8(%ebp),%eax
  1022ac:	01 45 08             	add    %eax,0x8(%ebp)
  1022af:	eb 07                	jmp    1022b8 <_d_dynamic_cast+0x50>
  1022b1:	c7 45 08 00 00 00 00 	movl   $0x0,0x8(%ebp)
  1022b8:	8b 45 08             	mov    0x8(%ebp),%eax
  1022bb:	c9                   	leave  
  1022bc:	c3                   	ret    

001022bd <_d_isbaseof2>:
  1022bd:	55                   	push   %ebp
  1022be:	89 e5                	mov    %esp,%ebp
  1022c0:	83 ec 68             	sub    $0x68,%esp
  1022c3:	c7 45 f4 00 00 00 00 	movl   $0x0,-0xc(%ebp)
  1022ca:	8b 45 08             	mov    0x8(%ebp),%eax
  1022cd:	3b 45 0c             	cmp    0xc(%ebp),%eax
  1022d0:	75 0c                	jne    1022de <_d_isbaseof2+0x21>
  1022d2:	c7 45 ac 01 00 00 00 	movl   $0x1,-0x54(%ebp)
  1022d9:	e9 35 02 00 00       	jmp    102513 <_d_isbaseof2+0x256>
  1022de:	8b 45 08             	mov    0x8(%ebp),%eax
  1022e1:	8b 40 28             	mov    0x28(%eax),%eax
  1022e4:	3b 45 0c             	cmp    0xc(%ebp),%eax
  1022e7:	75 0c                	jne    1022f5 <_d_isbaseof2+0x38>
  1022e9:	c7 45 ac 01 00 00 00 	movl   $0x1,-0x54(%ebp)
  1022f0:	e9 1e 02 00 00       	jmp    102513 <_d_isbaseof2+0x256>
  1022f5:	c7 45 f4 00 00 00 00 	movl   $0x0,-0xc(%ebp)
  1022fc:	8b 55 f4             	mov    -0xc(%ebp),%edx
  1022ff:	8b 45 08             	mov    0x8(%ebp),%eax
  102302:	8b 40 20             	mov    0x20(%eax),%eax
  102305:	39 c2                	cmp    %eax,%edx
  102307:	0f 92 c0             	setb   %al
  10230a:	83 f0 01             	xor    $0x1,%eax
  10230d:	84 c0                	test   %al,%al
  10230f:	0f 85 d5 00 00 00    	jne    1023ea <_d_isbaseof2+0x12d>
  102315:	c7 45 f8 00 00 00 00 	movl   $0x0,-0x8(%ebp)
  10231c:	8b 45 08             	mov    0x8(%ebp),%eax
  10231f:	8b 40 24             	mov    0x24(%eax),%eax
  102322:	89 45 b0             	mov    %eax,-0x50(%ebp)
  102325:	8b 55 f4             	mov    -0xc(%ebp),%edx
  102328:	8b 45 08             	mov    0x8(%ebp),%eax
  10232b:	8b 40 20             	mov    0x20(%eax),%eax
  10232e:	39 c2                	cmp    %eax,%edx
  102330:	73 0d                	jae    10233f <_d_isbaseof2+0x82>
  102332:	8b 45 f4             	mov    -0xc(%ebp),%eax
  102335:	89 c2                	mov    %eax,%edx
  102337:	c1 e2 04             	shl    $0x4,%edx
  10233a:	89 55 b4             	mov    %edx,-0x4c(%ebp)
  10233d:	eb 28                	jmp    102367 <_d_isbaseof2+0xaa>
  10233f:	c7 45 b8 19 00 00 00 	movl   $0x19,-0x48(%ebp)
  102346:	c7 45 bc e0 64 10 00 	movl   $0x1064e0,-0x44(%ebp)
  10234d:	c7 44 24 08 56 00 00 	movl   $0x56,0x8(%esp)
  102354:	00 
  102355:	8b 45 b8             	mov    -0x48(%ebp),%eax
  102358:	8b 55 bc             	mov    -0x44(%ebp),%edx
  10235b:	89 04 24             	mov    %eax,(%esp)
  10235e:	89 54 24 04          	mov    %edx,0x4(%esp)
  102362:	e8 3b 0c 00 00       	call   102fa2 <_d_array_bounds>
  102367:	8b 45 b0             	mov    -0x50(%ebp),%eax
  10236a:	03 45 b4             	add    -0x4c(%ebp),%eax
  10236d:	8b 00                	mov    (%eax),%eax
  10236f:	89 45 f8             	mov    %eax,-0x8(%ebp)
  102372:	8b 45 f8             	mov    -0x8(%ebp),%eax
  102375:	3b 45 0c             	cmp    0xc(%ebp),%eax
  102378:	75 67                	jne    1023e1 <_d_isbaseof2+0x124>
  10237a:	8b 45 08             	mov    0x8(%ebp),%eax
  10237d:	8b 40 24             	mov    0x24(%eax),%eax
  102380:	89 45 c0             	mov    %eax,-0x40(%ebp)
  102383:	8b 55 f4             	mov    -0xc(%ebp),%edx
  102386:	8b 45 08             	mov    0x8(%ebp),%eax
  102389:	8b 40 20             	mov    0x20(%eax),%eax
  10238c:	39 c2                	cmp    %eax,%edx
  10238e:	73 0d                	jae    10239d <_d_isbaseof2+0xe0>
  102390:	8b 45 f4             	mov    -0xc(%ebp),%eax
  102393:	89 c2                	mov    %eax,%edx
  102395:	c1 e2 04             	shl    $0x4,%edx
  102398:	89 55 c4             	mov    %edx,-0x3c(%ebp)
  10239b:	eb 28                	jmp    1023c5 <_d_isbaseof2+0x108>
  10239d:	c7 45 c8 19 00 00 00 	movl   $0x19,-0x38(%ebp)
  1023a4:	c7 45 cc e0 64 10 00 	movl   $0x1064e0,-0x34(%ebp)
  1023ab:	c7 44 24 08 58 00 00 	movl   $0x58,0x8(%esp)
  1023b2:	00 
  1023b3:	8b 45 c8             	mov    -0x38(%ebp),%eax
  1023b6:	8b 55 cc             	mov    -0x34(%ebp),%edx
  1023b9:	89 04 24             	mov    %eax,(%esp)
  1023bc:	89 54 24 04          	mov    %edx,0x4(%esp)
  1023c0:	e8 dd 0b 00 00       	call   102fa2 <_d_array_bounds>
  1023c5:	8b 45 c0             	mov    -0x40(%ebp),%eax
  1023c8:	03 45 c4             	add    -0x3c(%ebp),%eax
  1023cb:	8b 40 0c             	mov    0xc(%eax),%eax
  1023ce:	89 c2                	mov    %eax,%edx
  1023d0:	8b 45 10             	mov    0x10(%ebp),%eax
  1023d3:	89 10                	mov    %edx,(%eax)
  1023d5:	c7 45 ac 01 00 00 00 	movl   $0x1,-0x54(%ebp)
  1023dc:	e9 32 01 00 00       	jmp    102513 <_d_isbaseof2+0x256>
  1023e1:	83 45 f4 01          	addl   $0x1,-0xc(%ebp)
  1023e5:	e9 12 ff ff ff       	jmp    1022fc <_d_isbaseof2+0x3f>
  1023ea:	c7 45 f4 00 00 00 00 	movl   $0x0,-0xc(%ebp)
  1023f1:	8b 55 f4             	mov    -0xc(%ebp),%edx
  1023f4:	8b 45 08             	mov    0x8(%ebp),%eax
  1023f7:	8b 40 20             	mov    0x20(%eax),%eax
  1023fa:	39 c2                	cmp    %eax,%edx
  1023fc:	0f 92 c0             	setb   %al
  1023ff:	83 f0 01             	xor    $0x1,%eax
  102402:	84 c0                	test   %al,%al
  102404:	0f 85 e7 00 00 00    	jne    1024f1 <_d_isbaseof2+0x234>
  10240a:	c7 45 fc 00 00 00 00 	movl   $0x0,-0x4(%ebp)
  102411:	8b 45 08             	mov    0x8(%ebp),%eax
  102414:	8b 40 24             	mov    0x24(%eax),%eax
  102417:	89 45 d0             	mov    %eax,-0x30(%ebp)
  10241a:	8b 55 f4             	mov    -0xc(%ebp),%edx
  10241d:	8b 45 08             	mov    0x8(%ebp),%eax
  102420:	8b 40 20             	mov    0x20(%eax),%eax
  102423:	39 c2                	cmp    %eax,%edx
  102425:	73 0d                	jae    102434 <_d_isbaseof2+0x177>
  102427:	8b 45 f4             	mov    -0xc(%ebp),%eax
  10242a:	89 c2                	mov    %eax,%edx
  10242c:	c1 e2 04             	shl    $0x4,%edx
  10242f:	89 55 d4             	mov    %edx,-0x2c(%ebp)
  102432:	eb 28                	jmp    10245c <_d_isbaseof2+0x19f>
  102434:	c7 45 d8 19 00 00 00 	movl   $0x19,-0x28(%ebp)
  10243b:	c7 45 dc e0 64 10 00 	movl   $0x1064e0,-0x24(%ebp)
  102442:	c7 44 24 08 5f 00 00 	movl   $0x5f,0x8(%esp)
  102449:	00 
  10244a:	8b 45 d8             	mov    -0x28(%ebp),%eax
  10244d:	8b 55 dc             	mov    -0x24(%ebp),%edx
  102450:	89 04 24             	mov    %eax,(%esp)
  102453:	89 54 24 04          	mov    %edx,0x4(%esp)
  102457:	e8 46 0b 00 00       	call   102fa2 <_d_array_bounds>
  10245c:	8b 45 d0             	mov    -0x30(%ebp),%eax
  10245f:	03 45 d4             	add    -0x2c(%ebp),%eax
  102462:	8b 00                	mov    (%eax),%eax
  102464:	89 45 fc             	mov    %eax,-0x4(%ebp)
  102467:	8b 45 10             	mov    0x10(%ebp),%eax
  10246a:	89 44 24 08          	mov    %eax,0x8(%esp)
  10246e:	8b 45 0c             	mov    0xc(%ebp),%eax
  102471:	89 44 24 04          	mov    %eax,0x4(%esp)
  102475:	8b 45 fc             	mov    -0x4(%ebp),%eax
  102478:	89 04 24             	mov    %eax,(%esp)
  10247b:	e8 3d fe ff ff       	call   1022bd <_d_isbaseof2>
  102480:	85 c0                	test   %eax,%eax
  102482:	74 64                	je     1024e8 <_d_isbaseof2+0x22b>
  102484:	8b 45 08             	mov    0x8(%ebp),%eax
  102487:	8b 40 24             	mov    0x24(%eax),%eax
  10248a:	89 45 e0             	mov    %eax,-0x20(%ebp)
  10248d:	8b 55 f4             	mov    -0xc(%ebp),%edx
  102490:	8b 45 08             	mov    0x8(%ebp),%eax
  102493:	8b 40 20             	mov    0x20(%eax),%eax
  102496:	39 c2                	cmp    %eax,%edx
  102498:	73 0d                	jae    1024a7 <_d_isbaseof2+0x1ea>
  10249a:	8b 45 f4             	mov    -0xc(%ebp),%eax
  10249d:	89 c2                	mov    %eax,%edx
  10249f:	c1 e2 04             	shl    $0x4,%edx
  1024a2:	89 55 e4             	mov    %edx,-0x1c(%ebp)
  1024a5:	eb 28                	jmp    1024cf <_d_isbaseof2+0x212>
  1024a7:	c7 45 e8 19 00 00 00 	movl   $0x19,-0x18(%ebp)
  1024ae:	c7 45 ec e0 64 10 00 	movl   $0x1064e0,-0x14(%ebp)
  1024b5:	c7 44 24 08 61 00 00 	movl   $0x61,0x8(%esp)
  1024bc:	00 
  1024bd:	8b 45 e8             	mov    -0x18(%ebp),%eax
  1024c0:	8b 55 ec             	mov    -0x14(%ebp),%edx
  1024c3:	89 04 24             	mov    %eax,(%esp)
  1024c6:	89 54 24 04          	mov    %edx,0x4(%esp)
  1024ca:	e8 d3 0a 00 00       	call   102fa2 <_d_array_bounds>
  1024cf:	8b 45 e0             	mov    -0x20(%ebp),%eax
  1024d2:	03 45 e4             	add    -0x1c(%ebp),%eax
  1024d5:	8b 40 0c             	mov    0xc(%eax),%eax
  1024d8:	89 c2                	mov    %eax,%edx
  1024da:	8b 45 10             	mov    0x10(%ebp),%eax
  1024dd:	89 10                	mov    %edx,(%eax)
  1024df:	c7 45 ac 01 00 00 00 	movl   $0x1,-0x54(%ebp)
  1024e6:	eb 2b                	jmp    102513 <_d_isbaseof2+0x256>
  1024e8:	83 45 f4 01          	addl   $0x1,-0xc(%ebp)
  1024ec:	e9 00 ff ff ff       	jmp    1023f1 <_d_isbaseof2+0x134>
  1024f1:	8b 45 08             	mov    0x8(%ebp),%eax
  1024f4:	8b 40 28             	mov    0x28(%eax),%eax
  1024f7:	89 45 08             	mov    %eax,0x8(%ebp)
  1024fa:	83 7d 08 00          	cmpl   $0x0,0x8(%ebp)
  1024fe:	0f 95 c0             	setne  %al
  102501:	83 f0 01             	xor    $0x1,%eax
  102504:	84 c0                	test   %al,%al
  102506:	0f 84 d2 fd ff ff    	je     1022de <_d_isbaseof2+0x21>
  10250c:	c7 45 ac 00 00 00 00 	movl   $0x0,-0x54(%ebp)
  102513:	8b 45 ac             	mov    -0x54(%ebp),%eax
  102516:	c9                   	leave  
  102517:	c3                   	ret    

00102518 <_d_isbaseof>:
  102518:	55                   	push   %ebp
  102519:	89 e5                	mov    %esp,%ebp
  10251b:	83 ec 38             	sub    $0x38,%esp
  10251e:	c7 45 f8 00 00 00 00 	movl   $0x0,-0x8(%ebp)
  102525:	8b 45 08             	mov    0x8(%ebp),%eax
  102528:	3b 45 0c             	cmp    0xc(%ebp),%eax
  10252b:	75 0c                	jne    102539 <_d_isbaseof+0x21>
  10252d:	c7 45 dc 01 00 00 00 	movl   $0x1,-0x24(%ebp)
  102534:	e9 e6 00 00 00       	jmp    10261f <_d_isbaseof+0x107>
  102539:	8b 45 08             	mov    0x8(%ebp),%eax
  10253c:	8b 40 28             	mov    0x28(%eax),%eax
  10253f:	3b 45 0c             	cmp    0xc(%ebp),%eax
  102542:	75 0c                	jne    102550 <_d_isbaseof+0x38>
  102544:	c7 45 dc 01 00 00 00 	movl   $0x1,-0x24(%ebp)
  10254b:	e9 cf 00 00 00       	jmp    10261f <_d_isbaseof+0x107>
  102550:	c7 45 f8 00 00 00 00 	movl   $0x0,-0x8(%ebp)
  102557:	8b 55 f8             	mov    -0x8(%ebp),%edx
  10255a:	8b 45 08             	mov    0x8(%ebp),%eax
  10255d:	8b 40 20             	mov    0x20(%eax),%eax
  102560:	39 c2                	cmp    %eax,%edx
  102562:	0f 92 c0             	setb   %al
  102565:	83 f0 01             	xor    $0x1,%eax
  102568:	84 c0                	test   %al,%al
  10256a:	0f 85 8d 00 00 00    	jne    1025fd <_d_isbaseof+0xe5>
  102570:	c7 45 fc 00 00 00 00 	movl   $0x0,-0x4(%ebp)
  102577:	8b 45 08             	mov    0x8(%ebp),%eax
  10257a:	8b 40 24             	mov    0x24(%eax),%eax
  10257d:	89 45 e0             	mov    %eax,-0x20(%ebp)
  102580:	8b 55 f8             	mov    -0x8(%ebp),%edx
  102583:	8b 45 08             	mov    0x8(%ebp),%eax
  102586:	8b 40 20             	mov    0x20(%eax),%eax
  102589:	39 c2                	cmp    %eax,%edx
  10258b:	73 0d                	jae    10259a <_d_isbaseof+0x82>
  10258d:	8b 45 f8             	mov    -0x8(%ebp),%eax
  102590:	89 c2                	mov    %eax,%edx
  102592:	c1 e2 04             	shl    $0x4,%edx
  102595:	89 55 e4             	mov    %edx,-0x1c(%ebp)
  102598:	eb 28                	jmp    1025c2 <_d_isbaseof+0xaa>
  10259a:	c7 45 e8 19 00 00 00 	movl   $0x19,-0x18(%ebp)
  1025a1:	c7 45 ec e0 64 10 00 	movl   $0x1064e0,-0x14(%ebp)
  1025a8:	c7 44 24 08 75 00 00 	movl   $0x75,0x8(%esp)
  1025af:	00 
  1025b0:	8b 45 e8             	mov    -0x18(%ebp),%eax
  1025b3:	8b 55 ec             	mov    -0x14(%ebp),%edx
  1025b6:	89 04 24             	mov    %eax,(%esp)
  1025b9:	89 54 24 04          	mov    %edx,0x4(%esp)
  1025bd:	e8 e0 09 00 00       	call   102fa2 <_d_array_bounds>
  1025c2:	8b 45 e0             	mov    -0x20(%ebp),%eax
  1025c5:	03 45 e4             	add    -0x1c(%ebp),%eax
  1025c8:	8b 00                	mov    (%eax),%eax
  1025ca:	89 45 fc             	mov    %eax,-0x4(%ebp)
  1025cd:	8b 45 fc             	mov    -0x4(%ebp),%eax
  1025d0:	3b 45 0c             	cmp    0xc(%ebp),%eax
  1025d3:	74 16                	je     1025eb <_d_isbaseof+0xd3>
  1025d5:	8b 45 0c             	mov    0xc(%ebp),%eax
  1025d8:	89 44 24 04          	mov    %eax,0x4(%esp)
  1025dc:	8b 45 fc             	mov    -0x4(%ebp),%eax
  1025df:	89 04 24             	mov    %eax,(%esp)
  1025e2:	e8 31 ff ff ff       	call   102518 <_d_isbaseof>
  1025e7:	85 c0                	test   %eax,%eax
  1025e9:	74 09                	je     1025f4 <_d_isbaseof+0xdc>
  1025eb:	c7 45 dc 01 00 00 00 	movl   $0x1,-0x24(%ebp)
  1025f2:	eb 2b                	jmp    10261f <_d_isbaseof+0x107>
  1025f4:	83 45 f8 01          	addl   $0x1,-0x8(%ebp)
  1025f8:	e9 5a ff ff ff       	jmp    102557 <_d_isbaseof+0x3f>
  1025fd:	8b 45 08             	mov    0x8(%ebp),%eax
  102600:	8b 40 28             	mov    0x28(%eax),%eax
  102603:	89 45 08             	mov    %eax,0x8(%ebp)
  102606:	83 7d 08 00          	cmpl   $0x0,0x8(%ebp)
  10260a:	0f 95 c0             	setne  %al
  10260d:	83 f0 01             	xor    $0x1,%eax
  102610:	84 c0                	test   %al,%al
  102612:	0f 84 21 ff ff ff    	je     102539 <_d_isbaseof+0x21>
  102618:	c7 45 dc 00 00 00 00 	movl   $0x0,-0x24(%ebp)
  10261f:	8b 45 dc             	mov    -0x24(%ebp),%eax
  102622:	c9                   	leave  
  102623:	c3                   	ret    

00102624 <_d_interface_vtbl>:
  102624:	55                   	push   %ebp
  102625:	89 e5                	mov    %esp,%ebp
  102627:	83 ec 58             	sub    $0x58,%esp
  10262a:	c7 45 f8 00 00 00 00 	movl   $0x0,-0x8(%ebp)
  102631:	c7 45 f4 00 00 00 00 	movl   $0x0,-0xc(%ebp)
  102638:	8b 45 0c             	mov    0xc(%ebp),%eax
  10263b:	89 04 24             	mov    %eax,(%esp)
  10263e:	e8 ae 1f 00 00       	call   1045f1 <_D9invariant12_d_invariantFC6ObjectZv>
  102643:	8b 45 0c             	mov    0xc(%ebp),%eax
  102646:	8b 00                	mov    (%eax),%eax
  102648:	8b 00                	mov    (%eax),%eax
  10264a:	89 45 f4             	mov    %eax,-0xc(%ebp)
  10264d:	c7 45 f8 00 00 00 00 	movl   $0x0,-0x8(%ebp)
  102654:	8b 55 f8             	mov    -0x8(%ebp),%edx
  102657:	8b 45 f4             	mov    -0xc(%ebp),%eax
  10265a:	8b 40 20             	mov    0x20(%eax),%eax
  10265d:	39 c2                	cmp    %eax,%edx
  10265f:	0f 92 c0             	setb   %al
  102662:	83 f0 01             	xor    $0x1,%eax
  102665:	84 c0                	test   %al,%al
  102667:	0f 85 ca 00 00 00    	jne    102737 <_d_interface_vtbl+0x113>
  10266d:	c7 45 fc 00 00 00 00 	movl   $0x0,-0x4(%ebp)
  102674:	8b 45 f4             	mov    -0xc(%ebp),%eax
  102677:	8b 40 24             	mov    0x24(%eax),%eax
  10267a:	89 45 c8             	mov    %eax,-0x38(%ebp)
  10267d:	8b 55 f8             	mov    -0x8(%ebp),%edx
  102680:	8b 45 f4             	mov    -0xc(%ebp),%eax
  102683:	8b 40 20             	mov    0x20(%eax),%eax
  102686:	39 c2                	cmp    %eax,%edx
  102688:	73 0d                	jae    102697 <_d_interface_vtbl+0x73>
  10268a:	8b 45 f8             	mov    -0x8(%ebp),%eax
  10268d:	89 c2                	mov    %eax,%edx
  10268f:	c1 e2 04             	shl    $0x4,%edx
  102692:	89 55 cc             	mov    %edx,-0x34(%ebp)
  102695:	eb 28                	jmp    1026bf <_d_interface_vtbl+0x9b>
  102697:	c7 45 d0 19 00 00 00 	movl   $0x19,-0x30(%ebp)
  10269e:	c7 45 d4 e0 64 10 00 	movl   $0x1064e0,-0x2c(%ebp)
  1026a5:	c7 44 24 08 8e 00 00 	movl   $0x8e,0x8(%esp)
  1026ac:	00 
  1026ad:	8b 45 d0             	mov    -0x30(%ebp),%eax
  1026b0:	8b 55 d4             	mov    -0x2c(%ebp),%edx
  1026b3:	89 04 24             	mov    %eax,(%esp)
  1026b6:	89 54 24 04          	mov    %edx,0x4(%esp)
  1026ba:	e8 e3 08 00 00       	call   102fa2 <_d_array_bounds>
  1026bf:	8b 45 c8             	mov    -0x38(%ebp),%eax
  1026c2:	03 45 cc             	add    -0x34(%ebp),%eax
  1026c5:	8b 00                	mov    (%eax),%eax
  1026c7:	89 45 fc             	mov    %eax,-0x4(%ebp)
  1026ca:	8b 45 fc             	mov    -0x4(%ebp),%eax
  1026cd:	3b 45 08             	cmp    0x8(%ebp),%eax
  1026d0:	75 5c                	jne    10272e <_d_interface_vtbl+0x10a>
  1026d2:	8b 45 f4             	mov    -0xc(%ebp),%eax
  1026d5:	8b 40 24             	mov    0x24(%eax),%eax
  1026d8:	89 45 d8             	mov    %eax,-0x28(%ebp)
  1026db:	8b 55 f8             	mov    -0x8(%ebp),%edx
  1026de:	8b 45 f4             	mov    -0xc(%ebp),%eax
  1026e1:	8b 40 20             	mov    0x20(%eax),%eax
  1026e4:	39 c2                	cmp    %eax,%edx
  1026e6:	73 0d                	jae    1026f5 <_d_interface_vtbl+0xd1>
  1026e8:	8b 45 f8             	mov    -0x8(%ebp),%eax
  1026eb:	89 c2                	mov    %eax,%edx
  1026ed:	c1 e2 04             	shl    $0x4,%edx
  1026f0:	89 55 dc             	mov    %edx,-0x24(%ebp)
  1026f3:	eb 28                	jmp    10271d <_d_interface_vtbl+0xf9>
  1026f5:	c7 45 e0 19 00 00 00 	movl   $0x19,-0x20(%ebp)
  1026fc:	c7 45 e4 e0 64 10 00 	movl   $0x1064e0,-0x1c(%ebp)
  102703:	c7 44 24 08 90 00 00 	movl   $0x90,0x8(%esp)
  10270a:	00 
  10270b:	8b 45 e0             	mov    -0x20(%ebp),%eax
  10270e:	8b 55 e4             	mov    -0x1c(%ebp),%edx
  102711:	89 04 24             	mov    %eax,(%esp)
  102714:	89 54 24 04          	mov    %edx,0x4(%esp)
  102718:	e8 85 08 00 00       	call   102fa2 <_d_array_bounds>
  10271d:	8b 45 d8             	mov    -0x28(%ebp),%eax
  102720:	03 45 dc             	add    -0x24(%ebp),%eax
  102723:	8b 40 08             	mov    0x8(%eax),%eax
  102726:	89 45 c4             	mov    %eax,-0x3c(%ebp)
  102729:	8b 45 c4             	mov    -0x3c(%ebp),%eax
  10272c:	eb 31                	jmp    10275f <_d_interface_vtbl+0x13b>
  10272e:	83 45 f8 01          	addl   $0x1,-0x8(%ebp)
  102732:	e9 1d ff ff ff       	jmp    102654 <_d_interface_vtbl+0x30>
  102737:	c7 45 e8 19 00 00 00 	movl   $0x19,-0x18(%ebp)
  10273e:	c7 45 ec e0 64 10 00 	movl   $0x1064e0,-0x14(%ebp)
  102745:	c7 44 24 08 93 00 00 	movl   $0x93,0x8(%esp)
  10274c:	00 
  10274d:	8b 45 e8             	mov    -0x18(%ebp),%eax
  102750:	8b 55 ec             	mov    -0x14(%ebp),%edx
  102753:	89 04 24             	mov    %eax,(%esp)
  102756:	89 54 24 04          	mov    %edx,0x4(%esp)
  10275a:	e8 f3 07 00 00       	call   102f52 <_d_assert>
  10275f:	c9                   	leave  
  102760:	c3                   	ret    

00102761 <_d_obj_eq>:
  102761:	55                   	push   %ebp
  102762:	89 e5                	mov    %esp,%ebp
  102764:	83 ec 18             	sub    $0x18,%esp
  102767:	8b 45 08             	mov    0x8(%ebp),%eax
  10276a:	3b 45 0c             	cmp    0xc(%ebp),%eax
  10276d:	74 23                	je     102792 <_d_obj_eq+0x31>
  10276f:	83 7d 08 00          	cmpl   $0x0,0x8(%ebp)
  102773:	74 23                	je     102798 <_d_obj_eq+0x37>
  102775:	8b 45 08             	mov    0x8(%ebp),%eax
  102778:	8b 00                	mov    (%eax),%eax
  10277a:	83 c0 14             	add    $0x14,%eax
  10277d:	8b 10                	mov    (%eax),%edx
  10277f:	8b 45 0c             	mov    0xc(%ebp),%eax
  102782:	89 44 24 04          	mov    %eax,0x4(%esp)
  102786:	8b 45 08             	mov    0x8(%ebp),%eax
  102789:	89 04 24             	mov    %eax,(%esp)
  10278c:	ff d2                	call   *%edx
  10278e:	85 c0                	test   %eax,%eax
  102790:	74 06                	je     102798 <_d_obj_eq+0x37>
  102792:	c6 45 ff 01          	movb   $0x1,-0x1(%ebp)
  102796:	eb 04                	jmp    10279c <_d_obj_eq+0x3b>
  102798:	c6 45 ff 00          	movb   $0x0,-0x1(%ebp)
  10279c:	0f b6 45 ff          	movzbl -0x1(%ebp),%eax
  1027a0:	c9                   	leave  
  1027a1:	c3                   	ret    

001027a2 <_d_obj_cmp>:
  1027a2:	55                   	push   %ebp
  1027a3:	89 e5                	mov    %esp,%ebp
  1027a5:	83 ec 08             	sub    $0x8,%esp
  1027a8:	8b 45 08             	mov    0x8(%ebp),%eax
  1027ab:	8b 00                	mov    (%eax),%eax
  1027ad:	83 c0 10             	add    $0x10,%eax
  1027b0:	8b 10                	mov    (%eax),%edx
  1027b2:	8b 45 0c             	mov    0xc(%ebp),%eax
  1027b5:	89 44 24 04          	mov    %eax,0x4(%esp)
  1027b9:	8b 45 08             	mov    0x8(%ebp),%eax
  1027bc:	89 04 24             	mov    %eax,(%esp)
  1027bf:	ff d2                	call   *%edx
  1027c1:	c9                   	leave  
  1027c2:	c3                   	ret    

001027c3 <_d_switch_string>:
  1027c3:	55                   	push   %ebp
  1027c4:	89 e5                	mov    %esp,%ebp
  1027c6:	81 ec a8 00 00 00    	sub    $0xa8,%esp
  1027cc:	c7 45 f8 00 00 00 00 	movl   $0x0,-0x8(%ebp)
  1027d3:	c7 45 f4 00 00 00 00 	movl   $0x0,-0xc(%ebp)
  1027da:	c7 45 f0 00 00 00 00 	movl   $0x0,-0x10(%ebp)
  1027e1:	c7 45 ec 00 00 00 00 	movl   $0x0,-0x14(%ebp)
  1027e8:	c7 45 e4 00 00 00 00 	movl   $0x0,-0x1c(%ebp)
  1027ef:	c7 45 e8 00 00 00 00 	movl   $0x0,-0x18(%ebp)
  1027f6:	c7 45 f8 00 00 00 00 	movl   $0x0,-0x8(%ebp)
  1027fd:	8b 45 08             	mov    0x8(%ebp),%eax
  102800:	89 45 f4             	mov    %eax,-0xc(%ebp)
  102803:	83 7d f4 00          	cmpl   $0x0,-0xc(%ebp)
  102807:	0f 84 5d 02 00 00    	je     102a6a <_d_switch_string+0x2a7>
  10280d:	8b 45 10             	mov    0x10(%ebp),%eax
  102810:	89 85 74 ff ff ff    	mov    %eax,-0x8c(%ebp)
  102816:	8b 55 0c             	mov    0xc(%ebp),%edx
  102819:	89 95 78 ff ff ff    	mov    %edx,-0x88(%ebp)
  10281f:	8b 45 08             	mov    0x8(%ebp),%eax
  102822:	85 c0                	test   %eax,%eax
  102824:	75 2a                	jne    102850 <_d_switch_string+0x8d>
  102826:	c7 45 80 19 00 00 00 	movl   $0x19,-0x80(%ebp)
  10282d:	c7 45 84 e0 64 10 00 	movl   $0x1064e0,-0x7c(%ebp)
  102834:	c7 44 24 08 a9 00 00 	movl   $0xa9,0x8(%esp)
  10283b:	00 
  10283c:	8b 45 80             	mov    -0x80(%ebp),%eax
  10283f:	8b 55 84             	mov    -0x7c(%ebp),%edx
  102842:	89 04 24             	mov    %eax,(%esp)
  102845:	89 54 24 04          	mov    %edx,0x4(%esp)
  102849:	e8 54 07 00 00       	call   102fa2 <_d_array_bounds>
  10284e:	eb 0a                	jmp    10285a <_d_switch_string+0x97>
  102850:	c7 85 7c ff ff ff 00 	movl   $0x0,-0x84(%ebp)
  102857:	00 00 00 
  10285a:	8b 85 78 ff ff ff    	mov    -0x88(%ebp),%eax
  102860:	03 85 7c ff ff ff    	add    -0x84(%ebp),%eax
  102866:	8b 00                	mov    (%eax),%eax
  102868:	39 85 74 ff ff ff    	cmp    %eax,-0x8c(%ebp)
  10286e:	0f 82 f6 01 00 00    	jb     102a6a <_d_switch_string+0x2a7>
  102874:	8b 55 10             	mov    0x10(%ebp),%edx
  102877:	89 55 88             	mov    %edx,-0x78(%ebp)
  10287a:	8b 4d 0c             	mov    0xc(%ebp),%ecx
  10287d:	89 4d 8c             	mov    %ecx,-0x74(%ebp)
  102880:	8b 45 f4             	mov    -0xc(%ebp),%eax
  102883:	83 e8 01             	sub    $0x1,%eax
  102886:	89 45 94             	mov    %eax,-0x6c(%ebp)
  102889:	8b 45 08             	mov    0x8(%ebp),%eax
  10288c:	39 45 94             	cmp    %eax,-0x6c(%ebp)
  10288f:	73 0b                	jae    10289c <_d_switch_string+0xd9>
  102891:	8b 45 94             	mov    -0x6c(%ebp),%eax
  102894:	c1 e0 03             	shl    $0x3,%eax
  102897:	89 45 90             	mov    %eax,-0x70(%ebp)
  10289a:	eb 28                	jmp    1028c4 <_d_switch_string+0x101>
  10289c:	c7 45 98 19 00 00 00 	movl   $0x19,-0x68(%ebp)
  1028a3:	c7 45 9c e0 64 10 00 	movl   $0x1064e0,-0x64(%ebp)
  1028aa:	c7 44 24 08 aa 00 00 	movl   $0xaa,0x8(%esp)
  1028b1:	00 
  1028b2:	8b 55 98             	mov    -0x68(%ebp),%edx
  1028b5:	8b 4d 9c             	mov    -0x64(%ebp),%ecx
  1028b8:	89 14 24             	mov    %edx,(%esp)
  1028bb:	89 4c 24 04          	mov    %ecx,0x4(%esp)
  1028bf:	e8 de 06 00 00       	call   102fa2 <_d_array_bounds>
  1028c4:	8b 45 8c             	mov    -0x74(%ebp),%eax
  1028c7:	03 45 90             	add    -0x70(%ebp),%eax
  1028ca:	8b 00                	mov    (%eax),%eax
  1028cc:	39 45 88             	cmp    %eax,-0x78(%ebp)
  1028cf:	0f 87 95 01 00 00    	ja     102a6a <_d_switch_string+0x2a7>
  1028d5:	8b 45 10             	mov    0x10(%ebp),%eax
  1028d8:	85 c0                	test   %eax,%eax
  1028da:	75 0c                	jne    1028e8 <_d_switch_string+0x125>
  1028dc:	c7 45 a4 00 00 00 00 	movl   $0x0,-0x5c(%ebp)
  1028e3:	e9 89 01 00 00       	jmp    102a71 <_d_switch_string+0x2ae>
  1028e8:	8b 4d 14             	mov    0x14(%ebp),%ecx
  1028eb:	89 4d a8             	mov    %ecx,-0x58(%ebp)
  1028ee:	8b 45 10             	mov    0x10(%ebp),%eax
  1028f1:	85 c0                	test   %eax,%eax
  1028f3:	75 2a                	jne    10291f <_d_switch_string+0x15c>
  1028f5:	c7 45 b0 19 00 00 00 	movl   $0x19,-0x50(%ebp)
  1028fc:	c7 45 b4 e0 64 10 00 	movl   $0x1064e0,-0x4c(%ebp)
  102903:	c7 44 24 08 af 00 00 	movl   $0xaf,0x8(%esp)
  10290a:	00 
  10290b:	8b 45 b0             	mov    -0x50(%ebp),%eax
  10290e:	8b 55 b4             	mov    -0x4c(%ebp),%edx
  102911:	89 04 24             	mov    %eax,(%esp)
  102914:	89 54 24 04          	mov    %edx,0x4(%esp)
  102918:	e8 85 06 00 00       	call   102fa2 <_d_array_bounds>
  10291d:	eb 07                	jmp    102926 <_d_switch_string+0x163>
  10291f:	c7 45 ac 00 00 00 00 	movl   $0x0,-0x54(%ebp)
  102926:	8b 45 a8             	mov    -0x58(%ebp),%eax
  102929:	03 45 ac             	add    -0x54(%ebp),%eax
  10292c:	0f b6 00             	movzbl (%eax),%eax
  10292f:	88 45 ff             	mov    %al,-0x1(%ebp)
  102932:	8b 45 f8             	mov    -0x8(%ebp),%eax
  102935:	3b 45 f4             	cmp    -0xc(%ebp),%eax
  102938:	0f 9c c0             	setl   %al
  10293b:	83 f0 01             	xor    $0x1,%eax
  10293e:	84 c0                	test   %al,%al
  102940:	0f 85 24 01 00 00    	jne    102a6a <_d_switch_string+0x2a7>
  102946:	8b 55 f4             	mov    -0xc(%ebp),%edx
  102949:	8b 45 f8             	mov    -0x8(%ebp),%eax
  10294c:	01 d0                	add    %edx,%eax
  10294e:	d1 f8                	sar    %eax
  102950:	89 45 f0             	mov    %eax,-0x10(%ebp)
  102953:	8b 55 0c             	mov    0xc(%ebp),%edx
  102956:	89 55 b8             	mov    %edx,-0x48(%ebp)
  102959:	8b 55 f0             	mov    -0x10(%ebp),%edx
  10295c:	8b 45 08             	mov    0x8(%ebp),%eax
  10295f:	39 c2                	cmp    %eax,%edx
  102961:	73 0b                	jae    10296e <_d_switch_string+0x1ab>
  102963:	8b 45 f0             	mov    -0x10(%ebp),%eax
  102966:	c1 e0 03             	shl    $0x3,%eax
  102969:	89 45 bc             	mov    %eax,-0x44(%ebp)
  10296c:	eb 28                	jmp    102996 <_d_switch_string+0x1d3>
  10296e:	c7 45 c0 19 00 00 00 	movl   $0x19,-0x40(%ebp)
  102975:	c7 45 c4 e0 64 10 00 	movl   $0x1064e0,-0x3c(%ebp)
  10297c:	c7 44 24 08 b4 00 00 	movl   $0xb4,0x8(%esp)
  102983:	00 
  102984:	8b 45 c0             	mov    -0x40(%ebp),%eax
  102987:	8b 55 c4             	mov    -0x3c(%ebp),%edx
  10298a:	89 04 24             	mov    %eax,(%esp)
  10298d:	89 54 24 04          	mov    %edx,0x4(%esp)
  102991:	e8 0c 06 00 00       	call   102fa2 <_d_array_bounds>
  102996:	8b 45 b8             	mov    -0x48(%ebp),%eax
  102999:	03 45 bc             	add    -0x44(%ebp),%eax
  10299c:	8b 50 04             	mov    0x4(%eax),%edx
  10299f:	8b 00                	mov    (%eax),%eax
  1029a1:	89 45 e4             	mov    %eax,-0x1c(%ebp)
  1029a4:	89 55 e8             	mov    %edx,-0x18(%ebp)
  1029a7:	8b 55 10             	mov    0x10(%ebp),%edx
  1029aa:	8b 45 e4             	mov    -0x1c(%ebp),%eax
  1029ad:	89 d1                	mov    %edx,%ecx
  1029af:	29 c1                	sub    %eax,%ecx
  1029b1:	89 c8                	mov    %ecx,%eax
  1029b3:	89 45 ec             	mov    %eax,-0x14(%ebp)
  1029b6:	83 7d ec 00          	cmpl   $0x0,-0x14(%ebp)
  1029ba:	0f 85 8b 00 00 00    	jne    102a4b <_d_switch_string+0x288>
  1029c0:	0f b6 45 ff          	movzbl -0x1(%ebp),%eax
  1029c4:	89 45 cc             	mov    %eax,-0x34(%ebp)
  1029c7:	8b 55 e8             	mov    -0x18(%ebp),%edx
  1029ca:	89 55 d0             	mov    %edx,-0x30(%ebp)
  1029cd:	8b 45 e4             	mov    -0x1c(%ebp),%eax
  1029d0:	85 c0                	test   %eax,%eax
  1029d2:	75 2a                	jne    1029fe <_d_switch_string+0x23b>
  1029d4:	c7 45 d8 19 00 00 00 	movl   $0x19,-0x28(%ebp)
  1029db:	c7 45 dc e0 64 10 00 	movl   $0x1064e0,-0x24(%ebp)
  1029e2:	c7 44 24 08 b7 00 00 	movl   $0xb7,0x8(%esp)
  1029e9:	00 
  1029ea:	8b 45 d8             	mov    -0x28(%ebp),%eax
  1029ed:	8b 55 dc             	mov    -0x24(%ebp),%edx
  1029f0:	89 04 24             	mov    %eax,(%esp)
  1029f3:	89 54 24 04          	mov    %edx,0x4(%esp)
  1029f7:	e8 a6 05 00 00       	call   102fa2 <_d_array_bounds>
  1029fc:	eb 07                	jmp    102a05 <_d_switch_string+0x242>
  1029fe:	c7 45 d4 00 00 00 00 	movl   $0x0,-0x2c(%ebp)
  102a05:	8b 45 d0             	mov    -0x30(%ebp),%eax
  102a08:	03 45 d4             	add    -0x2c(%ebp),%eax
  102a0b:	0f b6 00             	movzbl (%eax),%eax
  102a0e:	0f b6 c0             	movzbl %al,%eax
  102a11:	8b 55 cc             	mov    -0x34(%ebp),%edx
  102a14:	29 c2                	sub    %eax,%edx
  102a16:	89 d0                	mov    %edx,%eax
  102a18:	89 45 ec             	mov    %eax,-0x14(%ebp)
  102a1b:	83 7d ec 00          	cmpl   $0x0,-0x14(%ebp)
  102a1f:	75 2a                	jne    102a4b <_d_switch_string+0x288>
  102a21:	8b 45 10             	mov    0x10(%ebp),%eax
  102a24:	8b 55 e8             	mov    -0x18(%ebp),%edx
  102a27:	8b 4d 14             	mov    0x14(%ebp),%ecx
  102a2a:	89 44 24 08          	mov    %eax,0x8(%esp)
  102a2e:	89 54 24 04          	mov    %edx,0x4(%esp)
  102a32:	89 0c 24             	mov    %ecx,(%esp)
  102a35:	e8 23 19 00 00       	call   10435d <memcmp>
  102a3a:	89 45 ec             	mov    %eax,-0x14(%ebp)
  102a3d:	83 7d ec 00          	cmpl   $0x0,-0x14(%ebp)
  102a41:	75 08                	jne    102a4b <_d_switch_string+0x288>
  102a43:	8b 4d f0             	mov    -0x10(%ebp),%ecx
  102a46:	89 4d a4             	mov    %ecx,-0x5c(%ebp)
  102a49:	eb 26                	jmp    102a71 <_d_switch_string+0x2ae>
  102a4b:	83 7d ec 00          	cmpl   $0x0,-0x14(%ebp)
  102a4f:	79 0b                	jns    102a5c <_d_switch_string+0x299>
  102a51:	8b 45 f0             	mov    -0x10(%ebp),%eax
  102a54:	89 45 f4             	mov    %eax,-0xc(%ebp)
  102a57:	e9 d6 fe ff ff       	jmp    102932 <_d_switch_string+0x16f>
  102a5c:	8b 45 f0             	mov    -0x10(%ebp),%eax
  102a5f:	83 c0 01             	add    $0x1,%eax
  102a62:	89 45 f8             	mov    %eax,-0x8(%ebp)
  102a65:	e9 c8 fe ff ff       	jmp    102932 <_d_switch_string+0x16f>
  102a6a:	c7 45 a4 ff ff ff ff 	movl   $0xffffffff,-0x5c(%ebp)
  102a71:	8b 45 a4             	mov    -0x5c(%ebp),%eax
  102a74:	c9                   	leave  
  102a75:	c3                   	ret    

00102a76 <_d_switch_ustring>:
  102a76:	55                   	push   %ebp
  102a77:	89 e5                	mov    %esp,%ebp
  102a79:	83 ec 48             	sub    $0x48,%esp
  102a7c:	c7 45 fc 00 00 00 00 	movl   $0x0,-0x4(%ebp)
  102a83:	c7 45 f8 00 00 00 00 	movl   $0x0,-0x8(%ebp)
  102a8a:	c7 45 f4 00 00 00 00 	movl   $0x0,-0xc(%ebp)
  102a91:	c7 45 f0 00 00 00 00 	movl   $0x0,-0x10(%ebp)
  102a98:	c7 45 e8 00 00 00 00 	movl   $0x0,-0x18(%ebp)
  102a9f:	c7 45 ec 00 00 00 00 	movl   $0x0,-0x14(%ebp)
  102aa6:	c7 45 fc 00 00 00 00 	movl   $0x0,-0x4(%ebp)
  102aad:	8b 45 08             	mov    0x8(%ebp),%eax
  102ab0:	89 45 f8             	mov    %eax,-0x8(%ebp)
  102ab3:	8b 45 fc             	mov    -0x4(%ebp),%eax
  102ab6:	3b 45 f8             	cmp    -0x8(%ebp),%eax
  102ab9:	0f 9c c0             	setl   %al
  102abc:	83 f0 01             	xor    $0x1,%eax
  102abf:	84 c0                	test   %al,%al
  102ac1:	0f 85 c1 00 00 00    	jne    102b88 <_d_switch_ustring+0x112>
  102ac7:	8b 55 f8             	mov    -0x8(%ebp),%edx
  102aca:	8b 45 fc             	mov    -0x4(%ebp),%eax
  102acd:	01 d0                	add    %edx,%eax
  102acf:	d1 f8                	sar    %eax
  102ad1:	89 45 f4             	mov    %eax,-0xc(%ebp)
  102ad4:	8b 45 0c             	mov    0xc(%ebp),%eax
  102ad7:	89 45 c8             	mov    %eax,-0x38(%ebp)
  102ada:	8b 55 f4             	mov    -0xc(%ebp),%edx
  102add:	8b 45 08             	mov    0x8(%ebp),%eax
  102ae0:	39 c2                	cmp    %eax,%edx
  102ae2:	73 0b                	jae    102aef <_d_switch_ustring+0x79>
  102ae4:	8b 45 f4             	mov    -0xc(%ebp),%eax
  102ae7:	c1 e0 03             	shl    $0x3,%eax
  102aea:	89 45 cc             	mov    %eax,-0x34(%ebp)
  102aed:	eb 28                	jmp    102b17 <_d_switch_ustring+0xa1>
  102aef:	c7 45 d0 19 00 00 00 	movl   $0x19,-0x30(%ebp)
  102af6:	c7 45 d4 e0 64 10 00 	movl   $0x1064e0,-0x2c(%ebp)
  102afd:	c7 44 24 08 d8 00 00 	movl   $0xd8,0x8(%esp)
  102b04:	00 
  102b05:	8b 55 d0             	mov    -0x30(%ebp),%edx
  102b08:	8b 4d d4             	mov    -0x2c(%ebp),%ecx
  102b0b:	89 14 24             	mov    %edx,(%esp)
  102b0e:	89 4c 24 04          	mov    %ecx,0x4(%esp)
  102b12:	e8 8b 04 00 00       	call   102fa2 <_d_array_bounds>
  102b17:	8b 45 c8             	mov    -0x38(%ebp),%eax
  102b1a:	03 45 cc             	add    -0x34(%ebp),%eax
  102b1d:	8b 50 04             	mov    0x4(%eax),%edx
  102b20:	8b 00                	mov    (%eax),%eax
  102b22:	89 45 e8             	mov    %eax,-0x18(%ebp)
  102b25:	89 55 ec             	mov    %edx,-0x14(%ebp)
  102b28:	8b 55 10             	mov    0x10(%ebp),%edx
  102b2b:	8b 45 e8             	mov    -0x18(%ebp),%eax
  102b2e:	89 d1                	mov    %edx,%ecx
  102b30:	29 c1                	sub    %eax,%ecx
  102b32:	89 c8                	mov    %ecx,%eax
  102b34:	89 45 f0             	mov    %eax,-0x10(%ebp)
  102b37:	83 7d f0 00          	cmpl   $0x0,-0x10(%ebp)
  102b3b:	75 2c                	jne    102b69 <_d_switch_ustring+0xf3>
  102b3d:	8b 45 10             	mov    0x10(%ebp),%eax
  102b40:	01 c0                	add    %eax,%eax
  102b42:	8b 55 ec             	mov    -0x14(%ebp),%edx
  102b45:	8b 4d 14             	mov    0x14(%ebp),%ecx
  102b48:	89 44 24 08          	mov    %eax,0x8(%esp)
  102b4c:	89 54 24 04          	mov    %edx,0x4(%esp)
  102b50:	89 0c 24             	mov    %ecx,(%esp)
  102b53:	e8 05 18 00 00       	call   10435d <memcmp>
  102b58:	89 45 f0             	mov    %eax,-0x10(%ebp)
  102b5b:	83 7d f0 00          	cmpl   $0x0,-0x10(%ebp)
  102b5f:	75 08                	jne    102b69 <_d_switch_ustring+0xf3>
  102b61:	8b 45 f4             	mov    -0xc(%ebp),%eax
  102b64:	89 45 dc             	mov    %eax,-0x24(%ebp)
  102b67:	eb 26                	jmp    102b8f <_d_switch_ustring+0x119>
  102b69:	83 7d f0 00          	cmpl   $0x0,-0x10(%ebp)
  102b6d:	79 0b                	jns    102b7a <_d_switch_ustring+0x104>
  102b6f:	8b 45 f4             	mov    -0xc(%ebp),%eax
  102b72:	89 45 f8             	mov    %eax,-0x8(%ebp)
  102b75:	e9 39 ff ff ff       	jmp    102ab3 <_d_switch_ustring+0x3d>
  102b7a:	8b 45 f4             	mov    -0xc(%ebp),%eax
  102b7d:	83 c0 01             	add    $0x1,%eax
  102b80:	89 45 fc             	mov    %eax,-0x4(%ebp)
  102b83:	e9 2b ff ff ff       	jmp    102ab3 <_d_switch_ustring+0x3d>
  102b88:	c7 45 dc ff ff ff ff 	movl   $0xffffffff,-0x24(%ebp)
  102b8f:	8b 45 dc             	mov    -0x24(%ebp),%eax
  102b92:	c9                   	leave  
  102b93:	c3                   	ret    

00102b94 <_d_switch_dstring>:
  102b94:	55                   	push   %ebp
  102b95:	89 e5                	mov    %esp,%ebp
  102b97:	83 ec 48             	sub    $0x48,%esp
  102b9a:	c7 45 fc 00 00 00 00 	movl   $0x0,-0x4(%ebp)
  102ba1:	c7 45 f8 00 00 00 00 	movl   $0x0,-0x8(%ebp)
  102ba8:	c7 45 f4 00 00 00 00 	movl   $0x0,-0xc(%ebp)
  102baf:	c7 45 f0 00 00 00 00 	movl   $0x0,-0x10(%ebp)
  102bb6:	c7 45 e8 00 00 00 00 	movl   $0x0,-0x18(%ebp)
  102bbd:	c7 45 ec 00 00 00 00 	movl   $0x0,-0x14(%ebp)
  102bc4:	c7 45 fc 00 00 00 00 	movl   $0x0,-0x4(%ebp)
  102bcb:	8b 45 08             	mov    0x8(%ebp),%eax
  102bce:	89 45 f8             	mov    %eax,-0x8(%ebp)
  102bd1:	8b 45 fc             	mov    -0x4(%ebp),%eax
  102bd4:	3b 45 f8             	cmp    -0x8(%ebp),%eax
  102bd7:	0f 9c c0             	setl   %al
  102bda:	83 f0 01             	xor    $0x1,%eax
  102bdd:	84 c0                	test   %al,%al
  102bdf:	0f 85 c2 00 00 00    	jne    102ca7 <_d_switch_dstring+0x113>
  102be5:	8b 55 f8             	mov    -0x8(%ebp),%edx
  102be8:	8b 45 fc             	mov    -0x4(%ebp),%eax
  102beb:	01 d0                	add    %edx,%eax
  102bed:	d1 f8                	sar    %eax
  102bef:	89 45 f4             	mov    %eax,-0xc(%ebp)
  102bf2:	8b 45 0c             	mov    0xc(%ebp),%eax
  102bf5:	89 45 c8             	mov    %eax,-0x38(%ebp)
  102bf8:	8b 55 f4             	mov    -0xc(%ebp),%edx
  102bfb:	8b 45 08             	mov    0x8(%ebp),%eax
  102bfe:	39 c2                	cmp    %eax,%edx
  102c00:	73 0b                	jae    102c0d <_d_switch_dstring+0x79>
  102c02:	8b 45 f4             	mov    -0xc(%ebp),%eax
  102c05:	c1 e0 03             	shl    $0x3,%eax
  102c08:	89 45 cc             	mov    %eax,-0x34(%ebp)
  102c0b:	eb 28                	jmp    102c35 <_d_switch_dstring+0xa1>
  102c0d:	c7 45 d0 19 00 00 00 	movl   $0x19,-0x30(%ebp)
  102c14:	c7 45 d4 e0 64 10 00 	movl   $0x1064e0,-0x2c(%ebp)
  102c1b:	c7 44 24 08 f8 00 00 	movl   $0xf8,0x8(%esp)
  102c22:	00 
  102c23:	8b 55 d0             	mov    -0x30(%ebp),%edx
  102c26:	8b 4d d4             	mov    -0x2c(%ebp),%ecx
  102c29:	89 14 24             	mov    %edx,(%esp)
  102c2c:	89 4c 24 04          	mov    %ecx,0x4(%esp)
  102c30:	e8 6d 03 00 00       	call   102fa2 <_d_array_bounds>
  102c35:	8b 45 c8             	mov    -0x38(%ebp),%eax
  102c38:	03 45 cc             	add    -0x34(%ebp),%eax
  102c3b:	8b 50 04             	mov    0x4(%eax),%edx
  102c3e:	8b 00                	mov    (%eax),%eax
  102c40:	89 45 e8             	mov    %eax,-0x18(%ebp)
  102c43:	89 55 ec             	mov    %edx,-0x14(%ebp)
  102c46:	8b 55 10             	mov    0x10(%ebp),%edx
  102c49:	8b 45 e8             	mov    -0x18(%ebp),%eax
  102c4c:	89 d1                	mov    %edx,%ecx
  102c4e:	29 c1                	sub    %eax,%ecx
  102c50:	89 c8                	mov    %ecx,%eax
  102c52:	89 45 f0             	mov    %eax,-0x10(%ebp)
  102c55:	83 7d f0 00          	cmpl   $0x0,-0x10(%ebp)
  102c59:	75 2d                	jne    102c88 <_d_switch_dstring+0xf4>
  102c5b:	8b 45 10             	mov    0x10(%ebp),%eax
  102c5e:	c1 e0 02             	shl    $0x2,%eax
  102c61:	8b 55 ec             	mov    -0x14(%ebp),%edx
  102c64:	8b 4d 14             	mov    0x14(%ebp),%ecx
  102c67:	89 44 24 08          	mov    %eax,0x8(%esp)
  102c6b:	89 54 24 04          	mov    %edx,0x4(%esp)
  102c6f:	89 0c 24             	mov    %ecx,(%esp)
  102c72:	e8 e6 16 00 00       	call   10435d <memcmp>
  102c77:	89 45 f0             	mov    %eax,-0x10(%ebp)
  102c7a:	83 7d f0 00          	cmpl   $0x0,-0x10(%ebp)
  102c7e:	75 08                	jne    102c88 <_d_switch_dstring+0xf4>
  102c80:	8b 45 f4             	mov    -0xc(%ebp),%eax
  102c83:	89 45 dc             	mov    %eax,-0x24(%ebp)
  102c86:	eb 26                	jmp    102cae <_d_switch_dstring+0x11a>
  102c88:	83 7d f0 00          	cmpl   $0x0,-0x10(%ebp)
  102c8c:	79 0b                	jns    102c99 <_d_switch_dstring+0x105>
  102c8e:	8b 45 f4             	mov    -0xc(%ebp),%eax
  102c91:	89 45 f8             	mov    %eax,-0x8(%ebp)
  102c94:	e9 38 ff ff ff       	jmp    102bd1 <_d_switch_dstring+0x3d>
  102c99:	8b 45 f4             	mov    -0xc(%ebp),%eax
  102c9c:	83 c0 01             	add    $0x1,%eax
  102c9f:	89 45 fc             	mov    %eax,-0x4(%ebp)
  102ca2:	e9 2a ff ff ff       	jmp    102bd1 <_d_switch_dstring+0x3d>
  102ca7:	c7 45 dc ff ff ff ff 	movl   $0xffffffff,-0x24(%ebp)
  102cae:	8b 45 dc             	mov    -0x24(%ebp),%eax
  102cb1:	c9                   	leave  
  102cb2:	c3                   	ret    

00102cb3 <_d_arraycase>:
  102cb3:	55                   	push   %ebp
  102cb4:	89 e5                	mov    %esp,%ebp
  102cb6:	83 ec 14             	sub    $0x14,%esp
  102cb9:	8b 4d 08             	mov    0x8(%ebp),%ecx
  102cbc:	8b 45 14             	mov    0x14(%ebp),%eax
  102cbf:	89 45 fc             	mov    %eax,-0x4(%ebp)
  102cc2:	c7 45 f8 00 00 00 00 	movl   $0x0,-0x8(%ebp)
  102cc9:	8b 45 fc             	mov    -0x4(%ebp),%eax
  102ccc:	0f af 45 10          	imul   0x10(%ebp),%eax
  102cd0:	89 45 f8             	mov    %eax,-0x8(%ebp)
  102cd3:	8b 45 f8             	mov    -0x8(%ebp),%eax
  102cd6:	ba 00 00 00 00       	mov    $0x0,%edx
  102cdb:	f7 75 0c             	divl   0xc(%ebp)
  102cde:	89 45 fc             	mov    %eax,-0x4(%ebp)
  102ce1:	8d 55 14             	lea    0x14(%ebp),%edx
  102ce4:	8b 45 fc             	mov    -0x4(%ebp),%eax
  102ce7:	89 02                	mov    %eax,(%edx)
  102ce9:	8b 45 14             	mov    0x14(%ebp),%eax
  102cec:	8b 55 18             	mov    0x18(%ebp),%edx
  102cef:	89 01                	mov    %eax,(%ecx)
  102cf1:	89 51 04             	mov    %edx,0x4(%ecx)
  102cf4:	89 c8                	mov    %ecx,%eax
  102cf6:	c9                   	leave  
  102cf7:	c2 04 00             	ret    $0x4

00102cfa <_d_array_init_i1>:
  102cfa:	55                   	push   %ebp
  102cfb:	89 e5                	mov    %esp,%ebp
  102cfd:	83 ec 10             	sub    $0x10,%esp
  102d00:	8b 45 08             	mov    0x8(%ebp),%eax
  102d03:	89 45 fc             	mov    %eax,-0x4(%ebp)
  102d06:	8b 45 0c             	mov    0xc(%ebp),%eax
  102d09:	03 45 08             	add    0x8(%ebp),%eax
  102d0c:	89 45 f8             	mov    %eax,-0x8(%ebp)
  102d0f:	8b 45 fc             	mov    -0x4(%ebp),%eax
  102d12:	3b 45 f8             	cmp    -0x8(%ebp),%eax
  102d15:	0f 95 c0             	setne  %al
  102d18:	83 f0 01             	xor    $0x1,%eax
  102d1b:	84 c0                	test   %al,%al
  102d1d:	75 0f                	jne    102d2e <_d_array_init_i1+0x34>
  102d1f:	8b 55 fc             	mov    -0x4(%ebp),%edx
  102d22:	0f b6 45 10          	movzbl 0x10(%ebp),%eax
  102d26:	88 02                	mov    %al,(%edx)
  102d28:	83 45 fc 01          	addl   $0x1,-0x4(%ebp)
  102d2c:	eb e1                	jmp    102d0f <_d_array_init_i1+0x15>
  102d2e:	c9                   	leave  
  102d2f:	c3                   	ret    

00102d30 <_d_array_init_i8>:
  102d30:	55                   	push   %ebp
  102d31:	89 e5                	mov    %esp,%ebp
  102d33:	83 ec 10             	sub    $0x10,%esp
  102d36:	8b 45 08             	mov    0x8(%ebp),%eax
  102d39:	89 45 fc             	mov    %eax,-0x4(%ebp)
  102d3c:	8b 45 0c             	mov    0xc(%ebp),%eax
  102d3f:	03 45 08             	add    0x8(%ebp),%eax
  102d42:	89 45 f8             	mov    %eax,-0x8(%ebp)
  102d45:	8b 45 fc             	mov    -0x4(%ebp),%eax
  102d48:	3b 45 f8             	cmp    -0x8(%ebp),%eax
  102d4b:	0f 95 c0             	setne  %al
  102d4e:	83 f0 01             	xor    $0x1,%eax
  102d51:	84 c0                	test   %al,%al
  102d53:	75 0f                	jne    102d64 <_d_array_init_i8+0x34>
  102d55:	8b 55 fc             	mov    -0x4(%ebp),%edx
  102d58:	0f b6 45 10          	movzbl 0x10(%ebp),%eax
  102d5c:	88 02                	mov    %al,(%edx)
  102d5e:	83 45 fc 01          	addl   $0x1,-0x4(%ebp)
  102d62:	eb e1                	jmp    102d45 <_d_array_init_i8+0x15>
  102d64:	c9                   	leave  
  102d65:	c3                   	ret    

00102d66 <_d_array_init_i16>:
  102d66:	55                   	push   %ebp
  102d67:	89 e5                	mov    %esp,%ebp
  102d69:	83 ec 10             	sub    $0x10,%esp
  102d6c:	8b 45 08             	mov    0x8(%ebp),%eax
  102d6f:	89 45 fc             	mov    %eax,-0x4(%ebp)
  102d72:	8b 45 0c             	mov    0xc(%ebp),%eax
  102d75:	01 c0                	add    %eax,%eax
  102d77:	03 45 08             	add    0x8(%ebp),%eax
  102d7a:	89 45 f8             	mov    %eax,-0x8(%ebp)
  102d7d:	8b 45 fc             	mov    -0x4(%ebp),%eax
  102d80:	3b 45 f8             	cmp    -0x8(%ebp),%eax
  102d83:	0f 95 c0             	setne  %al
  102d86:	83 f0 01             	xor    $0x1,%eax
  102d89:	84 c0                	test   %al,%al
  102d8b:	75 10                	jne    102d9d <_d_array_init_i16+0x37>
  102d8d:	8b 55 fc             	mov    -0x4(%ebp),%edx
  102d90:	0f b7 45 10          	movzwl 0x10(%ebp),%eax
  102d94:	66 89 02             	mov    %ax,(%edx)
  102d97:	83 45 fc 02          	addl   $0x2,-0x4(%ebp)
  102d9b:	eb e0                	jmp    102d7d <_d_array_init_i16+0x17>
  102d9d:	c9                   	leave  
  102d9e:	c3                   	ret    

00102d9f <_d_array_init_i32>:
  102d9f:	55                   	push   %ebp
  102da0:	89 e5                	mov    %esp,%ebp
  102da2:	83 ec 10             	sub    $0x10,%esp
  102da5:	8b 45 08             	mov    0x8(%ebp),%eax
  102da8:	89 45 fc             	mov    %eax,-0x4(%ebp)
  102dab:	8b 45 0c             	mov    0xc(%ebp),%eax
  102dae:	c1 e0 02             	shl    $0x2,%eax
  102db1:	03 45 08             	add    0x8(%ebp),%eax
  102db4:	89 45 f8             	mov    %eax,-0x8(%ebp)
  102db7:	8b 45 fc             	mov    -0x4(%ebp),%eax
  102dba:	3b 45 f8             	cmp    -0x8(%ebp),%eax
  102dbd:	0f 95 c0             	setne  %al
  102dc0:	83 f0 01             	xor    $0x1,%eax
  102dc3:	84 c0                	test   %al,%al
  102dc5:	75 0e                	jne    102dd5 <_d_array_init_i32+0x36>
  102dc7:	8b 55 fc             	mov    -0x4(%ebp),%edx
  102dca:	8b 45 10             	mov    0x10(%ebp),%eax
  102dcd:	89 02                	mov    %eax,(%edx)
  102dcf:	83 45 fc 04          	addl   $0x4,-0x4(%ebp)
  102dd3:	eb e2                	jmp    102db7 <_d_array_init_i32+0x18>
  102dd5:	c9                   	leave  
  102dd6:	c3                   	ret    

00102dd7 <_d_array_init_i64>:
  102dd7:	55                   	push   %ebp
  102dd8:	89 e5                	mov    %esp,%ebp
  102dda:	83 ec 18             	sub    $0x18,%esp
  102ddd:	8b 45 10             	mov    0x10(%ebp),%eax
  102de0:	89 45 e8             	mov    %eax,-0x18(%ebp)
  102de3:	8b 45 14             	mov    0x14(%ebp),%eax
  102de6:	89 45 ec             	mov    %eax,-0x14(%ebp)
  102de9:	8b 45 08             	mov    0x8(%ebp),%eax
  102dec:	89 45 fc             	mov    %eax,-0x4(%ebp)
  102def:	8b 45 0c             	mov    0xc(%ebp),%eax
  102df2:	c1 e0 03             	shl    $0x3,%eax
  102df5:	03 45 08             	add    0x8(%ebp),%eax
  102df8:	89 45 f8             	mov    %eax,-0x8(%ebp)
  102dfb:	8b 45 fc             	mov    -0x4(%ebp),%eax
  102dfe:	3b 45 f8             	cmp    -0x8(%ebp),%eax
  102e01:	0f 95 c0             	setne  %al
  102e04:	83 f0 01             	xor    $0x1,%eax
  102e07:	84 c0                	test   %al,%al
  102e09:	75 14                	jne    102e1f <_d_array_init_i64+0x48>
  102e0b:	8b 4d fc             	mov    -0x4(%ebp),%ecx
  102e0e:	8b 45 e8             	mov    -0x18(%ebp),%eax
  102e11:	8b 55 ec             	mov    -0x14(%ebp),%edx
  102e14:	89 01                	mov    %eax,(%ecx)
  102e16:	89 51 04             	mov    %edx,0x4(%ecx)
  102e19:	83 45 fc 08          	addl   $0x8,-0x4(%ebp)
  102e1d:	eb dc                	jmp    102dfb <_d_array_init_i64+0x24>
  102e1f:	c9                   	leave  
  102e20:	c3                   	ret    

00102e21 <_d_array_init_float>:
  102e21:	55                   	push   %ebp
  102e22:	89 e5                	mov    %esp,%ebp
  102e24:	83 ec 10             	sub    $0x10,%esp
  102e27:	8b 45 08             	mov    0x8(%ebp),%eax
  102e2a:	89 45 fc             	mov    %eax,-0x4(%ebp)
  102e2d:	8b 45 0c             	mov    0xc(%ebp),%eax
  102e30:	c1 e0 02             	shl    $0x2,%eax
  102e33:	03 45 08             	add    0x8(%ebp),%eax
  102e36:	89 45 f8             	mov    %eax,-0x8(%ebp)
  102e39:	8b 45 fc             	mov    -0x4(%ebp),%eax
  102e3c:	3b 45 f8             	cmp    -0x8(%ebp),%eax
  102e3f:	0f 95 c0             	setne  %al
  102e42:	83 f0 01             	xor    $0x1,%eax
  102e45:	84 c0                	test   %al,%al
  102e47:	75 0e                	jne    102e57 <_d_array_init_float+0x36>
  102e49:	8b 55 fc             	mov    -0x4(%ebp),%edx
  102e4c:	8b 45 10             	mov    0x10(%ebp),%eax
  102e4f:	89 02                	mov    %eax,(%edx)
  102e51:	83 45 fc 04          	addl   $0x4,-0x4(%ebp)
  102e55:	eb e2                	jmp    102e39 <_d_array_init_float+0x18>
  102e57:	c9                   	leave  
  102e58:	c3                   	ret    

00102e59 <_d_array_init_double>:
  102e59:	55                   	push   %ebp
  102e5a:	89 e5                	mov    %esp,%ebp
  102e5c:	83 ec 18             	sub    $0x18,%esp
  102e5f:	8b 45 10             	mov    0x10(%ebp),%eax
  102e62:	89 45 e8             	mov    %eax,-0x18(%ebp)
  102e65:	8b 45 14             	mov    0x14(%ebp),%eax
  102e68:	89 45 ec             	mov    %eax,-0x14(%ebp)
  102e6b:	8b 45 08             	mov    0x8(%ebp),%eax
  102e6e:	89 45 fc             	mov    %eax,-0x4(%ebp)
  102e71:	8b 45 0c             	mov    0xc(%ebp),%eax
  102e74:	c1 e0 03             	shl    $0x3,%eax
  102e77:	03 45 08             	add    0x8(%ebp),%eax
  102e7a:	89 45 f8             	mov    %eax,-0x8(%ebp)
  102e7d:	8b 45 fc             	mov    -0x4(%ebp),%eax
  102e80:	3b 45 f8             	cmp    -0x8(%ebp),%eax
  102e83:	0f 95 c0             	setne  %al
  102e86:	83 f0 01             	xor    $0x1,%eax
  102e89:	84 c0                	test   %al,%al
  102e8b:	75 0e                	jne    102e9b <_d_array_init_double+0x42>
  102e8d:	8b 45 fc             	mov    -0x4(%ebp),%eax
  102e90:	dd 45 e8             	fldl   -0x18(%ebp)
  102e93:	dd 18                	fstpl  (%eax)
  102e95:	83 45 fc 08          	addl   $0x8,-0x4(%ebp)
  102e99:	eb e2                	jmp    102e7d <_d_array_init_double+0x24>
  102e9b:	c9                   	leave  
  102e9c:	c3                   	ret    

00102e9d <_d_array_init_pointer>:
  102e9d:	55                   	push   %ebp
  102e9e:	89 e5                	mov    %esp,%ebp
  102ea0:	83 ec 10             	sub    $0x10,%esp
  102ea3:	8b 45 08             	mov    0x8(%ebp),%eax
  102ea6:	89 45 fc             	mov    %eax,-0x4(%ebp)
  102ea9:	8b 45 0c             	mov    0xc(%ebp),%eax
  102eac:	c1 e0 02             	shl    $0x2,%eax
  102eaf:	03 45 08             	add    0x8(%ebp),%eax
  102eb2:	89 45 f8             	mov    %eax,-0x8(%ebp)
  102eb5:	8b 45 fc             	mov    -0x4(%ebp),%eax
  102eb8:	3b 45 f8             	cmp    -0x8(%ebp),%eax
  102ebb:	0f 95 c0             	setne  %al
  102ebe:	83 f0 01             	xor    $0x1,%eax
  102ec1:	84 c0                	test   %al,%al
  102ec3:	75 0e                	jne    102ed3 <_d_array_init_pointer+0x36>
  102ec5:	8b 55 fc             	mov    -0x4(%ebp),%edx
  102ec8:	8b 45 10             	mov    0x10(%ebp),%eax
  102ecb:	89 02                	mov    %eax,(%edx)
  102ecd:	83 45 fc 04          	addl   $0x4,-0x4(%ebp)
  102ed1:	eb e2                	jmp    102eb5 <_d_array_init_pointer+0x18>
  102ed3:	c9                   	leave  
  102ed4:	c3                   	ret    

00102ed5 <_d_array_init_mem>:
  102ed5:	55                   	push   %ebp
  102ed6:	89 e5                	mov    %esp,%ebp
  102ed8:	83 ec 28             	sub    $0x28,%esp
  102edb:	8b 45 08             	mov    0x8(%ebp),%eax
  102ede:	89 45 fc             	mov    %eax,-0x4(%ebp)
  102ee1:	8b 45 0c             	mov    0xc(%ebp),%eax
  102ee4:	0f af 45 14          	imul   0x14(%ebp),%eax
  102ee8:	03 45 08             	add    0x8(%ebp),%eax
  102eeb:	89 45 f8             	mov    %eax,-0x8(%ebp)
  102eee:	8b 45 fc             	mov    -0x4(%ebp),%eax
  102ef1:	3b 45 f8             	cmp    -0x8(%ebp),%eax
  102ef4:	0f 95 c0             	setne  %al
  102ef7:	83 f0 01             	xor    $0x1,%eax
  102efa:	84 c0                	test   %al,%al
  102efc:	75 21                	jne    102f1f <_d_array_init_mem+0x4a>
  102efe:	8b 45 14             	mov    0x14(%ebp),%eax
  102f01:	89 44 24 08          	mov    %eax,0x8(%esp)
  102f05:	8b 45 10             	mov    0x10(%ebp),%eax
  102f08:	89 44 24 04          	mov    %eax,0x4(%esp)
  102f0c:	8b 45 fc             	mov    -0x4(%ebp),%eax
  102f0f:	89 04 24             	mov    %eax,(%esp)
  102f12:	e8 ae 13 00 00       	call   1042c5 <memcpy>
  102f17:	8b 45 14             	mov    0x14(%ebp),%eax
  102f1a:	01 45 fc             	add    %eax,-0x4(%ebp)
  102f1d:	eb cf                	jmp    102eee <_d_array_init_mem+0x19>
  102f1f:	c9                   	leave  
  102f20:	c3                   	ret    

00102f21 <_d_array_cast_len>:
  102f21:	55                   	push   %ebp
  102f22:	89 e5                	mov    %esp,%ebp
  102f24:	83 ec 08             	sub    $0x8,%esp
  102f27:	83 7d 10 01          	cmpl   $0x1,0x10(%ebp)
  102f2b:	75 0e                	jne    102f3b <_d_array_cast_len+0x1a>
  102f2d:	8b 45 08             	mov    0x8(%ebp),%eax
  102f30:	89 c2                	mov    %eax,%edx
  102f32:	0f af 55 0c          	imul   0xc(%ebp),%edx
  102f36:	89 55 fc             	mov    %edx,-0x4(%ebp)
  102f39:	eb 12                	jmp    102f4d <_d_array_cast_len+0x2c>
  102f3b:	8b 45 08             	mov    0x8(%ebp),%eax
  102f3e:	0f af 45 0c          	imul   0xc(%ebp),%eax
  102f42:	ba 00 00 00 00       	mov    $0x0,%edx
  102f47:	f7 75 10             	divl   0x10(%ebp)
  102f4a:	89 45 fc             	mov    %eax,-0x4(%ebp)
  102f4d:	8b 45 fc             	mov    -0x4(%ebp),%eax
  102f50:	c9                   	leave  
  102f51:	c3                   	ret    

00102f52 <_d_assert>:
  102f52:	55                   	push   %ebp
  102f53:	89 e5                	mov    %esp,%ebp
  102f55:	83 ec 18             	sub    $0x18,%esp
  102f58:	8b 45 10             	mov    0x10(%ebp),%eax
  102f5b:	89 44 24 08          	mov    %eax,0x8(%esp)
  102f5f:	8b 45 08             	mov    0x8(%ebp),%eax
  102f62:	8b 55 0c             	mov    0xc(%ebp),%edx
  102f65:	89 04 24             	mov    %eax,(%esp)
  102f68:	89 54 24 04          	mov    %edx,0x4(%esp)
  102f6c:	e8 73 00 00 00       	call   102fe4 <onAssertError>
  102f71:	c9                   	leave  
  102f72:	c3                   	ret    

00102f73 <_d_assert_msg>:
  102f73:	55                   	push   %ebp
  102f74:	89 e5                	mov    %esp,%ebp
  102f76:	83 ec 18             	sub    $0x18,%esp
  102f79:	8b 45 08             	mov    0x8(%ebp),%eax
  102f7c:	8b 55 0c             	mov    0xc(%ebp),%edx
  102f7f:	89 44 24 0c          	mov    %eax,0xc(%esp)
  102f83:	89 54 24 10          	mov    %edx,0x10(%esp)
  102f87:	8b 45 18             	mov    0x18(%ebp),%eax
  102f8a:	89 44 24 08          	mov    %eax,0x8(%esp)
  102f8e:	8b 45 10             	mov    0x10(%ebp),%eax
  102f91:	8b 55 14             	mov    0x14(%ebp),%edx
  102f94:	89 04 24             	mov    %eax,(%esp)
  102f97:	89 54 24 04          	mov    %edx,0x4(%esp)
  102f9b:	e8 4c 00 00 00       	call   102fec <onAssertErrorMsg>
  102fa0:	c9                   	leave  
  102fa1:	c3                   	ret    

00102fa2 <_d_array_bounds>:
  102fa2:	55                   	push   %ebp
  102fa3:	89 e5                	mov    %esp,%ebp
  102fa5:	83 ec 18             	sub    $0x18,%esp
  102fa8:	8b 45 10             	mov    0x10(%ebp),%eax
  102fab:	89 44 24 08          	mov    %eax,0x8(%esp)
  102faf:	8b 45 08             	mov    0x8(%ebp),%eax
  102fb2:	8b 55 0c             	mov    0xc(%ebp),%edx
  102fb5:	89 04 24             	mov    %eax,(%esp)
  102fb8:	89 54 24 04          	mov    %edx,0x4(%esp)
  102fbc:	e8 33 00 00 00       	call   102ff4 <onArrayBoundsError>
  102fc1:	c9                   	leave  
  102fc2:	c3                   	ret    

00102fc3 <_d_switch_error>:
  102fc3:	55                   	push   %ebp
  102fc4:	89 e5                	mov    %esp,%ebp
  102fc6:	83 ec 18             	sub    $0x18,%esp
  102fc9:	8b 45 10             	mov    0x10(%ebp),%eax
  102fcc:	89 44 24 08          	mov    %eax,0x8(%esp)
  102fd0:	8b 45 08             	mov    0x8(%ebp),%eax
  102fd3:	8b 55 0c             	mov    0xc(%ebp),%edx
  102fd6:	89 04 24             	mov    %eax,(%esp)
  102fd9:	89 54 24 04          	mov    %edx,0x4(%esp)
  102fdd:	e8 1a 00 00 00       	call   102ffc <onSwitchError>
  102fe2:	c9                   	leave  
  102fe3:	c3                   	ret    

00102fe4 <onAssertError>:
  102fe4:	55                   	push   %ebp
  102fe5:	89 e5                	mov    %esp,%ebp
  102fe7:	f4                   	hlt    
  102fe8:	eb fd                	jmp    102fe7 <onAssertError+0x3>
  102fea:	5d                   	pop    %ebp
  102feb:	c3                   	ret    

00102fec <onAssertErrorMsg>:
  102fec:	55                   	push   %ebp
  102fed:	89 e5                	mov    %esp,%ebp
  102fef:	f4                   	hlt    
  102ff0:	eb fd                	jmp    102fef <onAssertErrorMsg+0x3>
  102ff2:	5d                   	pop    %ebp
  102ff3:	c3                   	ret    

00102ff4 <onArrayBoundsError>:
  102ff4:	55                   	push   %ebp
  102ff5:	89 e5                	mov    %esp,%ebp
  102ff7:	f4                   	hlt    
  102ff8:	eb fd                	jmp    102ff7 <onArrayBoundsError+0x3>
  102ffa:	5d                   	pop    %ebp
  102ffb:	c3                   	ret    

00102ffc <onSwitchError>:
  102ffc:	55                   	push   %ebp
  102ffd:	89 e5                	mov    %esp,%ebp
  102fff:	f4                   	hlt    
  103000:	eb fd                	jmp    102fff <onSwitchError+0x3>
  103002:	5d                   	pop    %ebp
  103003:	c3                   	ret    

00103004 <_adReverseChar>:
  103004:	55                   	push   %ebp
  103005:	89 e5                	mov    %esp,%ebp
  103007:	53                   	push   %ebx
  103008:	81 ec 94 00 00 00    	sub    $0x94,%esp
  10300e:	8b 45 0c             	mov    0xc(%ebp),%eax
  103011:	83 f8 01             	cmp    $0x1,%eax
  103014:	0f 86 05 03 00 00    	jbe    10331f <_adReverseChar+0x31b>
  10301a:	c7 85 78 ff ff ff 06 	movl   $0x6,-0x88(%ebp)
  103021:	00 00 00 
  103024:	8d 45 cc             	lea    -0x34(%ebp),%eax
  103027:	89 85 7c ff ff ff    	mov    %eax,-0x84(%ebp)
  10302d:	8b 85 78 ff ff ff    	mov    -0x88(%ebp),%eax
  103033:	89 45 bc             	mov    %eax,-0x44(%ebp)
  103036:	8b 95 7c ff ff ff    	mov    -0x84(%ebp),%edx
  10303c:	89 55 b8             	mov    %edx,-0x48(%ebp)
  10303f:	83 7d bc 00          	cmpl   $0x0,-0x44(%ebp)
  103043:	0f 95 c0             	setne  %al
  103046:	83 f0 01             	xor    $0x1,%eax
  103049:	84 c0                	test   %al,%al
  10304b:	75 10                	jne    10305d <_adReverseChar+0x59>
  10304d:	8b 4d b8             	mov    -0x48(%ebp),%ecx
  103050:	c6 01 ff             	movb   $0xff,(%ecx)
  103053:	83 45 b8 01          	addl   $0x1,-0x48(%ebp)
  103057:	83 6d bc 01          	subl   $0x1,-0x44(%ebp)
  10305b:	eb e2                	jmp    10303f <_adReverseChar+0x3b>
  10305d:	c7 45 80 06 00 00 00 	movl   $0x6,-0x80(%ebp)
  103064:	8d 45 d2             	lea    -0x2e(%ebp),%eax
  103067:	89 45 84             	mov    %eax,-0x7c(%ebp)
  10306a:	8b 5d 80             	mov    -0x80(%ebp),%ebx
  10306d:	89 5d c4             	mov    %ebx,-0x3c(%ebp)
  103070:	8b 45 84             	mov    -0x7c(%ebp),%eax
  103073:	89 45 c0             	mov    %eax,-0x40(%ebp)
  103076:	83 7d c4 00          	cmpl   $0x0,-0x3c(%ebp)
  10307a:	0f 95 c0             	setne  %al
  10307d:	83 f0 01             	xor    $0x1,%eax
  103080:	84 c0                	test   %al,%al
  103082:	75 10                	jne    103094 <_adReverseChar+0x90>
  103084:	8b 55 c0             	mov    -0x40(%ebp),%edx
  103087:	c6 02 ff             	movb   $0xff,(%edx)
  10308a:	83 45 c0 01          	addl   $0x1,-0x40(%ebp)
  10308e:	83 6d c4 01          	subl   $0x1,-0x3c(%ebp)
  103092:	eb e2                	jmp    103076 <_adReverseChar+0x72>
  103094:	8b 45 10             	mov    0x10(%ebp),%eax
  103097:	89 45 e4             	mov    %eax,-0x1c(%ebp)
  10309a:	8b 4d 10             	mov    0x10(%ebp),%ecx
  10309d:	89 4d 8c             	mov    %ecx,-0x74(%ebp)
  1030a0:	8b 45 0c             	mov    0xc(%ebp),%eax
  1030a3:	89 45 e8             	mov    %eax,-0x18(%ebp)
  1030a6:	8b 45 e8             	mov    -0x18(%ebp),%eax
  1030a9:	83 e8 01             	sub    $0x1,%eax
  1030ac:	89 45 94             	mov    %eax,-0x6c(%ebp)
  1030af:	8b 45 0c             	mov    0xc(%ebp),%eax
  1030b2:	39 45 94             	cmp    %eax,-0x6c(%ebp)
  1030b5:	73 08                	jae    1030bf <_adReverseChar+0xbb>
  1030b7:	8b 5d 94             	mov    -0x6c(%ebp),%ebx
  1030ba:	89 5d 90             	mov    %ebx,-0x70(%ebp)
  1030bd:	eb 28                	jmp    1030e7 <_adReverseChar+0xe3>
  1030bf:	c7 45 98 19 00 00 00 	movl   $0x19,-0x68(%ebp)
  1030c6:	c7 45 9c e0 64 10 00 	movl   $0x1064e0,-0x64(%ebp)
  1030cd:	c7 44 24 08 85 01 00 	movl   $0x185,0x8(%esp)
  1030d4:	00 
  1030d5:	8b 45 98             	mov    -0x68(%ebp),%eax
  1030d8:	8b 55 9c             	mov    -0x64(%ebp),%edx
  1030db:	89 04 24             	mov    %eax,(%esp)
  1030de:	89 54 24 04          	mov    %edx,0x4(%esp)
  1030e2:	e8 bb fe ff ff       	call   102fa2 <_d_array_bounds>
  1030e7:	8b 45 90             	mov    -0x70(%ebp),%eax
  1030ea:	03 45 8c             	add    -0x74(%ebp),%eax
  1030ed:	89 45 e0             	mov    %eax,-0x20(%ebp)
  1030f0:	8b 45 e4             	mov    -0x1c(%ebp),%eax
  1030f3:	3b 45 e0             	cmp    -0x20(%ebp),%eax
  1030f6:	0f 92 c0             	setb   %al
  1030f9:	83 f0 01             	xor    $0x1,%eax
  1030fc:	84 c0                	test   %al,%al
  1030fe:	0f 85 1b 02 00 00    	jne    10331f <_adReverseChar+0x31b>
  103104:	8b 45 e4             	mov    -0x1c(%ebp),%eax
  103107:	0f b6 00             	movzbl (%eax),%eax
  10310a:	88 45 f7             	mov    %al,-0x9(%ebp)
  10310d:	8b 45 e0             	mov    -0x20(%ebp),%eax
  103110:	0f b6 00             	movzbl (%eax),%eax
  103113:	88 45 f6             	mov    %al,-0xa(%ebp)
  103116:	0f b6 45 f7          	movzbl -0x9(%ebp),%eax
  10311a:	83 f8 7f             	cmp    $0x7f,%eax
  10311d:	7f 25                	jg     103144 <_adReverseChar+0x140>
  10311f:	0f b6 45 f6          	movzbl -0xa(%ebp),%eax
  103123:	83 f8 7f             	cmp    $0x7f,%eax
  103126:	7f 1c                	jg     103144 <_adReverseChar+0x140>
  103128:	8b 55 e4             	mov    -0x1c(%ebp),%edx
  10312b:	0f b6 45 f6          	movzbl -0xa(%ebp),%eax
  10312f:	88 02                	mov    %al,(%edx)
  103131:	8b 55 e0             	mov    -0x20(%ebp),%edx
  103134:	0f b6 45 f7          	movzbl -0x9(%ebp),%eax
  103138:	88 02                	mov    %al,(%edx)
  10313a:	83 45 e4 01          	addl   $0x1,-0x1c(%ebp)
  10313e:	83 6d e0 01          	subl   $0x1,-0x20(%ebp)
  103142:	eb ac                	jmp    1030f0 <_adReverseChar+0xec>
  103144:	0f b6 45 f7          	movzbl -0x9(%ebp),%eax
  103148:	3d 00 01 00 00       	cmp    $0x100,%eax
  10314d:	73 09                	jae    103158 <_adReverseChar+0x154>
  10314f:	0f b6 55 f7          	movzbl -0x9(%ebp),%edx
  103153:	89 55 a4             	mov    %edx,-0x5c(%ebp)
  103156:	eb 28                	jmp    103180 <_adReverseChar+0x17c>
  103158:	c7 45 a8 19 00 00 00 	movl   $0x19,-0x58(%ebp)
  10315f:	c7 45 ac e0 64 10 00 	movl   $0x1064e0,-0x54(%ebp)
  103166:	c7 44 24 08 93 01 00 	movl   $0x193,0x8(%esp)
  10316d:	00 
  10316e:	8b 4d a8             	mov    -0x58(%ebp),%ecx
  103171:	8b 5d ac             	mov    -0x54(%ebp),%ebx
  103174:	89 0c 24             	mov    %ecx,(%esp)
  103177:	89 5c 24 04          	mov    %ebx,0x4(%esp)
  10317b:	e8 22 fe ff ff       	call   102fa2 <_d_array_bounds>
  103180:	8b 45 a4             	mov    -0x5c(%ebp),%eax
  103183:	05 00 65 10 00       	add    $0x106500,%eax
  103188:	0f b6 00             	movzbl (%eax),%eax
  10318b:	0f b6 c0             	movzbl %al,%eax
  10318e:	89 45 f0             	mov    %eax,-0x10(%ebp)
  103191:	c7 45 ec 01 00 00 00 	movl   $0x1,-0x14(%ebp)
  103198:	0f b6 45 f6          	movzbl -0xa(%ebp),%eax
  10319c:	25 c0 00 00 00       	and    $0xc0,%eax
  1031a1:	3d 80 00 00 00       	cmp    $0x80,%eax
  1031a6:	0f 94 c0             	sete   %al
  1031a9:	83 f0 01             	xor    $0x1,%eax
  1031ac:	84 c0                	test   %al,%al
  1031ae:	75 43                	jne    1031f3 <_adReverseChar+0x1ef>
  1031b0:	83 6d e0 01          	subl   $0x1,-0x20(%ebp)
  1031b4:	8b 45 e0             	mov    -0x20(%ebp),%eax
  1031b7:	0f b6 00             	movzbl (%eax),%eax
  1031ba:	88 45 f6             	mov    %al,-0xa(%ebp)
  1031bd:	83 45 ec 01          	addl   $0x1,-0x14(%ebp)
  1031c1:	8b 45 e0             	mov    -0x20(%ebp),%eax
  1031c4:	3b 45 e4             	cmp    -0x1c(%ebp),%eax
  1031c7:	73 cf                	jae    103198 <_adReverseChar+0x194>
  1031c9:	c7 45 b0 19 00 00 00 	movl   $0x19,-0x50(%ebp)
  1031d0:	c7 45 b4 e0 64 10 00 	movl   $0x1064e0,-0x4c(%ebp)
  1031d7:	c7 44 24 08 99 01 00 	movl   $0x199,0x8(%esp)
  1031de:	00 
  1031df:	8b 45 b0             	mov    -0x50(%ebp),%eax
  1031e2:	8b 55 b4             	mov    -0x4c(%ebp),%edx
  1031e5:	89 04 24             	mov    %eax,(%esp)
  1031e8:	89 54 24 04          	mov    %edx,0x4(%esp)
  1031ec:	e8 61 fd ff ff       	call   102f52 <_d_assert>
  1031f1:	eb a5                	jmp    103198 <_adReverseChar+0x194>
  1031f3:	8b 45 e4             	mov    -0x1c(%ebp),%eax
  1031f6:	3b 45 e0             	cmp    -0x20(%ebp),%eax
  1031f9:	0f 84 20 01 00 00    	je     10331f <_adReverseChar+0x31b>
  1031ff:	8b 45 f0             	mov    -0x10(%ebp),%eax
  103202:	3b 45 ec             	cmp    -0x14(%ebp),%eax
  103205:	75 5a                	jne    103261 <_adReverseChar+0x25d>
  103207:	8b 45 f0             	mov    -0x10(%ebp),%eax
  10320a:	89 44 24 08          	mov    %eax,0x8(%esp)
  10320e:	8b 45 e4             	mov    -0x1c(%ebp),%eax
  103211:	89 44 24 04          	mov    %eax,0x4(%esp)
  103215:	8d 45 cc             	lea    -0x34(%ebp),%eax
  103218:	89 04 24             	mov    %eax,(%esp)
  10321b:	e8 a5 10 00 00       	call   1042c5 <memcpy>
  103220:	8b 45 f0             	mov    -0x10(%ebp),%eax
  103223:	89 44 24 08          	mov    %eax,0x8(%esp)
  103227:	8b 45 e0             	mov    -0x20(%ebp),%eax
  10322a:	89 44 24 04          	mov    %eax,0x4(%esp)
  10322e:	8b 45 e4             	mov    -0x1c(%ebp),%eax
  103231:	89 04 24             	mov    %eax,(%esp)
  103234:	e8 8c 10 00 00       	call   1042c5 <memcpy>
  103239:	8b 45 f0             	mov    -0x10(%ebp),%eax
  10323c:	89 44 24 08          	mov    %eax,0x8(%esp)
  103240:	8d 45 cc             	lea    -0x34(%ebp),%eax
  103243:	89 44 24 04          	mov    %eax,0x4(%esp)
  103247:	8b 45 e0             	mov    -0x20(%ebp),%eax
  10324a:	89 04 24             	mov    %eax,(%esp)
  10324d:	e8 73 10 00 00       	call   1042c5 <memcpy>
  103252:	8b 45 f0             	mov    -0x10(%ebp),%eax
  103255:	01 45 e4             	add    %eax,-0x1c(%ebp)
  103258:	83 6d e0 01          	subl   $0x1,-0x20(%ebp)
  10325c:	e9 8f fe ff ff       	jmp    1030f0 <_adReverseChar+0xec>
  103261:	8b 45 ec             	mov    -0x14(%ebp),%eax
  103264:	89 44 24 08          	mov    %eax,0x8(%esp)
  103268:	8b 45 e0             	mov    -0x20(%ebp),%eax
  10326b:	89 44 24 04          	mov    %eax,0x4(%esp)
  10326f:	8d 45 cc             	lea    -0x34(%ebp),%eax
  103272:	89 04 24             	mov    %eax,(%esp)
  103275:	e8 4b 10 00 00       	call   1042c5 <memcpy>
  10327a:	8b 45 f0             	mov    -0x10(%ebp),%eax
  10327d:	89 44 24 08          	mov    %eax,0x8(%esp)
  103281:	8b 45 e4             	mov    -0x1c(%ebp),%eax
  103284:	89 44 24 04          	mov    %eax,0x4(%esp)
  103288:	8d 45 d2             	lea    -0x2e(%ebp),%eax
  10328b:	89 04 24             	mov    %eax,(%esp)
  10328e:	e8 32 10 00 00       	call   1042c5 <memcpy>
  103293:	8b 55 e0             	mov    -0x20(%ebp),%edx
  103296:	8b 45 e4             	mov    -0x1c(%ebp),%eax
  103299:	89 d1                	mov    %edx,%ecx
  10329b:	29 c1                	sub    %eax,%ecx
  10329d:	89 c8                	mov    %ecx,%eax
  10329f:	89 c2                	mov    %eax,%edx
  1032a1:	2b 55 f0             	sub    -0x10(%ebp),%edx
  1032a4:	8b 45 f0             	mov    -0x10(%ebp),%eax
  1032a7:	89 c1                	mov    %eax,%ecx
  1032a9:	03 4d e4             	add    -0x1c(%ebp),%ecx
  1032ac:	8b 45 ec             	mov    -0x14(%ebp),%eax
  1032af:	03 45 e4             	add    -0x1c(%ebp),%eax
  1032b2:	89 54 24 08          	mov    %edx,0x8(%esp)
  1032b6:	89 4c 24 04          	mov    %ecx,0x4(%esp)
  1032ba:	89 04 24             	mov    %eax,(%esp)
  1032bd:	e8 4f 10 00 00       	call   104311 <memmove>
  1032c2:	8b 45 ec             	mov    -0x14(%ebp),%eax
  1032c5:	89 44 24 08          	mov    %eax,0x8(%esp)
  1032c9:	8d 45 cc             	lea    -0x34(%ebp),%eax
  1032cc:	89 44 24 04          	mov    %eax,0x4(%esp)
  1032d0:	8b 45 e4             	mov    -0x1c(%ebp),%eax
  1032d3:	89 04 24             	mov    %eax,(%esp)
  1032d6:	e8 ea 0f 00 00       	call   1042c5 <memcpy>
  1032db:	8b 45 ec             	mov    -0x14(%ebp),%eax
  1032de:	2b 45 f0             	sub    -0x10(%ebp),%eax
  1032e1:	89 c2                	mov    %eax,%edx
  1032e3:	03 55 e0             	add    -0x20(%ebp),%edx
  1032e6:	8b 45 f0             	mov    -0x10(%ebp),%eax
  1032e9:	89 44 24 08          	mov    %eax,0x8(%esp)
  1032ed:	8d 45 d2             	lea    -0x2e(%ebp),%eax
  1032f0:	89 44 24 04          	mov    %eax,0x4(%esp)
  1032f4:	89 14 24             	mov    %edx,(%esp)
  1032f7:	e8 c9 0f 00 00       	call   1042c5 <memcpy>
  1032fc:	8b 45 ec             	mov    -0x14(%ebp),%eax
  1032ff:	01 45 e4             	add    %eax,-0x1c(%ebp)
  103302:	8b 45 e0             	mov    -0x20(%ebp),%eax
  103305:	8d 48 ff             	lea    -0x1(%eax),%ecx
  103308:	8b 55 ec             	mov    -0x14(%ebp),%edx
  10330b:	8b 45 f0             	mov    -0x10(%ebp),%eax
  10330e:	89 d3                	mov    %edx,%ebx
  103310:	29 c3                	sub    %eax,%ebx
  103312:	89 d8                	mov    %ebx,%eax
  103314:	8d 04 01             	lea    (%ecx,%eax,1),%eax
  103317:	89 45 e0             	mov    %eax,-0x20(%ebp)
  10331a:	e9 d1 fd ff ff       	jmp    1030f0 <_adReverseChar+0xec>
  10331f:	8d 45 0c             	lea    0xc(%ebp),%eax
  103322:	8b 50 04             	mov    0x4(%eax),%edx
  103325:	8b 00                	mov    (%eax),%eax
  103327:	89 45 d8             	mov    %eax,-0x28(%ebp)
  10332a:	89 55 dc             	mov    %edx,-0x24(%ebp)
  10332d:	8b 45 d8             	mov    -0x28(%ebp),%eax
  103330:	8b 55 dc             	mov    -0x24(%ebp),%edx
  103333:	8b 4d 08             	mov    0x8(%ebp),%ecx
  103336:	89 01                	mov    %eax,(%ecx)
  103338:	89 51 04             	mov    %edx,0x4(%ecx)
  10333b:	8b 45 08             	mov    0x8(%ebp),%eax
  10333e:	81 c4 94 00 00 00    	add    $0x94,%esp
  103344:	5b                   	pop    %ebx
  103345:	5d                   	pop    %ebp
  103346:	c2 04 00             	ret    $0x4

00103349 <_adReverseWchar>:
  103349:	55                   	push   %ebp
  10334a:	89 e5                	mov    %esp,%ebp
  10334c:	53                   	push   %ebx
  10334d:	81 ec 84 00 00 00    	sub    $0x84,%esp
  103353:	8b 45 0c             	mov    0xc(%ebp),%eax
  103356:	83 f8 01             	cmp    $0x1,%eax
  103359:	0f 86 c8 02 00 00    	jbe    103627 <_adReverseWchar+0x2de>
  10335f:	c7 45 88 02 00 00 00 	movl   $0x2,-0x78(%ebp)
  103366:	8d 45 d0             	lea    -0x30(%ebp),%eax
  103369:	89 45 8c             	mov    %eax,-0x74(%ebp)
  10336c:	8b 45 88             	mov    -0x78(%ebp),%eax
  10336f:	89 45 c4             	mov    %eax,-0x3c(%ebp)
  103372:	8b 55 8c             	mov    -0x74(%ebp),%edx
  103375:	89 55 c0             	mov    %edx,-0x40(%ebp)
  103378:	83 7d c4 00          	cmpl   $0x0,-0x3c(%ebp)
  10337c:	0f 95 c0             	setne  %al
  10337f:	83 f0 01             	xor    $0x1,%eax
  103382:	84 c0                	test   %al,%al
  103384:	75 12                	jne    103398 <_adReverseWchar+0x4f>
  103386:	8b 4d c0             	mov    -0x40(%ebp),%ecx
  103389:	66 c7 01 ff ff       	movw   $0xffff,(%ecx)
  10338e:	83 45 c0 02          	addl   $0x2,-0x40(%ebp)
  103392:	83 6d c4 01          	subl   $0x1,-0x3c(%ebp)
  103396:	eb e0                	jmp    103378 <_adReverseWchar+0x2f>
  103398:	8b 45 10             	mov    0x10(%ebp),%eax
  10339b:	89 45 e0             	mov    %eax,-0x20(%ebp)
  10339e:	8b 5d 10             	mov    0x10(%ebp),%ebx
  1033a1:	89 5d 94             	mov    %ebx,-0x6c(%ebp)
  1033a4:	8b 45 0c             	mov    0xc(%ebp),%eax
  1033a7:	89 45 e4             	mov    %eax,-0x1c(%ebp)
  1033aa:	8b 45 e4             	mov    -0x1c(%ebp),%eax
  1033ad:	83 e8 01             	sub    $0x1,%eax
  1033b0:	89 45 9c             	mov    %eax,-0x64(%ebp)
  1033b3:	8b 45 0c             	mov    0xc(%ebp),%eax
  1033b6:	39 45 9c             	cmp    %eax,-0x64(%ebp)
  1033b9:	73 08                	jae    1033c3 <_adReverseWchar+0x7a>
  1033bb:	8b 45 9c             	mov    -0x64(%ebp),%eax
  1033be:	89 45 98             	mov    %eax,-0x68(%ebp)
  1033c1:	eb 28                	jmp    1033eb <_adReverseWchar+0xa2>
  1033c3:	c7 45 a0 19 00 00 00 	movl   $0x19,-0x60(%ebp)
  1033ca:	c7 45 a4 e0 64 10 00 	movl   $0x1064e0,-0x5c(%ebp)
  1033d1:	c7 44 24 08 bc 01 00 	movl   $0x1bc,0x8(%esp)
  1033d8:	00 
  1033d9:	8b 55 a0             	mov    -0x60(%ebp),%edx
  1033dc:	8b 4d a4             	mov    -0x5c(%ebp),%ecx
  1033df:	89 14 24             	mov    %edx,(%esp)
  1033e2:	89 4c 24 04          	mov    %ecx,0x4(%esp)
  1033e6:	e8 b7 fb ff ff       	call   102fa2 <_d_array_bounds>
  1033eb:	8b 45 98             	mov    -0x68(%ebp),%eax
  1033ee:	01 c0                	add    %eax,%eax
  1033f0:	03 45 94             	add    -0x6c(%ebp),%eax
  1033f3:	89 45 dc             	mov    %eax,-0x24(%ebp)
  1033f6:	8b 45 e0             	mov    -0x20(%ebp),%eax
  1033f9:	3b 45 dc             	cmp    -0x24(%ebp),%eax
  1033fc:	0f 92 c0             	setb   %al
  1033ff:	83 f0 01             	xor    $0x1,%eax
  103402:	84 c0                	test   %al,%al
  103404:	0f 85 1d 02 00 00    	jne    103627 <_adReverseWchar+0x2de>
  10340a:	8b 45 e0             	mov    -0x20(%ebp),%eax
  10340d:	0f b7 00             	movzwl (%eax),%eax
  103410:	66 89 45 f2          	mov    %ax,-0xe(%ebp)
  103414:	8b 45 dc             	mov    -0x24(%ebp),%eax
  103417:	0f b7 00             	movzwl (%eax),%eax
  10341a:	66 89 45 f0          	mov    %ax,-0x10(%ebp)
  10341e:	0f b7 45 f2          	movzwl -0xe(%ebp),%eax
  103422:	3d 00 d8 00 00       	cmp    $0xd800,%eax
  103427:	7c 0b                	jl     103434 <_adReverseWchar+0xeb>
  103429:	0f b7 45 f2          	movzwl -0xe(%ebp),%eax
  10342d:	3d ff df 00 00       	cmp    $0xdfff,%eax
  103432:	7e 34                	jle    103468 <_adReverseWchar+0x11f>
  103434:	0f b7 45 f0          	movzwl -0x10(%ebp),%eax
  103438:	3d 00 d8 00 00       	cmp    $0xd800,%eax
  10343d:	7c 0b                	jl     10344a <_adReverseWchar+0x101>
  10343f:	0f b7 45 f0          	movzwl -0x10(%ebp),%eax
  103443:	3d ff df 00 00       	cmp    $0xdfff,%eax
  103448:	7e 1e                	jle    103468 <_adReverseWchar+0x11f>
  10344a:	8b 55 e0             	mov    -0x20(%ebp),%edx
  10344d:	0f b7 45 f0          	movzwl -0x10(%ebp),%eax
  103451:	66 89 02             	mov    %ax,(%edx)
  103454:	8b 55 dc             	mov    -0x24(%ebp),%edx
  103457:	0f b7 45 f2          	movzwl -0xe(%ebp),%eax
  10345b:	66 89 02             	mov    %ax,(%edx)
  10345e:	83 45 e0 02          	addl   $0x2,-0x20(%ebp)
  103462:	83 6d dc 02          	subl   $0x2,-0x24(%ebp)
  103466:	eb 8e                	jmp    1033f6 <_adReverseWchar+0xad>
  103468:	0f b7 45 f2          	movzwl -0xe(%ebp),%eax
  10346c:	3d 00 d8 00 00       	cmp    $0xd800,%eax
  103471:	7c 11                	jl     103484 <_adReverseWchar+0x13b>
  103473:	0f b7 45 f2          	movzwl -0xe(%ebp),%eax
  103477:	3d ff db 00 00       	cmp    $0xdbff,%eax
  10347c:	7f 06                	jg     103484 <_adReverseWchar+0x13b>
  10347e:	c6 45 af 01          	movb   $0x1,-0x51(%ebp)
  103482:	eb 04                	jmp    103488 <_adReverseWchar+0x13f>
  103484:	c6 45 af 00          	movb   $0x0,-0x51(%ebp)
  103488:	0f b6 45 af          	movzbl -0x51(%ebp),%eax
  10348c:	83 c0 01             	add    $0x1,%eax
  10348f:	89 45 ec             	mov    %eax,-0x14(%ebp)
  103492:	c7 45 e8 01 00 00 00 	movl   $0x1,-0x18(%ebp)
  103499:	0f b7 45 f0          	movzwl -0x10(%ebp),%eax
  10349d:	3d 00 dc 00 00       	cmp    $0xdc00,%eax
  1034a2:	7c 4d                	jl     1034f1 <_adReverseWchar+0x1a8>
  1034a4:	0f b7 45 f0          	movzwl -0x10(%ebp),%eax
  1034a8:	3d ff df 00 00       	cmp    $0xdfff,%eax
  1034ad:	7f 42                	jg     1034f1 <_adReverseWchar+0x1a8>
  1034af:	83 6d dc 02          	subl   $0x2,-0x24(%ebp)
  1034b3:	8b 45 dc             	mov    -0x24(%ebp),%eax
  1034b6:	0f b7 00             	movzwl (%eax),%eax
  1034b9:	66 89 45 f0          	mov    %ax,-0x10(%ebp)
  1034bd:	83 45 e8 01          	addl   $0x1,-0x18(%ebp)
  1034c1:	8b 45 dc             	mov    -0x24(%ebp),%eax
  1034c4:	3b 45 e0             	cmp    -0x20(%ebp),%eax
  1034c7:	73 28                	jae    1034f1 <_adReverseWchar+0x1a8>
  1034c9:	c7 45 b0 19 00 00 00 	movl   $0x19,-0x50(%ebp)
  1034d0:	c7 45 b4 e0 64 10 00 	movl   $0x1064e0,-0x4c(%ebp)
  1034d7:	c7 44 24 08 d1 01 00 	movl   $0x1d1,0x8(%esp)
  1034de:	00 
  1034df:	8b 4d b0             	mov    -0x50(%ebp),%ecx
  1034e2:	8b 5d b4             	mov    -0x4c(%ebp),%ebx
  1034e5:	89 0c 24             	mov    %ecx,(%esp)
  1034e8:	89 5c 24 04          	mov    %ebx,0x4(%esp)
  1034ec:	e8 61 fa ff ff       	call   102f52 <_d_assert>
  1034f1:	8b 45 e0             	mov    -0x20(%ebp),%eax
  1034f4:	3b 45 dc             	cmp    -0x24(%ebp),%eax
  1034f7:	0f 84 2a 01 00 00    	je     103627 <_adReverseWchar+0x2de>
  1034fd:	8b 45 ec             	mov    -0x14(%ebp),%eax
  103500:	3b 45 e8             	cmp    -0x18(%ebp),%eax
  103503:	75 60                	jne    103565 <_adReverseWchar+0x21c>
  103505:	c7 45 f4 00 00 00 00 	movl   $0x0,-0xc(%ebp)
  10350c:	83 7d ec 02          	cmpl   $0x2,-0x14(%ebp)
  103510:	74 28                	je     10353a <_adReverseWchar+0x1f1>
  103512:	c7 45 b8 19 00 00 00 	movl   $0x19,-0x48(%ebp)
  103519:	c7 45 bc e0 64 10 00 	movl   $0x1064e0,-0x44(%ebp)
  103520:	c7 44 24 08 d9 01 00 	movl   $0x1d9,0x8(%esp)
  103527:	00 
  103528:	8b 45 b8             	mov    -0x48(%ebp),%eax
  10352b:	8b 55 bc             	mov    -0x44(%ebp),%edx
  10352e:	89 04 24             	mov    %eax,(%esp)
  103531:	89 54 24 04          	mov    %edx,0x4(%esp)
  103535:	e8 18 fa ff ff       	call   102f52 <_d_assert>
  10353a:	8b 45 e0             	mov    -0x20(%ebp),%eax
  10353d:	8b 00                	mov    (%eax),%eax
  10353f:	89 45 f4             	mov    %eax,-0xc(%ebp)
  103542:	8b 55 e0             	mov    -0x20(%ebp),%edx
  103545:	8b 45 dc             	mov    -0x24(%ebp),%eax
  103548:	8b 00                	mov    (%eax),%eax
  10354a:	89 02                	mov    %eax,(%edx)
  10354c:	8b 55 dc             	mov    -0x24(%ebp),%edx
  10354f:	8b 45 f4             	mov    -0xc(%ebp),%eax
  103552:	89 02                	mov    %eax,(%edx)
  103554:	8b 45 ec             	mov    -0x14(%ebp),%eax
  103557:	01 c0                	add    %eax,%eax
  103559:	01 45 e0             	add    %eax,-0x20(%ebp)
  10355c:	83 6d dc 02          	subl   $0x2,-0x24(%ebp)
  103560:	e9 91 fe ff ff       	jmp    1033f6 <_adReverseWchar+0xad>
  103565:	8b 45 e8             	mov    -0x18(%ebp),%eax
  103568:	01 c0                	add    %eax,%eax
  10356a:	89 44 24 08          	mov    %eax,0x8(%esp)
  10356e:	8b 45 dc             	mov    -0x24(%ebp),%eax
  103571:	89 44 24 04          	mov    %eax,0x4(%esp)
  103575:	8d 45 d0             	lea    -0x30(%ebp),%eax
  103578:	89 04 24             	mov    %eax,(%esp)
  10357b:	e8 45 0d 00 00       	call   1042c5 <memcpy>
  103580:	8b 45 ec             	mov    -0x14(%ebp),%eax
  103583:	8d 0c 00             	lea    (%eax,%eax,1),%ecx
  103586:	8b 55 ec             	mov    -0x14(%ebp),%edx
  103589:	8b 45 e8             	mov    -0x18(%ebp),%eax
  10358c:	89 d3                	mov    %edx,%ebx
  10358e:	29 c3                	sub    %eax,%ebx
  103590:	89 d8                	mov    %ebx,%eax
  103592:	01 c0                	add    %eax,%eax
  103594:	f7 d8                	neg    %eax
  103596:	89 c2                	mov    %eax,%edx
  103598:	03 55 dc             	add    -0x24(%ebp),%edx
  10359b:	89 4c 24 08          	mov    %ecx,0x8(%esp)
  10359f:	8b 45 e0             	mov    -0x20(%ebp),%eax
  1035a2:	89 44 24 04          	mov    %eax,0x4(%esp)
  1035a6:	89 14 24             	mov    %edx,(%esp)
  1035a9:	e8 17 0d 00 00       	call   1042c5 <memcpy>
  1035ae:	8b 55 dc             	mov    -0x24(%ebp),%edx
  1035b1:	8b 45 ec             	mov    -0x14(%ebp),%eax
  1035b4:	01 c0                	add    %eax,%eax
  1035b6:	03 45 e0             	add    -0x20(%ebp),%eax
  1035b9:	29 c2                	sub    %eax,%edx
  1035bb:	89 d0                	mov    %edx,%eax
  1035bd:	c1 e8 1f             	shr    $0x1f,%eax
  1035c0:	01 d0                	add    %edx,%eax
  1035c2:	d1 f8                	sar    %eax
  1035c4:	8d 14 00             	lea    (%eax,%eax,1),%edx
  1035c7:	8b 45 ec             	mov    -0x14(%ebp),%eax
  1035ca:	01 c0                	add    %eax,%eax
  1035cc:	89 c1                	mov    %eax,%ecx
  1035ce:	03 4d e0             	add    -0x20(%ebp),%ecx
  1035d1:	8b 45 e8             	mov    -0x18(%ebp),%eax
  1035d4:	01 c0                	add    %eax,%eax
  1035d6:	03 45 e0             	add    -0x20(%ebp),%eax
  1035d9:	89 54 24 08          	mov    %edx,0x8(%esp)
  1035dd:	89 4c 24 04          	mov    %ecx,0x4(%esp)
  1035e1:	89 04 24             	mov    %eax,(%esp)
  1035e4:	e8 28 0d 00 00       	call   104311 <memmove>
  1035e9:	8b 45 e8             	mov    -0x18(%ebp),%eax
  1035ec:	01 c0                	add    %eax,%eax
  1035ee:	89 44 24 08          	mov    %eax,0x8(%esp)
  1035f2:	8d 45 d0             	lea    -0x30(%ebp),%eax
  1035f5:	89 44 24 04          	mov    %eax,0x4(%esp)
  1035f9:	8b 45 e0             	mov    -0x20(%ebp),%eax
  1035fc:	89 04 24             	mov    %eax,(%esp)
  1035ff:	e8 c1 0c 00 00       	call   1042c5 <memcpy>
  103604:	8b 45 e8             	mov    -0x18(%ebp),%eax
  103607:	01 c0                	add    %eax,%eax
  103609:	01 45 e0             	add    %eax,-0x20(%ebp)
  10360c:	8b 45 dc             	mov    -0x24(%ebp),%eax
  10360f:	8d 48 fe             	lea    -0x2(%eax),%ecx
  103612:	8b 55 ec             	mov    -0x14(%ebp),%edx
  103615:	8b 45 e8             	mov    -0x18(%ebp),%eax
  103618:	29 d0                	sub    %edx,%eax
  10361a:	01 c0                	add    %eax,%eax
  10361c:	8d 04 01             	lea    (%ecx,%eax,1),%eax
  10361f:	89 45 dc             	mov    %eax,-0x24(%ebp)
  103622:	e9 cf fd ff ff       	jmp    1033f6 <_adReverseWchar+0xad>
  103627:	8d 45 0c             	lea    0xc(%ebp),%eax
  10362a:	8b 50 04             	mov    0x4(%eax),%edx
  10362d:	8b 00                	mov    (%eax),%eax
  10362f:	89 45 d4             	mov    %eax,-0x2c(%ebp)
  103632:	89 55 d8             	mov    %edx,-0x28(%ebp)
  103635:	8b 45 d4             	mov    -0x2c(%ebp),%eax
  103638:	8b 55 d8             	mov    -0x28(%ebp),%edx
  10363b:	8b 4d 08             	mov    0x8(%ebp),%ecx
  10363e:	89 01                	mov    %eax,(%ecx)
  103640:	89 51 04             	mov    %edx,0x4(%ecx)
  103643:	8b 45 08             	mov    0x8(%ebp),%eax
  103646:	81 c4 84 00 00 00    	add    $0x84,%esp
  10364c:	5b                   	pop    %ebx
  10364d:	5d                   	pop    %ebp
  10364e:	c2 04 00             	ret    $0x4

00103651 <_adCmpChar>:
  103651:	55                   	push   %ebp
  103652:	89 e5                	mov    %esp,%ebp
  103654:	83 ec 28             	sub    $0x28,%esp
  103657:	c7 45 fc 00 00 00 00 	movl   $0x0,-0x4(%ebp)
  10365e:	c7 45 f8 00 00 00 00 	movl   $0x0,-0x8(%ebp)
  103665:	8b 45 08             	mov    0x8(%ebp),%eax
  103668:	89 45 fc             	mov    %eax,-0x4(%ebp)
  10366b:	8b 55 10             	mov    0x10(%ebp),%edx
  10366e:	8b 45 fc             	mov    -0x4(%ebp),%eax
  103671:	39 c2                	cmp    %eax,%edx
  103673:	73 06                	jae    10367b <_adCmpChar+0x2a>
  103675:	8b 45 10             	mov    0x10(%ebp),%eax
  103678:	89 45 fc             	mov    %eax,-0x4(%ebp)
  10367b:	8b 45 fc             	mov    -0x4(%ebp),%eax
  10367e:	8b 55 14             	mov    0x14(%ebp),%edx
  103681:	8b 4d 0c             	mov    0xc(%ebp),%ecx
  103684:	89 44 24 08          	mov    %eax,0x8(%esp)
  103688:	89 54 24 04          	mov    %edx,0x4(%esp)
  10368c:	89 0c 24             	mov    %ecx,(%esp)
  10368f:	e8 c9 0c 00 00       	call   10435d <memcmp>
  103694:	89 45 f8             	mov    %eax,-0x8(%ebp)
  103697:	83 7d f8 00          	cmpl   $0x0,-0x8(%ebp)
  10369b:	0f 95 c0             	setne  %al
  10369e:	83 f0 01             	xor    $0x1,%eax
  1036a1:	84 c0                	test   %al,%al
  1036a3:	74 11                	je     1036b6 <_adCmpChar+0x65>
  1036a5:	8b 45 08             	mov    0x8(%ebp),%eax
  1036a8:	89 c2                	mov    %eax,%edx
  1036aa:	8b 45 10             	mov    0x10(%ebp),%eax
  1036ad:	89 d1                	mov    %edx,%ecx
  1036af:	29 c1                	sub    %eax,%ecx
  1036b1:	89 c8                	mov    %ecx,%eax
  1036b3:	89 45 f8             	mov    %eax,-0x8(%ebp)
  1036b6:	8b 45 f8             	mov    -0x8(%ebp),%eax
  1036b9:	c9                   	leave  
  1036ba:	c3                   	ret    

001036bb <_adReverse>:
  1036bb:	55                   	push   %ebp
  1036bc:	89 e5                	mov    %esp,%ebp
  1036be:	83 ec 48             	sub    $0x48,%esp
  1036c1:	8b 45 0c             	mov    0xc(%ebp),%eax
  1036c4:	83 f8 02             	cmp    $0x2,%eax
  1036c7:	0f 82 dc 00 00 00    	jb     1037a9 <_adReverse+0xee>
  1036cd:	c7 45 fc 00 00 00 00 	movl   $0x0,-0x4(%ebp)
  1036d4:	c7 45 d0 10 00 00 00 	movl   $0x10,-0x30(%ebp)
  1036db:	8d 45 e4             	lea    -0x1c(%ebp),%eax
  1036de:	89 45 d4             	mov    %eax,-0x2c(%ebp)
  1036e1:	8b 45 d0             	mov    -0x30(%ebp),%eax
  1036e4:	89 45 dc             	mov    %eax,-0x24(%ebp)
  1036e7:	8b 4d d4             	mov    -0x2c(%ebp),%ecx
  1036ea:	89 4d d8             	mov    %ecx,-0x28(%ebp)
  1036ed:	83 7d dc 00          	cmpl   $0x0,-0x24(%ebp)
  1036f1:	0f 95 c0             	setne  %al
  1036f4:	83 f0 01             	xor    $0x1,%eax
  1036f7:	84 c0                	test   %al,%al
  1036f9:	75 10                	jne    10370b <_adReverse+0x50>
  1036fb:	8b 45 d8             	mov    -0x28(%ebp),%eax
  1036fe:	c6 00 00             	movb   $0x0,(%eax)
  103701:	83 45 d8 01          	addl   $0x1,-0x28(%ebp)
  103705:	83 6d dc 01          	subl   $0x1,-0x24(%ebp)
  103709:	eb e2                	jmp    1036ed <_adReverse+0x32>
  10370b:	8b 45 10             	mov    0x10(%ebp),%eax
  10370e:	89 45 f8             	mov    %eax,-0x8(%ebp)
  103711:	8b 55 10             	mov    0x10(%ebp),%edx
  103714:	8b 45 0c             	mov    0xc(%ebp),%eax
  103717:	83 e8 01             	sub    $0x1,%eax
  10371a:	0f af 45 14          	imul   0x14(%ebp),%eax
  10371e:	8d 04 02             	lea    (%edx,%eax,1),%eax
  103721:	89 45 f4             	mov    %eax,-0xc(%ebp)
  103724:	8d 45 e4             	lea    -0x1c(%ebp),%eax
  103727:	89 45 fc             	mov    %eax,-0x4(%ebp)
  10372a:	83 7d 14 10          	cmpl   $0x10,0x14(%ebp)
  10372e:	76 0e                	jbe    10373e <_adReverse+0x83>
  103730:	8b 45 14             	mov    0x14(%ebp),%eax
  103733:	89 04 24             	mov    %eax,(%esp)
  103736:	e8 79 0e 00 00       	call   1045b4 <alloca>
  10373b:	89 45 fc             	mov    %eax,-0x4(%ebp)
  10373e:	8b 45 f8             	mov    -0x8(%ebp),%eax
  103741:	3b 45 f4             	cmp    -0xc(%ebp),%eax
  103744:	0f 92 c0             	setb   %al
  103747:	83 f0 01             	xor    $0x1,%eax
  10374a:	84 c0                	test   %al,%al
  10374c:	75 5b                	jne    1037a9 <_adReverse+0xee>
  10374e:	8b 45 14             	mov    0x14(%ebp),%eax
  103751:	89 44 24 08          	mov    %eax,0x8(%esp)
  103755:	8b 45 f8             	mov    -0x8(%ebp),%eax
  103758:	89 44 24 04          	mov    %eax,0x4(%esp)
  10375c:	8b 45 fc             	mov    -0x4(%ebp),%eax
  10375f:	89 04 24             	mov    %eax,(%esp)
  103762:	e8 5e 0b 00 00       	call   1042c5 <memcpy>
  103767:	8b 45 14             	mov    0x14(%ebp),%eax
  10376a:	89 44 24 08          	mov    %eax,0x8(%esp)
  10376e:	8b 45 f4             	mov    -0xc(%ebp),%eax
  103771:	89 44 24 04          	mov    %eax,0x4(%esp)
  103775:	8b 45 f8             	mov    -0x8(%ebp),%eax
  103778:	89 04 24             	mov    %eax,(%esp)
  10377b:	e8 45 0b 00 00       	call   1042c5 <memcpy>
  103780:	8b 45 14             	mov    0x14(%ebp),%eax
  103783:	89 44 24 08          	mov    %eax,0x8(%esp)
  103787:	8b 45 fc             	mov    -0x4(%ebp),%eax
  10378a:	89 44 24 04          	mov    %eax,0x4(%esp)
  10378e:	8b 45 f4             	mov    -0xc(%ebp),%eax
  103791:	89 04 24             	mov    %eax,(%esp)
  103794:	e8 2c 0b 00 00       	call   1042c5 <memcpy>
  103799:	8b 45 14             	mov    0x14(%ebp),%eax
  10379c:	01 45 f8             	add    %eax,-0x8(%ebp)
  10379f:	8b 45 14             	mov    0x14(%ebp),%eax
  1037a2:	f7 d8                	neg    %eax
  1037a4:	01 45 f4             	add    %eax,-0xc(%ebp)
  1037a7:	eb 95                	jmp    10373e <_adReverse+0x83>
  1037a9:	8b 45 0c             	mov    0xc(%ebp),%eax
  1037ac:	8b 55 10             	mov    0x10(%ebp),%edx
  1037af:	8b 4d 08             	mov    0x8(%ebp),%ecx
  1037b2:	89 01                	mov    %eax,(%ecx)
  1037b4:	89 51 04             	mov    %edx,0x4(%ecx)
  1037b7:	8b 45 08             	mov    0x8(%ebp),%eax
  1037ba:	c9                   	leave  
  1037bb:	c2 04 00             	ret    $0x4

001037be <_adEq>:
  1037be:	55                   	push   %ebp
  1037bf:	89 e5                	mov    %esp,%ebp
  1037c1:	83 ec 28             	sub    $0x28,%esp
  1037c4:	8b 55 08             	mov    0x8(%ebp),%edx
  1037c7:	8b 45 10             	mov    0x10(%ebp),%eax
  1037ca:	39 c2                	cmp    %eax,%edx
  1037cc:	74 0c                	je     1037da <_adEq+0x1c>
  1037ce:	c7 45 ec 00 00 00 00 	movl   $0x0,-0x14(%ebp)
  1037d5:	e9 b6 00 00 00       	jmp    103890 <_adEq+0xd2>
  1037da:	8b 45 18             	mov    0x18(%ebp),%eax
  1037dd:	8b 00                	mov    (%eax),%eax
  1037df:	83 c0 24             	add    $0x24,%eax
  1037e2:	8b 10                	mov    (%eax),%edx
  1037e4:	8b 45 18             	mov    0x18(%ebp),%eax
  1037e7:	89 04 24             	mov    %eax,(%esp)
  1037ea:	ff d2                	call   *%edx
  1037ec:	89 45 f8             	mov    %eax,-0x8(%ebp)
  1037ef:	8b 45 0c             	mov    0xc(%ebp),%eax
  1037f2:	89 45 f4             	mov    %eax,-0xc(%ebp)
  1037f5:	8b 45 14             	mov    0x14(%ebp),%eax
  1037f8:	89 45 f0             	mov    %eax,-0x10(%ebp)
  1037fb:	83 7d f8 01          	cmpl   $0x1,-0x8(%ebp)
  1037ff:	75 26                	jne    103827 <_adEq+0x69>
  103801:	8b 45 08             	mov    0x8(%ebp),%eax
  103804:	89 44 24 08          	mov    %eax,0x8(%esp)
  103808:	8b 45 f0             	mov    -0x10(%ebp),%eax
  10380b:	89 44 24 04          	mov    %eax,0x4(%esp)
  10380f:	8b 45 f4             	mov    -0xc(%ebp),%eax
  103812:	89 04 24             	mov    %eax,(%esp)
  103815:	e8 43 0b 00 00       	call   10435d <memcmp>
  10381a:	85 c0                	test   %eax,%eax
  10381c:	0f 94 c0             	sete   %al
  10381f:	0f b6 c0             	movzbl %al,%eax
  103822:	89 45 ec             	mov    %eax,-0x14(%ebp)
  103825:	eb 69                	jmp    103890 <_adEq+0xd2>
  103827:	c7 45 fc 00 00 00 00 	movl   $0x0,-0x4(%ebp)
  10382e:	8b 45 08             	mov    0x8(%ebp),%eax
  103831:	39 45 fc             	cmp    %eax,-0x4(%ebp)
  103834:	0f 92 c0             	setb   %al
  103837:	83 f0 01             	xor    $0x1,%eax
  10383a:	84 c0                	test   %al,%al
  10383c:	75 4b                	jne    103889 <_adEq+0xcb>
  10383e:	8b 45 18             	mov    0x18(%ebp),%eax
  103841:	8b 00                	mov    (%eax),%eax
  103843:	83 c0 1c             	add    $0x1c,%eax
  103846:	8b 08                	mov    (%eax),%ecx
  103848:	8b 45 fc             	mov    -0x4(%ebp),%eax
  10384b:	0f af 45 f8          	imul   -0x8(%ebp),%eax
  10384f:	89 c2                	mov    %eax,%edx
  103851:	03 55 f0             	add    -0x10(%ebp),%edx
  103854:	8b 45 fc             	mov    -0x4(%ebp),%eax
  103857:	0f af 45 f8          	imul   -0x8(%ebp),%eax
  10385b:	03 45 f4             	add    -0xc(%ebp),%eax
  10385e:	89 54 24 08          	mov    %edx,0x8(%esp)
  103862:	89 44 24 04          	mov    %eax,0x4(%esp)
  103866:	8b 45 18             	mov    0x18(%ebp),%eax
  103869:	89 04 24             	mov    %eax,(%esp)
  10386c:	ff d1                	call   *%ecx
  10386e:	85 c0                	test   %eax,%eax
  103870:	0f 95 c0             	setne  %al
  103873:	83 f0 01             	xor    $0x1,%eax
  103876:	84 c0                	test   %al,%al
  103878:	74 09                	je     103883 <_adEq+0xc5>
  10387a:	c7 45 ec 00 00 00 00 	movl   $0x0,-0x14(%ebp)
  103881:	eb 0d                	jmp    103890 <_adEq+0xd2>
  103883:	83 45 fc 01          	addl   $0x1,-0x4(%ebp)
  103887:	eb a5                	jmp    10382e <_adEq+0x70>
  103889:	c7 45 ec 01 00 00 00 	movl   $0x1,-0x14(%ebp)
  103890:	8b 45 ec             	mov    -0x14(%ebp),%eax
  103893:	c9                   	leave  
  103894:	c3                   	ret    

00103895 <_adCmp>:
  103895:	55                   	push   %ebp
  103896:	89 e5                	mov    %esp,%ebp
  103898:	83 ec 38             	sub    $0x38,%esp
  10389b:	8b 45 08             	mov    0x8(%ebp),%eax
  10389e:	89 45 f0             	mov    %eax,-0x10(%ebp)
  1038a1:	8b 45 10             	mov    0x10(%ebp),%eax
  1038a4:	3b 45 f0             	cmp    -0x10(%ebp),%eax
  1038a7:	73 06                	jae    1038af <_adCmp+0x1a>
  1038a9:	8b 45 10             	mov    0x10(%ebp),%eax
  1038ac:	89 45 f0             	mov    %eax,-0x10(%ebp)
  1038af:	8b 45 18             	mov    0x18(%ebp),%eax
  1038b2:	8b 00                	mov    (%eax),%eax
  1038b4:	83 c0 24             	add    $0x24,%eax
  1038b7:	8b 10                	mov    (%eax),%edx
  1038b9:	8b 45 18             	mov    0x18(%ebp),%eax
  1038bc:	89 04 24             	mov    %eax,(%esp)
  1038bf:	ff d2                	call   *%edx
  1038c1:	89 45 ec             	mov    %eax,-0x14(%ebp)
  1038c4:	8b 45 0c             	mov    0xc(%ebp),%eax
  1038c7:	89 45 e8             	mov    %eax,-0x18(%ebp)
  1038ca:	8b 45 14             	mov    0x14(%ebp),%eax
  1038cd:	89 45 e4             	mov    %eax,-0x1c(%ebp)
  1038d0:	83 7d ec 01          	cmpl   $0x1,-0x14(%ebp)
  1038d4:	75 2d                	jne    103903 <_adCmp+0x6e>
  1038d6:	8b 45 f0             	mov    -0x10(%ebp),%eax
  1038d9:	89 44 24 08          	mov    %eax,0x8(%esp)
  1038dd:	8b 45 e4             	mov    -0x1c(%ebp),%eax
  1038e0:	89 44 24 04          	mov    %eax,0x4(%esp)
  1038e4:	8b 45 e8             	mov    -0x18(%ebp),%eax
  1038e7:	89 04 24             	mov    %eax,(%esp)
  1038ea:	e8 6e 0a 00 00       	call   10435d <memcmp>
  1038ef:	89 45 f4             	mov    %eax,-0xc(%ebp)
  1038f2:	83 7d f4 00          	cmpl   $0x0,-0xc(%ebp)
  1038f6:	74 69                	je     103961 <_adCmp+0xcc>
  1038f8:	8b 45 f4             	mov    -0xc(%ebp),%eax
  1038fb:	89 45 d8             	mov    %eax,-0x28(%ebp)
  1038fe:	e9 91 00 00 00       	jmp    103994 <_adCmp+0xff>
  103903:	c7 45 f8 00 00 00 00 	movl   $0x0,-0x8(%ebp)
  10390a:	8b 45 f8             	mov    -0x8(%ebp),%eax
  10390d:	3b 45 f0             	cmp    -0x10(%ebp),%eax
  103910:	0f 92 c0             	setb   %al
  103913:	83 f0 01             	xor    $0x1,%eax
  103916:	84 c0                	test   %al,%al
  103918:	75 47                	jne    103961 <_adCmp+0xcc>
  10391a:	8b 45 18             	mov    0x18(%ebp),%eax
  10391d:	8b 00                	mov    (%eax),%eax
  10391f:	83 c0 20             	add    $0x20,%eax
  103922:	8b 08                	mov    (%eax),%ecx
  103924:	8b 45 f8             	mov    -0x8(%ebp),%eax
  103927:	0f af 45 ec          	imul   -0x14(%ebp),%eax
  10392b:	89 c2                	mov    %eax,%edx
  10392d:	03 55 e4             	add    -0x1c(%ebp),%edx
  103930:	8b 45 f8             	mov    -0x8(%ebp),%eax
  103933:	0f af 45 ec          	imul   -0x14(%ebp),%eax
  103937:	03 45 e8             	add    -0x18(%ebp),%eax
  10393a:	89 54 24 08          	mov    %edx,0x8(%esp)
  10393e:	89 44 24 04          	mov    %eax,0x4(%esp)
  103942:	8b 45 18             	mov    0x18(%ebp),%eax
  103945:	89 04 24             	mov    %eax,(%esp)
  103948:	ff d1                	call   *%ecx
  10394a:	89 45 fc             	mov    %eax,-0x4(%ebp)
  10394d:	83 7d fc 00          	cmpl   $0x0,-0x4(%ebp)
  103951:	74 08                	je     10395b <_adCmp+0xc6>
  103953:	8b 45 fc             	mov    -0x4(%ebp),%eax
  103956:	89 45 d8             	mov    %eax,-0x28(%ebp)
  103959:	eb 39                	jmp    103994 <_adCmp+0xff>
  10395b:	83 45 f8 01          	addl   $0x1,-0x8(%ebp)
  10395f:	eb a9                	jmp    10390a <_adCmp+0x75>
  103961:	8b 55 08             	mov    0x8(%ebp),%edx
  103964:	8b 45 10             	mov    0x10(%ebp),%eax
  103967:	39 c2                	cmp    %eax,%edx
  103969:	75 09                	jne    103974 <_adCmp+0xdf>
  10396b:	c7 45 d8 00 00 00 00 	movl   $0x0,-0x28(%ebp)
  103972:	eb 20                	jmp    103994 <_adCmp+0xff>
  103974:	8b 55 08             	mov    0x8(%ebp),%edx
  103977:	8b 45 10             	mov    0x10(%ebp),%eax
  10397a:	39 c2                	cmp    %eax,%edx
  10397c:	76 09                	jbe    103987 <_adCmp+0xf2>
  10397e:	c7 45 dc 01 00 00 00 	movl   $0x1,-0x24(%ebp)
  103985:	eb 07                	jmp    10398e <_adCmp+0xf9>
  103987:	c7 45 dc ff ff ff ff 	movl   $0xffffffff,-0x24(%ebp)
  10398e:	8b 45 dc             	mov    -0x24(%ebp),%eax
  103991:	89 45 d8             	mov    %eax,-0x28(%ebp)
  103994:	8b 45 d8             	mov    -0x28(%ebp),%eax
  103997:	c9                   	leave  
  103998:	c3                   	ret    

00103999 <_adSort>:
  103999:	55                   	push   %ebp
  10399a:	89 e5                	mov    %esp,%ebp
  10399c:	56                   	push   %esi
  10399d:	53                   	push   %ebx
  10399e:	81 ec 60 01 00 00    	sub    $0x160,%esp
  1039a4:	8b 45 14             	mov    0x14(%ebp),%eax
  1039a7:	8b 00                	mov    (%eax),%eax
  1039a9:	83 c0 24             	add    $0x24,%eax
  1039ac:	8b 10                	mov    (%eax),%edx
  1039ae:	8b 45 14             	mov    0x14(%ebp),%eax
  1039b1:	89 04 24             	mov    %eax,(%esp)
  1039b4:	ff d2                	call   *%edx
  1039b6:	89 45 f4             	mov    %eax,-0xc(%ebp)
  1039b9:	8b 55 f4             	mov    -0xc(%ebp),%edx
  1039bc:	89 d0                	mov    %edx,%eax
  1039be:	c1 e0 03             	shl    $0x3,%eax
  1039c1:	29 d0                	sub    %edx,%eax
  1039c3:	89 45 f0             	mov    %eax,-0x10(%ebp)
  1039c6:	bb 20 00 00 00       	mov    $0x20,%ebx
  1039cb:	8d 85 dc fe ff ff    	lea    -0x124(%ebp),%eax
  1039d1:	89 c6                	mov    %eax,%esi
  1039d3:	89 9d d4 fe ff ff    	mov    %ebx,-0x12c(%ebp)
  1039d9:	89 b5 d0 fe ff ff    	mov    %esi,-0x130(%ebp)
  1039df:	83 bd d4 fe ff ff 00 	cmpl   $0x0,-0x12c(%ebp)
  1039e6:	0f 95 c0             	setne  %al
  1039e9:	83 f0 01             	xor    $0x1,%eax
  1039ec:	84 c0                	test   %al,%al
  1039ee:	75 26                	jne    103a16 <_adSort+0x7d>
  1039f0:	a1 98 13 11 00       	mov    0x111398,%eax
  1039f5:	8b 15 9c 13 11 00    	mov    0x11139c,%edx
  1039fb:	8b 8d d0 fe ff ff    	mov    -0x130(%ebp),%ecx
  103a01:	89 01                	mov    %eax,(%ecx)
  103a03:	89 51 04             	mov    %edx,0x4(%ecx)
  103a06:	83 85 d0 fe ff ff 08 	addl   $0x8,-0x130(%ebp)
  103a0d:	83 ad d4 fe ff ff 01 	subl   $0x1,-0x12c(%ebp)
  103a14:	eb c9                	jmp    1039df <_adSort+0x46>
  103a16:	8d 85 dc fe ff ff    	lea    -0x124(%ebp),%eax
  103a1c:	89 45 ec             	mov    %eax,-0x14(%ebp)
  103a1f:	8b 45 10             	mov    0x10(%ebp),%eax
  103a22:	89 45 e8             	mov    %eax,-0x18(%ebp)
  103a25:	8b 55 10             	mov    0x10(%ebp),%edx
  103a28:	8b 45 0c             	mov    0xc(%ebp),%eax
  103a2b:	0f af 45 f4          	imul   -0xc(%ebp),%eax
  103a2f:	8d 04 02             	lea    (%edx,%eax,1),%eax
  103a32:	89 45 e4             	mov    %eax,-0x1c(%ebp)
  103a35:	b8 00 00 00 00       	mov    $0x0,%eax
  103a3a:	84 c0                	test   %al,%al
  103a3c:	0f 85 32 03 00 00    	jne    103d74 <_adSort+0x3db>
  103a42:	8b 55 e4             	mov    -0x1c(%ebp),%edx
  103a45:	8b 45 e8             	mov    -0x18(%ebp),%eax
  103a48:	89 d3                	mov    %edx,%ebx
  103a4a:	29 c3                	sub    %eax,%ebx
  103a4c:	89 d8                	mov    %ebx,%eax
  103a4e:	3b 45 f0             	cmp    -0x10(%ebp),%eax
  103a51:	0f 86 51 02 00 00    	jbe    103ca8 <_adSort+0x30f>
  103a57:	8b 45 14             	mov    0x14(%ebp),%eax
  103a5a:	8b 00                	mov    (%eax),%eax
  103a5c:	83 c0 28             	add    $0x28,%eax
  103a5f:	8b 18                	mov    (%eax),%ebx
  103a61:	8b 55 e4             	mov    -0x1c(%ebp),%edx
  103a64:	8b 45 e8             	mov    -0x18(%ebp),%eax
  103a67:	89 d6                	mov    %edx,%esi
  103a69:	29 c6                	sub    %eax,%esi
  103a6b:	89 f0                	mov    %esi,%eax
  103a6d:	89 c1                	mov    %eax,%ecx
  103a6f:	d1 e9                	shr    %ecx
  103a71:	8b 55 e4             	mov    -0x1c(%ebp),%edx
  103a74:	8b 45 e8             	mov    -0x18(%ebp),%eax
  103a77:	89 d6                	mov    %edx,%esi
  103a79:	29 c6                	sub    %eax,%esi
  103a7b:	89 f0                	mov    %esi,%eax
  103a7d:	89 c2                	mov    %eax,%edx
  103a7f:	d1 ea                	shr    %edx
  103a81:	89 95 b4 fe ff ff    	mov    %edx,-0x14c(%ebp)
  103a87:	8b 85 b4 fe ff ff    	mov    -0x14c(%ebp),%eax
  103a8d:	ba 00 00 00 00       	mov    $0x0,%edx
  103a92:	f7 75 f4             	divl   -0xc(%ebp)
  103a95:	89 d0                	mov    %edx,%eax
  103a97:	89 ca                	mov    %ecx,%edx
  103a99:	29 c2                	sub    %eax,%edx
  103a9b:	89 d0                	mov    %edx,%eax
  103a9d:	03 45 e8             	add    -0x18(%ebp),%eax
  103aa0:	89 44 24 08          	mov    %eax,0x8(%esp)
  103aa4:	8b 45 e8             	mov    -0x18(%ebp),%eax
  103aa7:	89 44 24 04          	mov    %eax,0x4(%esp)
  103aab:	8b 45 14             	mov    0x14(%ebp),%eax
  103aae:	89 04 24             	mov    %eax,(%esp)
  103ab1:	ff d3                	call   *%ebx
  103ab3:	8b 45 f4             	mov    -0xc(%ebp),%eax
  103ab6:	03 45 e8             	add    -0x18(%ebp),%eax
  103ab9:	89 45 e0             	mov    %eax,-0x20(%ebp)
  103abc:	8b 45 f4             	mov    -0xc(%ebp),%eax
  103abf:	f7 d8                	neg    %eax
  103ac1:	03 45 e4             	add    -0x1c(%ebp),%eax
  103ac4:	89 45 dc             	mov    %eax,-0x24(%ebp)
  103ac7:	8b 45 14             	mov    0x14(%ebp),%eax
  103aca:	8b 00                	mov    (%eax),%eax
  103acc:	83 c0 20             	add    $0x20,%eax
  103acf:	8b 10                	mov    (%eax),%edx
  103ad1:	8b 45 dc             	mov    -0x24(%ebp),%eax
  103ad4:	89 44 24 08          	mov    %eax,0x8(%esp)
  103ad8:	8b 45 e0             	mov    -0x20(%ebp),%eax
  103adb:	89 44 24 04          	mov    %eax,0x4(%esp)
  103adf:	8b 45 14             	mov    0x14(%ebp),%eax
  103ae2:	89 04 24             	mov    %eax,(%esp)
  103ae5:	ff d2                	call   *%edx
  103ae7:	85 c0                	test   %eax,%eax
  103ae9:	7e 20                	jle    103b0b <_adSort+0x172>
  103aeb:	8b 45 14             	mov    0x14(%ebp),%eax
  103aee:	8b 00                	mov    (%eax),%eax
  103af0:	83 c0 28             	add    $0x28,%eax
  103af3:	8b 10                	mov    (%eax),%edx
  103af5:	8b 45 dc             	mov    -0x24(%ebp),%eax
  103af8:	89 44 24 08          	mov    %eax,0x8(%esp)
  103afc:	8b 45 e0             	mov    -0x20(%ebp),%eax
  103aff:	89 44 24 04          	mov    %eax,0x4(%esp)
  103b03:	8b 45 14             	mov    0x14(%ebp),%eax
  103b06:	89 04 24             	mov    %eax,(%esp)
  103b09:	ff d2                	call   *%edx
  103b0b:	8b 45 14             	mov    0x14(%ebp),%eax
  103b0e:	8b 00                	mov    (%eax),%eax
  103b10:	83 c0 20             	add    $0x20,%eax
  103b13:	8b 10                	mov    (%eax),%edx
  103b15:	8b 45 dc             	mov    -0x24(%ebp),%eax
  103b18:	89 44 24 08          	mov    %eax,0x8(%esp)
  103b1c:	8b 45 e8             	mov    -0x18(%ebp),%eax
  103b1f:	89 44 24 04          	mov    %eax,0x4(%esp)
  103b23:	8b 45 14             	mov    0x14(%ebp),%eax
  103b26:	89 04 24             	mov    %eax,(%esp)
  103b29:	ff d2                	call   *%edx
  103b2b:	85 c0                	test   %eax,%eax
  103b2d:	7e 20                	jle    103b4f <_adSort+0x1b6>
  103b2f:	8b 45 14             	mov    0x14(%ebp),%eax
  103b32:	8b 00                	mov    (%eax),%eax
  103b34:	83 c0 28             	add    $0x28,%eax
  103b37:	8b 10                	mov    (%eax),%edx
  103b39:	8b 45 dc             	mov    -0x24(%ebp),%eax
  103b3c:	89 44 24 08          	mov    %eax,0x8(%esp)
  103b40:	8b 45 e8             	mov    -0x18(%ebp),%eax
  103b43:	89 44 24 04          	mov    %eax,0x4(%esp)
  103b47:	8b 45 14             	mov    0x14(%ebp),%eax
  103b4a:	89 04 24             	mov    %eax,(%esp)
  103b4d:	ff d2                	call   *%edx
  103b4f:	8b 45 14             	mov    0x14(%ebp),%eax
  103b52:	8b 00                	mov    (%eax),%eax
  103b54:	83 c0 20             	add    $0x20,%eax
  103b57:	8b 10                	mov    (%eax),%edx
  103b59:	8b 45 e8             	mov    -0x18(%ebp),%eax
  103b5c:	89 44 24 08          	mov    %eax,0x8(%esp)
  103b60:	8b 45 e0             	mov    -0x20(%ebp),%eax
  103b63:	89 44 24 04          	mov    %eax,0x4(%esp)
  103b67:	8b 45 14             	mov    0x14(%ebp),%eax
  103b6a:	89 04 24             	mov    %eax,(%esp)
  103b6d:	ff d2                	call   *%edx
  103b6f:	85 c0                	test   %eax,%eax
  103b71:	7e 20                	jle    103b93 <_adSort+0x1fa>
  103b73:	8b 45 14             	mov    0x14(%ebp),%eax
  103b76:	8b 00                	mov    (%eax),%eax
  103b78:	83 c0 28             	add    $0x28,%eax
  103b7b:	8b 10                	mov    (%eax),%edx
  103b7d:	8b 45 e8             	mov    -0x18(%ebp),%eax
  103b80:	89 44 24 08          	mov    %eax,0x8(%esp)
  103b84:	8b 45 e0             	mov    -0x20(%ebp),%eax
  103b87:	89 44 24 04          	mov    %eax,0x4(%esp)
  103b8b:	8b 45 14             	mov    0x14(%ebp),%eax
  103b8e:	89 04 24             	mov    %eax,(%esp)
  103b91:	ff d2                	call   *%edx
  103b93:	b8 00 00 00 00       	mov    $0x0,%eax
  103b98:	84 c0                	test   %al,%al
  103b9a:	0f 85 91 00 00 00    	jne    103c31 <_adSort+0x298>
  103ba0:	8b 45 f4             	mov    -0xc(%ebp),%eax
  103ba3:	01 45 e0             	add    %eax,-0x20(%ebp)
  103ba6:	8b 45 14             	mov    0x14(%ebp),%eax
  103ba9:	8b 00                	mov    (%eax),%eax
  103bab:	83 c0 20             	add    $0x20,%eax
  103bae:	8b 10                	mov    (%eax),%edx
  103bb0:	8b 45 e8             	mov    -0x18(%ebp),%eax
  103bb3:	89 44 24 08          	mov    %eax,0x8(%esp)
  103bb7:	8b 45 e0             	mov    -0x20(%ebp),%eax
  103bba:	89 44 24 04          	mov    %eax,0x4(%esp)
  103bbe:	8b 45 14             	mov    0x14(%ebp),%eax
  103bc1:	89 04 24             	mov    %eax,(%esp)
  103bc4:	ff d2                	call   *%edx
  103bc6:	c1 e8 1f             	shr    $0x1f,%eax
  103bc9:	83 f0 01             	xor    $0x1,%eax
  103bcc:	84 c0                	test   %al,%al
  103bce:	74 d0                	je     103ba0 <_adSort+0x207>
  103bd0:	8b 45 f4             	mov    -0xc(%ebp),%eax
  103bd3:	f7 d8                	neg    %eax
  103bd5:	01 45 dc             	add    %eax,-0x24(%ebp)
  103bd8:	8b 45 14             	mov    0x14(%ebp),%eax
  103bdb:	8b 00                	mov    (%eax),%eax
  103bdd:	83 c0 20             	add    $0x20,%eax
  103be0:	8b 10                	mov    (%eax),%edx
  103be2:	8b 45 e8             	mov    -0x18(%ebp),%eax
  103be5:	89 44 24 08          	mov    %eax,0x8(%esp)
  103be9:	8b 45 dc             	mov    -0x24(%ebp),%eax
  103bec:	89 44 24 04          	mov    %eax,0x4(%esp)
  103bf0:	8b 45 14             	mov    0x14(%ebp),%eax
  103bf3:	89 04 24             	mov    %eax,(%esp)
  103bf6:	ff d2                	call   *%edx
  103bf8:	85 c0                	test   %eax,%eax
  103bfa:	0f 9f c0             	setg   %al
  103bfd:	83 f0 01             	xor    $0x1,%eax
  103c00:	84 c0                	test   %al,%al
  103c02:	74 cc                	je     103bd0 <_adSort+0x237>
  103c04:	8b 45 e0             	mov    -0x20(%ebp),%eax
  103c07:	3b 45 dc             	cmp    -0x24(%ebp),%eax
  103c0a:	77 25                	ja     103c31 <_adSort+0x298>
  103c0c:	8b 45 14             	mov    0x14(%ebp),%eax
  103c0f:	8b 00                	mov    (%eax),%eax
  103c11:	83 c0 28             	add    $0x28,%eax
  103c14:	8b 10                	mov    (%eax),%edx
  103c16:	8b 45 dc             	mov    -0x24(%ebp),%eax
  103c19:	89 44 24 08          	mov    %eax,0x8(%esp)
  103c1d:	8b 45 e0             	mov    -0x20(%ebp),%eax
  103c20:	89 44 24 04          	mov    %eax,0x4(%esp)
  103c24:	8b 45 14             	mov    0x14(%ebp),%eax
  103c27:	89 04 24             	mov    %eax,(%esp)
  103c2a:	ff d2                	call   *%edx
  103c2c:	e9 62 ff ff ff       	jmp    103b93 <_adSort+0x1fa>
  103c31:	8b 45 14             	mov    0x14(%ebp),%eax
  103c34:	8b 00                	mov    (%eax),%eax
  103c36:	83 c0 28             	add    $0x28,%eax
  103c39:	8b 10                	mov    (%eax),%edx
  103c3b:	8b 45 dc             	mov    -0x24(%ebp),%eax
  103c3e:	89 44 24 08          	mov    %eax,0x8(%esp)
  103c42:	8b 45 e8             	mov    -0x18(%ebp),%eax
  103c45:	89 44 24 04          	mov    %eax,0x4(%esp)
  103c49:	8b 45 14             	mov    0x14(%ebp),%eax
  103c4c:	89 04 24             	mov    %eax,(%esp)
  103c4f:	ff d2                	call   *%edx
  103c51:	8b 55 dc             	mov    -0x24(%ebp),%edx
  103c54:	8b 45 e8             	mov    -0x18(%ebp),%eax
  103c57:	89 d1                	mov    %edx,%ecx
  103c59:	29 c1                	sub    %eax,%ecx
  103c5b:	89 c8                	mov    %ecx,%eax
  103c5d:	89 c1                	mov    %eax,%ecx
  103c5f:	8b 55 e4             	mov    -0x1c(%ebp),%edx
  103c62:	8b 45 e0             	mov    -0x20(%ebp),%eax
  103c65:	89 d3                	mov    %edx,%ebx
  103c67:	29 c3                	sub    %eax,%ebx
  103c69:	89 d8                	mov    %ebx,%eax
  103c6b:	39 c1                	cmp    %eax,%ecx
  103c6d:	7e 19                	jle    103c88 <_adSort+0x2ef>
  103c6f:	8b 55 ec             	mov    -0x14(%ebp),%edx
  103c72:	8b 45 e8             	mov    -0x18(%ebp),%eax
  103c75:	89 02                	mov    %eax,(%edx)
  103c77:	8b 55 ec             	mov    -0x14(%ebp),%edx
  103c7a:	8b 45 dc             	mov    -0x24(%ebp),%eax
  103c7d:	89 42 04             	mov    %eax,0x4(%edx)
  103c80:	8b 45 e0             	mov    -0x20(%ebp),%eax
  103c83:	89 45 e8             	mov    %eax,-0x18(%ebp)
  103c86:	eb 17                	jmp    103c9f <_adSort+0x306>
  103c88:	8b 55 ec             	mov    -0x14(%ebp),%edx
  103c8b:	8b 45 e0             	mov    -0x20(%ebp),%eax
  103c8e:	89 02                	mov    %eax,(%edx)
  103c90:	8b 55 ec             	mov    -0x14(%ebp),%edx
  103c93:	8b 45 e4             	mov    -0x1c(%ebp),%eax
  103c96:	89 42 04             	mov    %eax,0x4(%edx)
  103c99:	8b 45 dc             	mov    -0x24(%ebp),%eax
  103c9c:	89 45 e4             	mov    %eax,-0x1c(%ebp)
  103c9f:	83 45 ec 08          	addl   $0x8,-0x14(%ebp)
  103ca3:	e9 8d fd ff ff       	jmp    103a35 <_adSort+0x9c>
  103ca8:	8b 45 e8             	mov    -0x18(%ebp),%eax
  103cab:	89 45 dc             	mov    %eax,-0x24(%ebp)
  103cae:	8b 45 f4             	mov    -0xc(%ebp),%eax
  103cb1:	03 45 e8             	add    -0x18(%ebp),%eax
  103cb4:	89 45 e0             	mov    %eax,-0x20(%ebp)
  103cb7:	8b 45 e0             	mov    -0x20(%ebp),%eax
  103cba:	3b 45 e4             	cmp    -0x1c(%ebp),%eax
  103cbd:	0f 92 c0             	setb   %al
  103cc0:	83 f0 01             	xor    $0x1,%eax
  103cc3:	84 c0                	test   %al,%al
  103cc5:	75 75                	jne    103d3c <_adSort+0x3a3>
  103cc7:	8b 45 14             	mov    0x14(%ebp),%eax
  103cca:	8b 00                	mov    (%eax),%eax
  103ccc:	83 c0 20             	add    $0x20,%eax
  103ccf:	8b 10                	mov    (%eax),%edx
  103cd1:	8b 45 f4             	mov    -0xc(%ebp),%eax
  103cd4:	03 45 dc             	add    -0x24(%ebp),%eax
  103cd7:	89 44 24 08          	mov    %eax,0x8(%esp)
  103cdb:	8b 45 dc             	mov    -0x24(%ebp),%eax
  103cde:	89 44 24 04          	mov    %eax,0x4(%esp)
  103ce2:	8b 45 14             	mov    0x14(%ebp),%eax
  103ce5:	89 04 24             	mov    %eax,(%esp)
  103ce8:	ff d2                	call   *%edx
  103cea:	85 c0                	test   %eax,%eax
  103cec:	0f 9f c0             	setg   %al
  103cef:	83 f0 01             	xor    $0x1,%eax
  103cf2:	84 c0                	test   %al,%al
  103cf4:	75 35                	jne    103d2b <_adSort+0x392>
  103cf6:	8b 45 14             	mov    0x14(%ebp),%eax
  103cf9:	8b 00                	mov    (%eax),%eax
  103cfb:	83 c0 28             	add    $0x28,%eax
  103cfe:	8b 10                	mov    (%eax),%edx
  103d00:	8b 45 f4             	mov    -0xc(%ebp),%eax
  103d03:	03 45 dc             	add    -0x24(%ebp),%eax
  103d06:	89 44 24 08          	mov    %eax,0x8(%esp)
  103d0a:	8b 45 dc             	mov    -0x24(%ebp),%eax
  103d0d:	89 44 24 04          	mov    %eax,0x4(%esp)
  103d11:	8b 45 14             	mov    0x14(%ebp),%eax
  103d14:	89 04 24             	mov    %eax,(%esp)
  103d17:	ff d2                	call   *%edx
  103d19:	8b 45 dc             	mov    -0x24(%ebp),%eax
  103d1c:	3b 45 e8             	cmp    -0x18(%ebp),%eax
  103d1f:	74 0a                	je     103d2b <_adSort+0x392>
  103d21:	8b 45 f4             	mov    -0xc(%ebp),%eax
  103d24:	f7 d8                	neg    %eax
  103d26:	01 45 dc             	add    %eax,-0x24(%ebp)
  103d29:	eb 9c                	jmp    103cc7 <_adSort+0x32e>
  103d2b:	8b 45 e0             	mov    -0x20(%ebp),%eax
  103d2e:	89 45 dc             	mov    %eax,-0x24(%ebp)
  103d31:	8b 45 f4             	mov    -0xc(%ebp),%eax
  103d34:	01 45 e0             	add    %eax,-0x20(%ebp)
  103d37:	e9 7b ff ff ff       	jmp    103cb7 <_adSort+0x31e>
  103d3c:	8d 85 dc fe ff ff    	lea    -0x124(%ebp),%eax
  103d42:	39 45 ec             	cmp    %eax,-0x14(%ebp)
  103d45:	74 1a                	je     103d61 <_adSort+0x3c8>
  103d47:	83 6d ec 08          	subl   $0x8,-0x14(%ebp)
  103d4b:	8b 45 ec             	mov    -0x14(%ebp),%eax
  103d4e:	8b 00                	mov    (%eax),%eax
  103d50:	89 45 e8             	mov    %eax,-0x18(%ebp)
  103d53:	8b 45 ec             	mov    -0x14(%ebp),%eax
  103d56:	8b 40 04             	mov    0x4(%eax),%eax
  103d59:	89 45 e4             	mov    %eax,-0x1c(%ebp)
  103d5c:	e9 d4 fc ff ff       	jmp    103a35 <_adSort+0x9c>
  103d61:	8b 45 0c             	mov    0xc(%ebp),%eax
  103d64:	8b 55 10             	mov    0x10(%ebp),%edx
  103d67:	8b 75 08             	mov    0x8(%ebp),%esi
  103d6a:	89 06                	mov    %eax,(%esi)
  103d6c:	89 56 04             	mov    %edx,0x4(%esi)
  103d6f:	8b 45 08             	mov    0x8(%ebp),%eax
  103d72:	eb 5c                	jmp    103dd0 <_adSort+0x437>
  103d74:	c7 85 c0 fe ff ff 19 	movl   $0x19,-0x140(%ebp)
  103d7b:	00 00 00 
  103d7e:	c7 85 c4 fe ff ff e0 	movl   $0x1064e0,-0x13c(%ebp)
  103d85:	64 10 00 
  103d88:	c7 85 c8 fe ff ff 19 	movl   $0x19,-0x138(%ebp)
  103d8f:	00 00 00 
  103d92:	c7 85 cc fe ff ff 04 	movl   $0x106604,-0x134(%ebp)
  103d99:	66 10 00 
  103d9c:	c7 44 24 10 07 03 00 	movl   $0x307,0x10(%esp)
  103da3:	00 
  103da4:	8b 85 c0 fe ff ff    	mov    -0x140(%ebp),%eax
  103daa:	8b 95 c4 fe ff ff    	mov    -0x13c(%ebp),%edx
  103db0:	89 44 24 08          	mov    %eax,0x8(%esp)
  103db4:	89 54 24 0c          	mov    %edx,0xc(%esp)
  103db8:	8b 95 c8 fe ff ff    	mov    -0x138(%ebp),%edx
  103dbe:	8b 8d cc fe ff ff    	mov    -0x134(%ebp),%ecx
  103dc4:	89 14 24             	mov    %edx,(%esp)
  103dc7:	89 4c 24 04          	mov    %ecx,0x4(%esp)
  103dcb:	e8 a3 f1 ff ff       	call   102f73 <_d_assert_msg>
  103dd0:	81 c4 60 01 00 00    	add    $0x160,%esp
  103dd6:	5b                   	pop    %ebx
  103dd7:	5e                   	pop    %esi
  103dd8:	5d                   	pop    %ebp
  103dd9:	c2 04 00             	ret    $0x4

00103ddc <_d_arraycast>:
  103ddc:	55                   	push   %ebp
  103ddd:	89 e5                	mov    %esp,%ebp
  103ddf:	83 ec 48             	sub    $0x48,%esp
  103de2:	8b 45 14             	mov    0x14(%ebp),%eax
  103de5:	89 45 fc             	mov    %eax,-0x4(%ebp)
  103de8:	8b 45 fc             	mov    -0x4(%ebp),%eax
  103deb:	0f af 45 10          	imul   0x10(%ebp),%eax
  103def:	89 45 f8             	mov    %eax,-0x8(%ebp)
  103df2:	8b 45 f8             	mov    -0x8(%ebp),%eax
  103df5:	89 45 d4             	mov    %eax,-0x2c(%ebp)
  103df8:	8b 45 d4             	mov    -0x2c(%ebp),%eax
  103dfb:	ba 00 00 00 00       	mov    $0x0,%edx
  103e00:	f7 75 0c             	divl   0xc(%ebp)
  103e03:	89 d0                	mov    %edx,%eax
  103e05:	85 c0                	test   %eax,%eax
  103e07:	74 44                	je     103e4d <_d_arraycast+0x71>
  103e09:	c7 45 e0 19 00 00 00 	movl   $0x19,-0x20(%ebp)
  103e10:	c7 45 e4 e0 64 10 00 	movl   $0x1064e0,-0x1c(%ebp)
  103e17:	c7 45 e8 17 00 00 00 	movl   $0x17,-0x18(%ebp)
  103e1e:	c7 45 ec 1e 66 10 00 	movl   $0x10661e,-0x14(%ebp)
  103e25:	c7 44 24 10 0e 03 00 	movl   $0x30e,0x10(%esp)
  103e2c:	00 
  103e2d:	8b 55 e0             	mov    -0x20(%ebp),%edx
  103e30:	8b 4d e4             	mov    -0x1c(%ebp),%ecx
  103e33:	89 54 24 08          	mov    %edx,0x8(%esp)
  103e37:	89 4c 24 0c          	mov    %ecx,0xc(%esp)
  103e3b:	8b 45 e8             	mov    -0x18(%ebp),%eax
  103e3e:	8b 55 ec             	mov    -0x14(%ebp),%edx
  103e41:	89 04 24             	mov    %eax,(%esp)
  103e44:	89 54 24 04          	mov    %edx,0x4(%esp)
  103e48:	e8 26 f1 ff ff       	call   102f73 <_d_assert_msg>
  103e4d:	8b 45 f8             	mov    -0x8(%ebp),%eax
  103e50:	ba 00 00 00 00       	mov    $0x0,%edx
  103e55:	f7 75 0c             	divl   0xc(%ebp)
  103e58:	89 45 fc             	mov    %eax,-0x4(%ebp)
  103e5b:	8d 55 14             	lea    0x14(%ebp),%edx
  103e5e:	8b 45 fc             	mov    -0x4(%ebp),%eax
  103e61:	89 02                	mov    %eax,(%edx)
  103e63:	8b 45 14             	mov    0x14(%ebp),%eax
  103e66:	8b 55 18             	mov    0x18(%ebp),%edx
  103e69:	8b 4d 08             	mov    0x8(%ebp),%ecx
  103e6c:	89 01                	mov    %eax,(%ecx)
  103e6e:	89 51 04             	mov    %edx,0x4(%ecx)
  103e71:	8b 45 08             	mov    0x8(%ebp),%eax
  103e74:	c9                   	leave  
  103e75:	c2 04 00             	ret    $0x4

00103e78 <_d_arraycopy>:
