
kernel.sys:     file format elf32-i386


Disassembly of section .text:

00100000 <__code>:
  100000:	02 b0 ad 1b 03 00    	add    0x31bad(%eax),%dh
  100006:	00 00                	add    %al,(%eax)
  100008:	fb                   	sti    
  100009:	4f                   	dec    %edi
  10000a:	52                   	push   %edx
  10000b:	e4 00                	in     $0x0,%al
  10000d:	00 10                	add    %dl,(%eax)
  10000f:	00 00                	add    %al,(%eax)
  100011:	00 10                	add    %dl,(%eax)
  100013:	00 40 a4             	add    %al,-0x5c(%eax)
  100016:	10 00                	adc    %al,(%eax)
  100018:	80 b1 10 00 20 00 10 	xorb   $0x10,0x200010(%ecx)
	...

00100020 <start>:
  100020:	c8 00 00 00          	enter  $0x0,$0x0
  100024:	fa                   	cli    
  100025:	53                   	push   %ebx
  100026:	50                   	push   %eax
  100027:	e8 24 12 00 00       	call   101250 <main>
  10002c:	c9                   	leave  
  10002d:	e9 fb ff ff ff       	jmp    10002d <start+0xd>
	...

00100040 <flushIdt>:
  100040:	8b 44 24 04          	mov    0x4(%esp),%eax
  100044:	0f 01 18             	lidtl  (%eax)
  100047:	c3                   	ret    
	...

00100050 <isr0>:
  100050:	fa                   	cli    
  100051:	6a 00                	push   $0x0
  100053:	6a 00                	push   $0x0
  100055:	e9 ca 01 00 00       	jmp    100224 <isr_common_stub>

0010005a <isr1>:
  10005a:	fa                   	cli    
  10005b:	6a 00                	push   $0x0
  10005d:	6a 01                	push   $0x1
  10005f:	e9 c0 01 00 00       	jmp    100224 <isr_common_stub>

00100064 <isr2>:
  100064:	fa                   	cli    
  100065:	6a 00                	push   $0x0
  100067:	6a 02                	push   $0x2
  100069:	e9 b6 01 00 00       	jmp    100224 <isr_common_stub>

0010006e <isr3>:
  10006e:	fa                   	cli    
  10006f:	6a 00                	push   $0x0
  100071:	6a 03                	push   $0x3
  100073:	e9 ac 01 00 00       	jmp    100224 <isr_common_stub>

00100078 <isr4>:
  100078:	fa                   	cli    
  100079:	6a 00                	push   $0x0
  10007b:	6a 04                	push   $0x4
  10007d:	e9 a2 01 00 00       	jmp    100224 <isr_common_stub>

00100082 <isr5>:
  100082:	fa                   	cli    
  100083:	6a 00                	push   $0x0
  100085:	6a 05                	push   $0x5
  100087:	e9 98 01 00 00       	jmp    100224 <isr_common_stub>

0010008c <isr6>:
  10008c:	fa                   	cli    
  10008d:	6a 00                	push   $0x0
  10008f:	6a 06                	push   $0x6
  100091:	e9 8e 01 00 00       	jmp    100224 <isr_common_stub>

00100096 <isr7>:
  100096:	fa                   	cli    
  100097:	6a 00                	push   $0x0
  100099:	6a 07                	push   $0x7
  10009b:	e9 84 01 00 00       	jmp    100224 <isr_common_stub>

001000a0 <isr8>:
  1000a0:	fa                   	cli    
  1000a1:	6a 08                	push   $0x8
  1000a3:	e9 7c 01 00 00       	jmp    100224 <isr_common_stub>

001000a8 <isr9>:
  1000a8:	fa                   	cli    
  1000a9:	6a 00                	push   $0x0
  1000ab:	6a 09                	push   $0x9
  1000ad:	e9 72 01 00 00       	jmp    100224 <isr_common_stub>

001000b2 <isr10>:
  1000b2:	fa                   	cli    
  1000b3:	6a 0a                	push   $0xa
  1000b5:	e9 6a 01 00 00       	jmp    100224 <isr_common_stub>

001000ba <isr11>:
  1000ba:	fa                   	cli    
  1000bb:	6a 0b                	push   $0xb
  1000bd:	e9 62 01 00 00       	jmp    100224 <isr_common_stub>

001000c2 <isr12>:
  1000c2:	fa                   	cli    
  1000c3:	6a 0c                	push   $0xc
  1000c5:	e9 5a 01 00 00       	jmp    100224 <isr_common_stub>

001000ca <isr13>:
  1000ca:	fa                   	cli    
  1000cb:	6a 0d                	push   $0xd
  1000cd:	e9 52 01 00 00       	jmp    100224 <isr_common_stub>

001000d2 <isr14>:
  1000d2:	fa                   	cli    
  1000d3:	6a 0e                	push   $0xe
  1000d5:	e9 4a 01 00 00       	jmp    100224 <isr_common_stub>

001000da <isr15>:
  1000da:	fa                   	cli    
  1000db:	6a 00                	push   $0x0
  1000dd:	6a 0f                	push   $0xf
  1000df:	e9 40 01 00 00       	jmp    100224 <isr_common_stub>

001000e4 <isr16>:
  1000e4:	fa                   	cli    
  1000e5:	6a 00                	push   $0x0
  1000e7:	6a 10                	push   $0x10
  1000e9:	e9 36 01 00 00       	jmp    100224 <isr_common_stub>

001000ee <isr17>:
  1000ee:	fa                   	cli    
  1000ef:	6a 00                	push   $0x0
  1000f1:	6a 11                	push   $0x11
  1000f3:	e9 2c 01 00 00       	jmp    100224 <isr_common_stub>

001000f8 <isr18>:
  1000f8:	fa                   	cli    
  1000f9:	6a 00                	push   $0x0
  1000fb:	6a 12                	push   $0x12
  1000fd:	e9 22 01 00 00       	jmp    100224 <isr_common_stub>

00100102 <isr19>:
  100102:	fa                   	cli    
  100103:	6a 00                	push   $0x0
  100105:	6a 13                	push   $0x13
  100107:	e9 18 01 00 00       	jmp    100224 <isr_common_stub>

0010010c <isr20>:
  10010c:	fa                   	cli    
  10010d:	6a 00                	push   $0x0
  10010f:	6a 14                	push   $0x14
  100111:	e9 0e 01 00 00       	jmp    100224 <isr_common_stub>

00100116 <isr21>:
  100116:	fa                   	cli    
  100117:	6a 00                	push   $0x0
  100119:	6a 15                	push   $0x15
  10011b:	e9 04 01 00 00       	jmp    100224 <isr_common_stub>

00100120 <isr22>:
  100120:	fa                   	cli    
  100121:	6a 00                	push   $0x0
  100123:	6a 16                	push   $0x16
  100125:	e9 fa 00 00 00       	jmp    100224 <isr_common_stub>

0010012a <isr23>:
  10012a:	fa                   	cli    
  10012b:	6a 00                	push   $0x0
  10012d:	6a 17                	push   $0x17
  10012f:	e9 f0 00 00 00       	jmp    100224 <isr_common_stub>

00100134 <isr24>:
  100134:	fa                   	cli    
  100135:	6a 00                	push   $0x0
  100137:	6a 18                	push   $0x18
  100139:	e9 e6 00 00 00       	jmp    100224 <isr_common_stub>

0010013e <isr25>:
  10013e:	fa                   	cli    
  10013f:	6a 00                	push   $0x0
  100141:	6a 19                	push   $0x19
  100143:	e9 dc 00 00 00       	jmp    100224 <isr_common_stub>

00100148 <isr26>:
  100148:	fa                   	cli    
  100149:	6a 00                	push   $0x0
  10014b:	6a 1a                	push   $0x1a
  10014d:	e9 d2 00 00 00       	jmp    100224 <isr_common_stub>

00100152 <isr27>:
  100152:	fa                   	cli    
  100153:	6a 00                	push   $0x0
  100155:	6a 1b                	push   $0x1b
  100157:	e9 c8 00 00 00       	jmp    100224 <isr_common_stub>

0010015c <isr28>:
  10015c:	fa                   	cli    
  10015d:	6a 00                	push   $0x0
  10015f:	6a 1c                	push   $0x1c
  100161:	e9 be 00 00 00       	jmp    100224 <isr_common_stub>

00100166 <isr29>:
  100166:	fa                   	cli    
  100167:	6a 00                	push   $0x0
  100169:	6a 1d                	push   $0x1d
  10016b:	e9 b4 00 00 00       	jmp    100224 <isr_common_stub>

00100170 <isr30>:
  100170:	fa                   	cli    
  100171:	6a 00                	push   $0x0
  100173:	6a 1e                	push   $0x1e
  100175:	e9 aa 00 00 00       	jmp    100224 <isr_common_stub>

0010017a <isr31>:
  10017a:	fa                   	cli    
  10017b:	6a 00                	push   $0x0
  10017d:	6a 1f                	push   $0x1f
  10017f:	e9 a0 00 00 00       	jmp    100224 <isr_common_stub>

00100184 <isr32>:
  100184:	fa                   	cli    
  100185:	6a 00                	push   $0x0
  100187:	6a 20                	push   $0x20
  100189:	e9 be 00 00 00       	jmp    10024c <irq_common_stub>

0010018e <isr33>:
  10018e:	fa                   	cli    
  10018f:	6a 00                	push   $0x0
  100191:	6a 21                	push   $0x21
  100193:	e9 b4 00 00 00       	jmp    10024c <irq_common_stub>

00100198 <isr34>:
  100198:	fa                   	cli    
  100199:	6a 00                	push   $0x0
  10019b:	6a 22                	push   $0x22
  10019d:	e9 aa 00 00 00       	jmp    10024c <irq_common_stub>

001001a2 <isr35>:
  1001a2:	fa                   	cli    
  1001a3:	6a 00                	push   $0x0
  1001a5:	6a 23                	push   $0x23
  1001a7:	e9 a0 00 00 00       	jmp    10024c <irq_common_stub>

001001ac <isr36>:
  1001ac:	fa                   	cli    
  1001ad:	6a 00                	push   $0x0
  1001af:	6a 24                	push   $0x24
  1001b1:	e9 96 00 00 00       	jmp    10024c <irq_common_stub>

001001b6 <isr37>:
  1001b6:	fa                   	cli    
  1001b7:	6a 00                	push   $0x0
  1001b9:	6a 25                	push   $0x25
  1001bb:	e9 8c 00 00 00       	jmp    10024c <irq_common_stub>

001001c0 <isr38>:
  1001c0:	fa                   	cli    
  1001c1:	6a 00                	push   $0x0
  1001c3:	6a 26                	push   $0x26
  1001c5:	e9 82 00 00 00       	jmp    10024c <irq_common_stub>

001001ca <isr39>:
  1001ca:	fa                   	cli    
  1001cb:	6a 00                	push   $0x0
  1001cd:	6a 27                	push   $0x27
  1001cf:	e9 78 00 00 00       	jmp    10024c <irq_common_stub>

001001d4 <isr40>:
  1001d4:	fa                   	cli    
  1001d5:	6a 00                	push   $0x0
  1001d7:	6a 28                	push   $0x28
  1001d9:	e9 6e 00 00 00       	jmp    10024c <irq_common_stub>

001001de <isr41>:
  1001de:	fa                   	cli    
  1001df:	6a 00                	push   $0x0
  1001e1:	6a 29                	push   $0x29
  1001e3:	e9 64 00 00 00       	jmp    10024c <irq_common_stub>

001001e8 <isr42>:
  1001e8:	fa                   	cli    
  1001e9:	6a 00                	push   $0x0
  1001eb:	6a 2a                	push   $0x2a
  1001ed:	e9 5a 00 00 00       	jmp    10024c <irq_common_stub>

001001f2 <isr43>:
  1001f2:	fa                   	cli    
  1001f3:	6a 00                	push   $0x0
  1001f5:	6a 2b                	push   $0x2b
  1001f7:	e9 50 00 00 00       	jmp    10024c <irq_common_stub>

001001fc <isr44>:
  1001fc:	fa                   	cli    
  1001fd:	6a 00                	push   $0x0
  1001ff:	6a 2c                	push   $0x2c
  100201:	e9 46 00 00 00       	jmp    10024c <irq_common_stub>

00100206 <isr45>:
  100206:	fa                   	cli    
  100207:	6a 00                	push   $0x0
  100209:	6a 2d                	push   $0x2d
  10020b:	e9 3c 00 00 00       	jmp    10024c <irq_common_stub>

00100210 <isr46>:
  100210:	fa                   	cli    
  100211:	6a 00                	push   $0x0
  100213:	6a 2e                	push   $0x2e
  100215:	e9 32 00 00 00       	jmp    10024c <irq_common_stub>

0010021a <isr47>:
  10021a:	fa                   	cli    
  10021b:	6a 00                	push   $0x0
  10021d:	6a 2f                	push   $0x2f
  10021f:	e9 28 00 00 00       	jmp    10024c <irq_common_stub>

00100224 <isr_common_stub>:
  100224:	60                   	pusha  
  100225:	66 8c d8             	mov    %ds,%ax
  100228:	50                   	push   %eax
  100229:	66 b8 10 00          	mov    $0x10,%ax
  10022d:	8e d8                	mov    %eax,%ds
  10022f:	8e c0                	mov    %eax,%es
  100231:	8e e0                	mov    %eax,%fs
  100233:	8e e8                	mov    %eax,%gs
  100235:	e8 d6 00 00 00       	call   100310 <isrHandler>
  10023a:	58                   	pop    %eax
  10023b:	8e d8                	mov    %eax,%ds
  10023d:	8e c0                	mov    %eax,%es
  10023f:	8e e0                	mov    %eax,%fs
  100241:	8e e8                	mov    %eax,%gs
  100243:	61                   	popa   
  100244:	81 c4 08 00 00 00    	add    $0x8,%esp
  10024a:	fb                   	sti    
  10024b:	cf                   	iret   

0010024c <irq_common_stub>:
  10024c:	60                   	pusha  
  10024d:	66 8c d8             	mov    %ds,%ax
  100250:	50                   	push   %eax
  100251:	66 b8 10 00          	mov    $0x10,%ax
  100255:	8e d8                	mov    %eax,%ds
  100257:	8e c0                	mov    %eax,%es
  100259:	8e e0                	mov    %eax,%fs
  10025b:	8e e8                	mov    %eax,%gs
  10025d:	e8 d9 00 00 00       	call   10033b <irqHandler>
  100262:	5b                   	pop    %ebx
  100263:	8e db                	mov    %ebx,%ds
  100265:	8e c3                	mov    %ebx,%es
  100267:	8e e3                	mov    %ebx,%fs
  100269:	8e eb                	mov    %ebx,%gs
  10026b:	61                   	popa   
  10026c:	81 c4 08 00 00 00    	add    $0x8,%esp
  100272:	fb                   	sti    
  100273:	cf                   	iret   
	...

00100280 <flushGdt>:
  100280:	c8 00 00 00          	enter  $0x0,$0x0
  100284:	8b 45 08             	mov    0x8(%ebp),%eax
  100287:	0f 01 10             	lgdtl  (%eax)
  10028a:	66 b8 10 00          	mov    $0x10,%ax
  10028e:	8e d8                	mov    %eax,%ds
  100290:	8e c0                	mov    %eax,%es
  100292:	8e e0                	mov    %eax,%fs
  100294:	8e e8                	mov    %eax,%gs
  100296:	8e d0                	mov    %eax,%ss
  100298:	ea 9f 02 10 00 08 00 	ljmp   $0x8,$0x10029f

0010029f <flush>:
  10029f:	c9                   	leave  
  1002a0:	c3                   	ret    
  1002a1:	00 00                	add    %al,(%eax)
	...

001002a4 <_D6kernel2io4outbFthZv>:
  1002a4:	55                   	push   %ebp
  1002a5:	89 e5                	mov    %esp,%ebp
  1002a7:	66 8b 55 08          	mov    0x8(%ebp),%dx
  1002ab:	8a 45 0c             	mov    0xc(%ebp),%al
  1002ae:	ee                   	out    %al,(%dx)
  1002af:	5d                   	pop    %ebp
  1002b0:	c3                   	ret    

001002b1 <_D6kernel2io3inbFtZh>:
  1002b1:	55                   	push   %ebp
  1002b2:	89 e5                	mov    %esp,%ebp
  1002b4:	83 ec 10             	sub    $0x10,%esp
  1002b7:	c6 45 ff 00          	movb   $0x0,-0x1(%ebp)
  1002bb:	66 8b 55 08          	mov    0x8(%ebp),%dx
  1002bf:	ec                   	in     (%dx),%al
  1002c0:	8a 45 ff             	mov    -0x1(%ebp),%al
  1002c3:	0f b6 45 ff          	movzbl -0x1(%ebp),%eax
  1002c7:	c9                   	leave  
  1002c8:	c3                   	ret    

001002c9 <_D6kernel2io3inwFtZt>:
  1002c9:	55                   	push   %ebp
  1002ca:	89 e5                	mov    %esp,%ebp
  1002cc:	83 ec 10             	sub    $0x10,%esp
  1002cf:	66 c7 45 fe 00 00    	movw   $0x0,-0x2(%ebp)
  1002d5:	66 8b 55 08          	mov    0x8(%ebp),%dx
  1002d9:	ec                   	in     (%dx),%al
  1002da:	8a 45 fe             	mov    -0x2(%ebp),%al
  1002dd:	0f b7 45 fe          	movzwl -0x2(%ebp),%eax
  1002e1:	c9                   	leave  
  1002e2:	c3                   	ret    

001002e3 <_D6kernel2io8io_delayFZv>:
  1002e3:	55                   	push   %ebp
  1002e4:	89 e5                	mov    %esp,%ebp
  1002e6:	83 ec 10             	sub    $0x10,%esp
  1002e9:	c7 45 fc 00 00 00 00 	movl   $0x0,-0x4(%ebp)
  1002f0:	c7 45 fc 00 00 00 00 	movl   $0x0,-0x4(%ebp)
  1002f7:	83 7d fc 31          	cmpl   $0x31,-0x4(%ebp)
  1002fb:	0f 9e c0             	setle  %al
  1002fe:	83 f0 01             	xor    $0x1,%eax
  100301:	84 c0                	test   %al,%al
  100303:	75 06                	jne    10030b <_D6kernel2io8io_delayFZv+0x28>
  100305:	83 45 fc 01          	addl   $0x1,-0x4(%ebp)
  100309:	eb ec                	jmp    1002f7 <_D6kernel2io8io_delayFZv+0x14>
  10030b:	c9                   	leave  
  10030c:	c3                   	ret    
  10030d:	00 00                	add    %al,(%eax)
	...

00100310 <isrHandler>:
  100310:	55                   	push   %ebp
  100311:	89 e5                	mov    %esp,%ebp
  100313:	83 ec 08             	sub    $0x8,%esp
  100316:	c7 04 24 0c 5c 10 00 	movl   $0x105c0c,(%esp)
  10031d:	e8 6d 11 00 00       	call   10148f <_D5video4text4text4putsFPaZv>
  100322:	8b 45 2c             	mov    0x2c(%ebp),%eax
  100325:	89 04 24             	mov    %eax,(%esp)
  100328:	e8 3c 12 00 00       	call   101569 <_D5video4text4text6printdFkZv>
  10032d:	c7 04 24 0a 00 00 00 	movl   $0xa,(%esp)
  100334:	e8 09 11 00 00       	call   101442 <_D5video4text4text4putcFaZv>
  100339:	c9                   	leave  
  10033a:	c3                   	ret    

0010033b <irqHandler>:
  10033b:	55                   	push   %ebp
  10033c:	89 e5                	mov    %esp,%ebp
  10033e:	83 ec 78             	sub    $0x78,%esp
  100341:	8b 45 2c             	mov    0x2c(%ebp),%eax
  100344:	83 f8 28             	cmp    $0x28,%eax
  100347:	72 14                	jb     10035d <irqHandler+0x22>
  100349:	c7 44 24 04 20 00 00 	movl   $0x20,0x4(%esp)
  100350:	00 
  100351:	c7 04 24 a0 00 00 00 	movl   $0xa0,(%esp)
  100358:	e8 47 ff ff ff       	call   1002a4 <_D6kernel2io4outbFthZv>
  10035d:	c7 44 24 04 20 00 00 	movl   $0x20,0x4(%esp)
  100364:	00 
  100365:	c7 04 24 20 00 00 00 	movl   $0x20,(%esp)
  10036c:	e8 33 ff ff ff       	call   1002a4 <_D6kernel2io4outbFthZv>
  100371:	8b 45 2c             	mov    0x2c(%ebp),%eax
  100374:	3d 00 01 00 00       	cmp    $0x100,%eax
  100379:	73 0b                	jae    100386 <irqHandler+0x4b>
  10037b:	8b 45 2c             	mov    0x2c(%ebp),%eax
  10037e:	c1 e0 02             	shl    $0x2,%eax
  100381:	89 45 d4             	mov    %eax,-0x2c(%ebp)
  100384:	eb 28                	jmp    1003ae <irqHandler+0x73>
  100386:	c7 45 d8 10 00 00 00 	movl   $0x10,-0x28(%ebp)
  10038d:	c7 45 dc 21 5c 10 00 	movl   $0x105c21,-0x24(%ebp)
  100394:	c7 44 24 08 2c 00 00 	movl   $0x2c,0x8(%esp)
  10039b:	00 
  10039c:	8b 45 d8             	mov    -0x28(%ebp),%eax
  10039f:	8b 55 dc             	mov    -0x24(%ebp),%edx
  1003a2:	89 04 24             	mov    %eax,(%esp)
  1003a5:	89 54 24 04          	mov    %edx,0x4(%esp)
  1003a9:	e8 18 25 00 00       	call   1028c6 <_d_array_bounds>
  1003ae:	8b 45 d4             	mov    -0x2c(%ebp),%eax
  1003b1:	05 80 a4 10 00       	add    $0x10a480,%eax
  1003b6:	8b 00                	mov    (%eax),%eax
  1003b8:	85 c0                	test   %eax,%eax
  1003ba:	0f 84 be 00 00 00    	je     10047e <irqHandler+0x143>
  1003c0:	8b 45 2c             	mov    0x2c(%ebp),%eax
  1003c3:	3d 00 01 00 00       	cmp    $0x100,%eax
  1003c8:	73 0b                	jae    1003d5 <irqHandler+0x9a>
  1003ca:	8b 45 2c             	mov    0x2c(%ebp),%eax
  1003cd:	c1 e0 02             	shl    $0x2,%eax
  1003d0:	89 45 e4             	mov    %eax,-0x1c(%ebp)
  1003d3:	eb 28                	jmp    1003fd <irqHandler+0xc2>
  1003d5:	c7 45 e8 10 00 00 00 	movl   $0x10,-0x18(%ebp)
  1003dc:	c7 45 ec 21 5c 10 00 	movl   $0x105c21,-0x14(%ebp)
  1003e3:	c7 44 24 08 2d 00 00 	movl   $0x2d,0x8(%esp)
  1003ea:	00 
  1003eb:	8b 45 e8             	mov    -0x18(%ebp),%eax
  1003ee:	8b 55 ec             	mov    -0x14(%ebp),%edx
  1003f1:	89 04 24             	mov    %eax,(%esp)
  1003f4:	89 54 24 04          	mov    %edx,0x4(%esp)
  1003f8:	e8 c9 24 00 00       	call   1028c6 <_d_array_bounds>
  1003fd:	8b 45 e4             	mov    -0x1c(%ebp),%eax
  100400:	05 80 a4 10 00       	add    $0x10a480,%eax
  100405:	8b 00                	mov    (%eax),%eax
  100407:	89 45 fc             	mov    %eax,-0x4(%ebp)
  10040a:	8b 45 08             	mov    0x8(%ebp),%eax
  10040d:	89 04 24             	mov    %eax,(%esp)
  100410:	8b 45 0c             	mov    0xc(%ebp),%eax
  100413:	89 44 24 04          	mov    %eax,0x4(%esp)
  100417:	8b 45 10             	mov    0x10(%ebp),%eax
  10041a:	89 44 24 08          	mov    %eax,0x8(%esp)
  10041e:	8b 45 14             	mov    0x14(%ebp),%eax
  100421:	89 44 24 0c          	mov    %eax,0xc(%esp)
  100425:	8b 45 18             	mov    0x18(%ebp),%eax
  100428:	89 44 24 10          	mov    %eax,0x10(%esp)
  10042c:	8b 45 1c             	mov    0x1c(%ebp),%eax
  10042f:	89 44 24 14          	mov    %eax,0x14(%esp)
  100433:	8b 45 20             	mov    0x20(%ebp),%eax
  100436:	89 44 24 18          	mov    %eax,0x18(%esp)
  10043a:	8b 45 24             	mov    0x24(%ebp),%eax
  10043d:	89 44 24 1c          	mov    %eax,0x1c(%esp)
  100441:	8b 45 28             	mov    0x28(%ebp),%eax
  100444:	89 44 24 20          	mov    %eax,0x20(%esp)
  100448:	8b 45 2c             	mov    0x2c(%ebp),%eax
  10044b:	89 44 24 24          	mov    %eax,0x24(%esp)
  10044f:	8b 45 30             	mov    0x30(%ebp),%eax
  100452:	89 44 24 28          	mov    %eax,0x28(%esp)
  100456:	8b 45 34             	mov    0x34(%ebp),%eax
  100459:	89 44 24 2c          	mov    %eax,0x2c(%esp)
  10045d:	8b 45 38             	mov    0x38(%ebp),%eax
  100460:	89 44 24 30          	mov    %eax,0x30(%esp)
  100464:	8b 45 3c             	mov    0x3c(%ebp),%eax
  100467:	89 44 24 34          	mov    %eax,0x34(%esp)
  10046b:	8b 45 40             	mov    0x40(%ebp),%eax
  10046e:	89 44 24 38          	mov    %eax,0x38(%esp)
  100472:	8b 45 44             	mov    0x44(%ebp),%eax
  100475:	89 44 24 3c          	mov    %eax,0x3c(%esp)
  100479:	8b 45 fc             	mov    -0x4(%ebp),%eax
  10047c:	ff d0                	call   *%eax
  10047e:	c9                   	leave  
  10047f:	c3                   	ret    

00100480 <_D6kernel3x863isr17registerInterruptFhT6kernel3x863isr3isrZv>:
  100480:	55                   	push   %ebp
  100481:	89 e5                	mov    %esp,%ebp
  100483:	83 ec 28             	sub    $0x28,%esp
  100486:	0f b6 45 08          	movzbl 0x8(%ebp),%eax
  10048a:	3d 00 01 00 00       	cmp    $0x100,%eax
  10048f:	73 0c                	jae    10049d <_D6kernel3x863isr17registerInterruptFhT6kernel3x863isr3isrZv+0x1d>
  100491:	0f b6 45 08          	movzbl 0x8(%ebp),%eax
  100495:	c1 e0 02             	shl    $0x2,%eax
  100498:	89 45 f4             	mov    %eax,-0xc(%ebp)
  10049b:	eb 28                	jmp    1004c5 <_D6kernel3x863isr17registerInterruptFhT6kernel3x863isr3isrZv+0x45>
  10049d:	c7 45 f8 10 00 00 00 	movl   $0x10,-0x8(%ebp)
  1004a4:	c7 45 fc 21 5c 10 00 	movl   $0x105c21,-0x4(%ebp)
  1004ab:	c7 44 24 08 37 00 00 	movl   $0x37,0x8(%esp)
  1004b2:	00 
  1004b3:	8b 45 f8             	mov    -0x8(%ebp),%eax
  1004b6:	8b 55 fc             	mov    -0x4(%ebp),%edx
  1004b9:	89 04 24             	mov    %eax,(%esp)
  1004bc:	89 54 24 04          	mov    %edx,0x4(%esp)
  1004c0:	e8 01 24 00 00       	call   1028c6 <_d_array_bounds>
  1004c5:	8b 55 f4             	mov    -0xc(%ebp),%edx
  1004c8:	81 c2 80 a4 10 00    	add    $0x10a480,%edx
  1004ce:	8b 45 0c             	mov    0xc(%ebp),%eax
  1004d1:	89 02                	mov    %eax,(%edx)
  1004d3:	c9                   	leave  
  1004d4:	c3                   	ret    
  1004d5:	00 00                	add    %al,(%eax)
	...

001004d8 <_D6kernel3pit9initTimerFkZv>:
  1004d8:	55                   	push   %ebp
  1004d9:	89 e5                	mov    %esp,%ebp
  1004db:	83 ec 28             	sub    $0x28,%esp
  1004de:	b8 50 05 10 00       	mov    $0x100550,%eax
  1004e3:	89 44 24 04          	mov    %eax,0x4(%esp)
  1004e7:	c7 04 24 20 00 00 00 	movl   $0x20,(%esp)
  1004ee:	e8 8d ff ff ff       	call   100480 <_D6kernel3x863isr17registerInterruptFhT6kernel3x863isr3isrZv>
  1004f3:	b8 dc 34 12 00       	mov    $0x1234dc,%eax
  1004f8:	ba 00 00 00 00       	mov    $0x0,%edx
  1004fd:	f7 75 08             	divl   0x8(%ebp)
  100500:	89 45 fc             	mov    %eax,-0x4(%ebp)
  100503:	c7 44 24 04 36 00 00 	movl   $0x36,0x4(%esp)
  10050a:	00 
  10050b:	c7 04 24 43 00 00 00 	movl   $0x43,(%esp)
  100512:	e8 8d fd ff ff       	call   1002a4 <_D6kernel2io4outbFthZv>
  100517:	8b 45 fc             	mov    -0x4(%ebp),%eax
  10051a:	88 45 fb             	mov    %al,-0x5(%ebp)
  10051d:	8b 45 fc             	mov    -0x4(%ebp),%eax
  100520:	c1 e8 08             	shr    $0x8,%eax
  100523:	88 45 fa             	mov    %al,-0x6(%ebp)
  100526:	0f b6 45 fb          	movzbl -0x5(%ebp),%eax
  10052a:	89 44 24 04          	mov    %eax,0x4(%esp)
  10052e:	c7 04 24 40 00 00 00 	movl   $0x40,(%esp)
  100535:	e8 6a fd ff ff       	call   1002a4 <_D6kernel2io4outbFthZv>
  10053a:	0f b6 45 fa          	movzbl -0x6(%ebp),%eax
  10053e:	89 44 24 04          	mov    %eax,0x4(%esp)
  100542:	c7 04 24 40 00 00 00 	movl   $0x40,(%esp)
  100549:	e8 56 fd ff ff       	call   1002a4 <_D6kernel2io4outbFthZv>
  10054e:	c9                   	leave  
  10054f:	c3                   	ret    

00100550 <_D6kernel3pit13timerCallbackFS6kernel3x863isr9registersZv>:
  100550:	55                   	push   %ebp
  100551:	89 e5                	mov    %esp,%ebp
  100553:	83 ec 08             	sub    $0x8,%esp
  100556:	a1 80 a8 10 00       	mov    0x10a880,%eax
  10055b:	83 c0 01             	add    $0x1,%eax
  10055e:	a3 80 a8 10 00       	mov    %eax,0x10a880
  100563:	c7 04 24 45 5c 10 00 	movl   $0x105c45,(%esp)
  10056a:	e8 20 0f 00 00       	call   10148f <_D5video4text4text4putsFPaZv>
  10056f:	a1 80 a8 10 00       	mov    0x10a880,%eax
  100574:	89 04 24             	mov    %eax,(%esp)
  100577:	e8 ed 0f 00 00       	call   101569 <_D5video4text4text6printdFkZv>
  10057c:	c7 04 24 0a 00 00 00 	movl   $0xa,(%esp)
  100583:	e8 ba 0e 00 00       	call   101442 <_D5video4text4text4putcFaZv>
  100588:	c9                   	leave  
  100589:	c3                   	ret    
	...

0010058c <_D6kernel3x863idt7initIdtFZv>:
  10058c:	55                   	push   %ebp
  10058d:	89 e5                	mov    %esp,%ebp
  10058f:	83 ec 18             	sub    $0x18,%esp
  100592:	c7 44 24 04 11 00 00 	movl   $0x11,0x4(%esp)
  100599:	00 
  10059a:	c7 04 24 20 00 00 00 	movl   $0x20,(%esp)
  1005a1:	e8 fe fc ff ff       	call   1002a4 <_D6kernel2io4outbFthZv>
  1005a6:	c7 44 24 04 11 00 00 	movl   $0x11,0x4(%esp)
  1005ad:	00 
  1005ae:	c7 04 24 a0 00 00 00 	movl   $0xa0,(%esp)
  1005b5:	e8 ea fc ff ff       	call   1002a4 <_D6kernel2io4outbFthZv>
  1005ba:	c7 44 24 04 20 00 00 	movl   $0x20,0x4(%esp)
  1005c1:	00 
  1005c2:	c7 04 24 21 00 00 00 	movl   $0x21,(%esp)
  1005c9:	e8 d6 fc ff ff       	call   1002a4 <_D6kernel2io4outbFthZv>
  1005ce:	c7 44 24 04 28 00 00 	movl   $0x28,0x4(%esp)
  1005d5:	00 
  1005d6:	c7 04 24 a1 00 00 00 	movl   $0xa1,(%esp)
  1005dd:	e8 c2 fc ff ff       	call   1002a4 <_D6kernel2io4outbFthZv>
  1005e2:	c7 44 24 04 04 00 00 	movl   $0x4,0x4(%esp)
  1005e9:	00 
  1005ea:	c7 04 24 21 00 00 00 	movl   $0x21,(%esp)
  1005f1:	e8 ae fc ff ff       	call   1002a4 <_D6kernel2io4outbFthZv>
  1005f6:	c7 44 24 04 02 00 00 	movl   $0x2,0x4(%esp)
  1005fd:	00 
  1005fe:	c7 04 24 a1 00 00 00 	movl   $0xa1,(%esp)
  100605:	e8 9a fc ff ff       	call   1002a4 <_D6kernel2io4outbFthZv>
  10060a:	c7 44 24 04 01 00 00 	movl   $0x1,0x4(%esp)
  100611:	00 
  100612:	c7 04 24 21 00 00 00 	movl   $0x21,(%esp)
  100619:	e8 86 fc ff ff       	call   1002a4 <_D6kernel2io4outbFthZv>
  10061e:	c7 44 24 04 01 00 00 	movl   $0x1,0x4(%esp)
  100625:	00 
  100626:	c7 04 24 a1 00 00 00 	movl   $0xa1,(%esp)
  10062d:	e8 72 fc ff ff       	call   1002a4 <_D6kernel2io4outbFthZv>
  100632:	c7 44 24 04 00 00 00 	movl   $0x0,0x4(%esp)
  100639:	00 
  10063a:	c7 04 24 21 00 00 00 	movl   $0x21,(%esp)
  100641:	e8 5e fc ff ff       	call   1002a4 <_D6kernel2io4outbFthZv>
  100646:	c7 44 24 04 00 00 00 	movl   $0x0,0x4(%esp)
  10064d:	00 
  10064e:	c7 04 24 a1 00 00 00 	movl   $0xa1,(%esp)
  100655:	e8 4a fc ff ff       	call   1002a4 <_D6kernel2io4outbFthZv>
  10065a:	66 c7 05 c0 b0 10 00 	movw   $0x7ff,0x10b0c0
  100661:	ff 07 
  100663:	b8 c0 a8 10 00       	mov    $0x10a8c0,%eax
  100668:	a3 c2 b0 10 00       	mov    %eax,0x10b0c2
  10066d:	c7 44 24 08 00 08 00 	movl   $0x800,0x8(%esp)
  100674:	00 
  100675:	c7 44 24 04 00 00 00 	movl   $0x0,0x4(%esp)
  10067c:	00 
  10067d:	c7 04 24 c0 a8 10 00 	movl   $0x10a8c0,(%esp)
  100684:	e8 13 55 00 00       	call   105b9c <_D6common6memsetFPvhkZv>
  100689:	b8 50 00 10 00       	mov    $0x100050,%eax
  10068e:	c7 44 24 0c 8e 00 00 	movl   $0x8e,0xc(%esp)
  100695:	00 
  100696:	c7 44 24 08 08 00 00 	movl   $0x8,0x8(%esp)
  10069d:	00 
  10069e:	89 44 24 04          	mov    %eax,0x4(%esp)
  1006a2:	c7 04 24 00 00 00 00 	movl   $0x0,(%esp)
  1006a9:	e8 da 06 00 00       	call   100d88 <_D6kernel3x863idt6idtSetFhkthZv>
  1006ae:	b8 5a 00 10 00       	mov    $0x10005a,%eax
  1006b3:	c7 44 24 0c 8e 00 00 	movl   $0x8e,0xc(%esp)
  1006ba:	00 
  1006bb:	c7 44 24 08 08 00 00 	movl   $0x8,0x8(%esp)
  1006c2:	00 
  1006c3:	89 44 24 04          	mov    %eax,0x4(%esp)
  1006c7:	c7 04 24 01 00 00 00 	movl   $0x1,(%esp)
  1006ce:	e8 b5 06 00 00       	call   100d88 <_D6kernel3x863idt6idtSetFhkthZv>
  1006d3:	b8 64 00 10 00       	mov    $0x100064,%eax
  1006d8:	c7 44 24 0c 8e 00 00 	movl   $0x8e,0xc(%esp)
  1006df:	00 
  1006e0:	c7 44 24 08 08 00 00 	movl   $0x8,0x8(%esp)
  1006e7:	00 
  1006e8:	89 44 24 04          	mov    %eax,0x4(%esp)
  1006ec:	c7 04 24 02 00 00 00 	movl   $0x2,(%esp)
  1006f3:	e8 90 06 00 00       	call   100d88 <_D6kernel3x863idt6idtSetFhkthZv>
  1006f8:	b8 6e 00 10 00       	mov    $0x10006e,%eax
  1006fd:	c7 44 24 0c 8e 00 00 	movl   $0x8e,0xc(%esp)
  100704:	00 
  100705:	c7 44 24 08 08 00 00 	movl   $0x8,0x8(%esp)
  10070c:	00 
  10070d:	89 44 24 04          	mov    %eax,0x4(%esp)
  100711:	c7 04 24 03 00 00 00 	movl   $0x3,(%esp)
  100718:	e8 6b 06 00 00       	call   100d88 <_D6kernel3x863idt6idtSetFhkthZv>
  10071d:	b8 78 00 10 00       	mov    $0x100078,%eax
  100722:	c7 44 24 0c 8e 00 00 	movl   $0x8e,0xc(%esp)
  100729:	00 
  10072a:	c7 44 24 08 08 00 00 	movl   $0x8,0x8(%esp)
  100731:	00 
  100732:	89 44 24 04          	mov    %eax,0x4(%esp)
  100736:	c7 04 24 04 00 00 00 	movl   $0x4,(%esp)
  10073d:	e8 46 06 00 00       	call   100d88 <_D6kernel3x863idt6idtSetFhkthZv>
  100742:	b8 82 00 10 00       	mov    $0x100082,%eax
  100747:	c7 44 24 0c 8e 00 00 	movl   $0x8e,0xc(%esp)
  10074e:	00 
  10074f:	c7 44 24 08 08 00 00 	movl   $0x8,0x8(%esp)
  100756:	00 
  100757:	89 44 24 04          	mov    %eax,0x4(%esp)
  10075b:	c7 04 24 05 00 00 00 	movl   $0x5,(%esp)
  100762:	e8 21 06 00 00       	call   100d88 <_D6kernel3x863idt6idtSetFhkthZv>
  100767:	b8 8c 00 10 00       	mov    $0x10008c,%eax
  10076c:	c7 44 24 0c 8e 00 00 	movl   $0x8e,0xc(%esp)
  100773:	00 
  100774:	c7 44 24 08 08 00 00 	movl   $0x8,0x8(%esp)
  10077b:	00 
  10077c:	89 44 24 04          	mov    %eax,0x4(%esp)
  100780:	c7 04 24 06 00 00 00 	movl   $0x6,(%esp)
  100787:	e8 fc 05 00 00       	call   100d88 <_D6kernel3x863idt6idtSetFhkthZv>
  10078c:	b8 96 00 10 00       	mov    $0x100096,%eax
  100791:	c7 44 24 0c 8e 00 00 	movl   $0x8e,0xc(%esp)
  100798:	00 
  100799:	c7 44 24 08 08 00 00 	movl   $0x8,0x8(%esp)
  1007a0:	00 
  1007a1:	89 44 24 04          	mov    %eax,0x4(%esp)
  1007a5:	c7 04 24 07 00 00 00 	movl   $0x7,(%esp)
  1007ac:	e8 d7 05 00 00       	call   100d88 <_D6kernel3x863idt6idtSetFhkthZv>
  1007b1:	b8 a0 00 10 00       	mov    $0x1000a0,%eax
  1007b6:	c7 44 24 0c 8e 00 00 	movl   $0x8e,0xc(%esp)
  1007bd:	00 
  1007be:	c7 44 24 08 08 00 00 	movl   $0x8,0x8(%esp)
  1007c5:	00 
  1007c6:	89 44 24 04          	mov    %eax,0x4(%esp)
  1007ca:	c7 04 24 08 00 00 00 	movl   $0x8,(%esp)
  1007d1:	e8 b2 05 00 00       	call   100d88 <_D6kernel3x863idt6idtSetFhkthZv>
  1007d6:	b8 a8 00 10 00       	mov    $0x1000a8,%eax
  1007db:	c7 44 24 0c 8e 00 00 	movl   $0x8e,0xc(%esp)
  1007e2:	00 
  1007e3:	c7 44 24 08 08 00 00 	movl   $0x8,0x8(%esp)
  1007ea:	00 
  1007eb:	89 44 24 04          	mov    %eax,0x4(%esp)
  1007ef:	c7 04 24 09 00 00 00 	movl   $0x9,(%esp)
  1007f6:	e8 8d 05 00 00       	call   100d88 <_D6kernel3x863idt6idtSetFhkthZv>
  1007fb:	b8 b2 00 10 00       	mov    $0x1000b2,%eax
  100800:	c7 44 24 0c 8e 00 00 	movl   $0x8e,0xc(%esp)
  100807:	00 
  100808:	c7 44 24 08 08 00 00 	movl   $0x8,0x8(%esp)
  10080f:	00 
  100810:	89 44 24 04          	mov    %eax,0x4(%esp)
  100814:	c7 04 24 0a 00 00 00 	movl   $0xa,(%esp)
  10081b:	e8 68 05 00 00       	call   100d88 <_D6kernel3x863idt6idtSetFhkthZv>
  100820:	b8 ba 00 10 00       	mov    $0x1000ba,%eax
  100825:	c7 44 24 0c 8e 00 00 	movl   $0x8e,0xc(%esp)
  10082c:	00 
  10082d:	c7 44 24 08 08 00 00 	movl   $0x8,0x8(%esp)
  100834:	00 
  100835:	89 44 24 04          	mov    %eax,0x4(%esp)
  100839:	c7 04 24 0b 00 00 00 	movl   $0xb,(%esp)
  100840:	e8 43 05 00 00       	call   100d88 <_D6kernel3x863idt6idtSetFhkthZv>
  100845:	b8 c2 00 10 00       	mov    $0x1000c2,%eax
  10084a:	c7 44 24 0c 8e 00 00 	movl   $0x8e,0xc(%esp)
  100851:	00 
  100852:	c7 44 24 08 08 00 00 	movl   $0x8,0x8(%esp)
  100859:	00 
  10085a:	89 44 24 04          	mov    %eax,0x4(%esp)
  10085e:	c7 04 24 0c 00 00 00 	movl   $0xc,(%esp)
  100865:	e8 1e 05 00 00       	call   100d88 <_D6kernel3x863idt6idtSetFhkthZv>
  10086a:	b8 ca 00 10 00       	mov    $0x1000ca,%eax
  10086f:	c7 44 24 0c 8e 00 00 	movl   $0x8e,0xc(%esp)
  100876:	00 
  100877:	c7 44 24 08 08 00 00 	movl   $0x8,0x8(%esp)
  10087e:	00 
  10087f:	89 44 24 04          	mov    %eax,0x4(%esp)
  100883:	c7 04 24 0d 00 00 00 	movl   $0xd,(%esp)
  10088a:	e8 f9 04 00 00       	call   100d88 <_D6kernel3x863idt6idtSetFhkthZv>
  10088f:	b8 d2 00 10 00       	mov    $0x1000d2,%eax
  100894:	c7 44 24 0c 8e 00 00 	movl   $0x8e,0xc(%esp)
  10089b:	00 
  10089c:	c7 44 24 08 08 00 00 	movl   $0x8,0x8(%esp)
  1008a3:	00 
  1008a4:	89 44 24 04          	mov    %eax,0x4(%esp)
  1008a8:	c7 04 24 0e 00 00 00 	movl   $0xe,(%esp)
  1008af:	e8 d4 04 00 00       	call   100d88 <_D6kernel3x863idt6idtSetFhkthZv>
  1008b4:	b8 da 00 10 00       	mov    $0x1000da,%eax
  1008b9:	c7 44 24 0c 8e 00 00 	movl   $0x8e,0xc(%esp)
  1008c0:	00 
  1008c1:	c7 44 24 08 08 00 00 	movl   $0x8,0x8(%esp)
  1008c8:	00 
  1008c9:	89 44 24 04          	mov    %eax,0x4(%esp)
  1008cd:	c7 04 24 0f 00 00 00 	movl   $0xf,(%esp)
  1008d4:	e8 af 04 00 00       	call   100d88 <_D6kernel3x863idt6idtSetFhkthZv>
  1008d9:	b8 e4 00 10 00       	mov    $0x1000e4,%eax
  1008de:	c7 44 24 0c 8e 00 00 	movl   $0x8e,0xc(%esp)
  1008e5:	00 
  1008e6:	c7 44 24 08 08 00 00 	movl   $0x8,0x8(%esp)
  1008ed:	00 
  1008ee:	89 44 24 04          	mov    %eax,0x4(%esp)
  1008f2:	c7 04 24 10 00 00 00 	movl   $0x10,(%esp)
  1008f9:	e8 8a 04 00 00       	call   100d88 <_D6kernel3x863idt6idtSetFhkthZv>
  1008fe:	b8 ee 00 10 00       	mov    $0x1000ee,%eax
  100903:	c7 44 24 0c 8e 00 00 	movl   $0x8e,0xc(%esp)
  10090a:	00 
  10090b:	c7 44 24 08 08 00 00 	movl   $0x8,0x8(%esp)
  100912:	00 
  100913:	89 44 24 04          	mov    %eax,0x4(%esp)
  100917:	c7 04 24 11 00 00 00 	movl   $0x11,(%esp)
  10091e:	e8 65 04 00 00       	call   100d88 <_D6kernel3x863idt6idtSetFhkthZv>
  100923:	b8 f8 00 10 00       	mov    $0x1000f8,%eax
  100928:	c7 44 24 0c 8e 00 00 	movl   $0x8e,0xc(%esp)
  10092f:	00 
  100930:	c7 44 24 08 08 00 00 	movl   $0x8,0x8(%esp)
  100937:	00 
  100938:	89 44 24 04          	mov    %eax,0x4(%esp)
  10093c:	c7 04 24 12 00 00 00 	movl   $0x12,(%esp)
  100943:	e8 40 04 00 00       	call   100d88 <_D6kernel3x863idt6idtSetFhkthZv>
  100948:	b8 02 01 10 00       	mov    $0x100102,%eax
  10094d:	c7 44 24 0c 8e 00 00 	movl   $0x8e,0xc(%esp)
  100954:	00 
  100955:	c7 44 24 08 08 00 00 	movl   $0x8,0x8(%esp)
  10095c:	00 
  10095d:	89 44 24 04          	mov    %eax,0x4(%esp)
  100961:	c7 04 24 13 00 00 00 	movl   $0x13,(%esp)
  100968:	e8 1b 04 00 00       	call   100d88 <_D6kernel3x863idt6idtSetFhkthZv>
  10096d:	b8 0c 01 10 00       	mov    $0x10010c,%eax
  100972:	c7 44 24 0c 8e 00 00 	movl   $0x8e,0xc(%esp)
  100979:	00 
  10097a:	c7 44 24 08 08 00 00 	movl   $0x8,0x8(%esp)
  100981:	00 
  100982:	89 44 24 04          	mov    %eax,0x4(%esp)
  100986:	c7 04 24 14 00 00 00 	movl   $0x14,(%esp)
  10098d:	e8 f6 03 00 00       	call   100d88 <_D6kernel3x863idt6idtSetFhkthZv>
  100992:	b8 16 01 10 00       	mov    $0x100116,%eax
  100997:	c7 44 24 0c 8e 00 00 	movl   $0x8e,0xc(%esp)
  10099e:	00 
  10099f:	c7 44 24 08 08 00 00 	movl   $0x8,0x8(%esp)
  1009a6:	00 
  1009a7:	89 44 24 04          	mov    %eax,0x4(%esp)
  1009ab:	c7 04 24 15 00 00 00 	movl   $0x15,(%esp)
  1009b2:	e8 d1 03 00 00       	call   100d88 <_D6kernel3x863idt6idtSetFhkthZv>
  1009b7:	b8 20 01 10 00       	mov    $0x100120,%eax
  1009bc:	c7 44 24 0c 8e 00 00 	movl   $0x8e,0xc(%esp)
  1009c3:	00 
  1009c4:	c7 44 24 08 08 00 00 	movl   $0x8,0x8(%esp)
  1009cb:	00 
  1009cc:	89 44 24 04          	mov    %eax,0x4(%esp)
  1009d0:	c7 04 24 16 00 00 00 	movl   $0x16,(%esp)
  1009d7:	e8 ac 03 00 00       	call   100d88 <_D6kernel3x863idt6idtSetFhkthZv>
  1009dc:	b8 2a 01 10 00       	mov    $0x10012a,%eax
  1009e1:	c7 44 24 0c 8e 00 00 	movl   $0x8e,0xc(%esp)
  1009e8:	00 
  1009e9:	c7 44 24 08 08 00 00 	movl   $0x8,0x8(%esp)
  1009f0:	00 
  1009f1:	89 44 24 04          	mov    %eax,0x4(%esp)
  1009f5:	c7 04 24 17 00 00 00 	movl   $0x17,(%esp)
  1009fc:	e8 87 03 00 00       	call   100d88 <_D6kernel3x863idt6idtSetFhkthZv>
  100a01:	b8 34 01 10 00       	mov    $0x100134,%eax
  100a06:	c7 44 24 0c 8e 00 00 	movl   $0x8e,0xc(%esp)
  100a0d:	00 
  100a0e:	c7 44 24 08 08 00 00 	movl   $0x8,0x8(%esp)
  100a15:	00 
  100a16:	89 44 24 04          	mov    %eax,0x4(%esp)
  100a1a:	c7 04 24 18 00 00 00 	movl   $0x18,(%esp)
  100a21:	e8 62 03 00 00       	call   100d88 <_D6kernel3x863idt6idtSetFhkthZv>
  100a26:	b8 3e 01 10 00       	mov    $0x10013e,%eax
  100a2b:	c7 44 24 0c 8e 00 00 	movl   $0x8e,0xc(%esp)
  100a32:	00 
  100a33:	c7 44 24 08 08 00 00 	movl   $0x8,0x8(%esp)
  100a3a:	00 
  100a3b:	89 44 24 04          	mov    %eax,0x4(%esp)
  100a3f:	c7 04 24 19 00 00 00 	movl   $0x19,(%esp)
  100a46:	e8 3d 03 00 00       	call   100d88 <_D6kernel3x863idt6idtSetFhkthZv>
  100a4b:	b8 48 01 10 00       	mov    $0x100148,%eax
  100a50:	c7 44 24 0c 8e 00 00 	movl   $0x8e,0xc(%esp)
  100a57:	00 
  100a58:	c7 44 24 08 08 00 00 	movl   $0x8,0x8(%esp)
  100a5f:	00 
  100a60:	89 44 24 04          	mov    %eax,0x4(%esp)
  100a64:	c7 04 24 1a 00 00 00 	movl   $0x1a,(%esp)
  100a6b:	e8 18 03 00 00       	call   100d88 <_D6kernel3x863idt6idtSetFhkthZv>
  100a70:	b8 52 01 10 00       	mov    $0x100152,%eax
  100a75:	c7 44 24 0c 8e 00 00 	movl   $0x8e,0xc(%esp)
  100a7c:	00 
  100a7d:	c7 44 24 08 08 00 00 	movl   $0x8,0x8(%esp)
  100a84:	00 
  100a85:	89 44 24 04          	mov    %eax,0x4(%esp)
  100a89:	c7 04 24 1b 00 00 00 	movl   $0x1b,(%esp)
  100a90:	e8 f3 02 00 00       	call   100d88 <_D6kernel3x863idt6idtSetFhkthZv>
  100a95:	b8 5c 01 10 00       	mov    $0x10015c,%eax
  100a9a:	c7 44 24 0c 8e 00 00 	movl   $0x8e,0xc(%esp)
  100aa1:	00 
  100aa2:	c7 44 24 08 08 00 00 	movl   $0x8,0x8(%esp)
  100aa9:	00 
  100aaa:	89 44 24 04          	mov    %eax,0x4(%esp)
  100aae:	c7 04 24 1c 00 00 00 	movl   $0x1c,(%esp)
  100ab5:	e8 ce 02 00 00       	call   100d88 <_D6kernel3x863idt6idtSetFhkthZv>
  100aba:	b8 66 01 10 00       	mov    $0x100166,%eax
  100abf:	c7 44 24 0c 8e 00 00 	movl   $0x8e,0xc(%esp)
  100ac6:	00 
  100ac7:	c7 44 24 08 08 00 00 	movl   $0x8,0x8(%esp)
  100ace:	00 
  100acf:	89 44 24 04          	mov    %eax,0x4(%esp)
  100ad3:	c7 04 24 1d 00 00 00 	movl   $0x1d,(%esp)
  100ada:	e8 a9 02 00 00       	call   100d88 <_D6kernel3x863idt6idtSetFhkthZv>
  100adf:	b8 70 01 10 00       	mov    $0x100170,%eax
  100ae4:	c7 44 24 0c 8e 00 00 	movl   $0x8e,0xc(%esp)
  100aeb:	00 
  100aec:	c7 44 24 08 08 00 00 	movl   $0x8,0x8(%esp)
  100af3:	00 
  100af4:	89 44 24 04          	mov    %eax,0x4(%esp)
  100af8:	c7 04 24 1e 00 00 00 	movl   $0x1e,(%esp)
  100aff:	e8 84 02 00 00       	call   100d88 <_D6kernel3x863idt6idtSetFhkthZv>
  100b04:	b8 7a 01 10 00       	mov    $0x10017a,%eax
  100b09:	c7 44 24 0c 8e 00 00 	movl   $0x8e,0xc(%esp)
  100b10:	00 
  100b11:	c7 44 24 08 08 00 00 	movl   $0x8,0x8(%esp)
  100b18:	00 
  100b19:	89 44 24 04          	mov    %eax,0x4(%esp)
  100b1d:	c7 04 24 1f 00 00 00 	movl   $0x1f,(%esp)
  100b24:	e8 5f 02 00 00       	call   100d88 <_D6kernel3x863idt6idtSetFhkthZv>
  100b29:	b8 84 01 10 00       	mov    $0x100184,%eax
  100b2e:	c7 44 24 0c 8e 00 00 	movl   $0x8e,0xc(%esp)
  100b35:	00 
  100b36:	c7 44 24 08 08 00 00 	movl   $0x8,0x8(%esp)
  100b3d:	00 
  100b3e:	89 44 24 04          	mov    %eax,0x4(%esp)
  100b42:	c7 04 24 20 00 00 00 	movl   $0x20,(%esp)
  100b49:	e8 3a 02 00 00       	call   100d88 <_D6kernel3x863idt6idtSetFhkthZv>
  100b4e:	b8 8e 01 10 00       	mov    $0x10018e,%eax
  100b53:	c7 44 24 0c 8e 00 00 	movl   $0x8e,0xc(%esp)
  100b5a:	00 
  100b5b:	c7 44 24 08 08 00 00 	movl   $0x8,0x8(%esp)
  100b62:	00 
  100b63:	89 44 24 04          	mov    %eax,0x4(%esp)
  100b67:	c7 04 24 21 00 00 00 	movl   $0x21,(%esp)
  100b6e:	e8 15 02 00 00       	call   100d88 <_D6kernel3x863idt6idtSetFhkthZv>
  100b73:	b8 98 01 10 00       	mov    $0x100198,%eax
  100b78:	c7 44 24 0c 8e 00 00 	movl   $0x8e,0xc(%esp)
  100b7f:	00 
  100b80:	c7 44 24 08 08 00 00 	movl   $0x8,0x8(%esp)
  100b87:	00 
  100b88:	89 44 24 04          	mov    %eax,0x4(%esp)
  100b8c:	c7 04 24 22 00 00 00 	movl   $0x22,(%esp)
  100b93:	e8 f0 01 00 00       	call   100d88 <_D6kernel3x863idt6idtSetFhkthZv>
  100b98:	b8 a2 01 10 00       	mov    $0x1001a2,%eax
  100b9d:	c7 44 24 0c 8e 00 00 	movl   $0x8e,0xc(%esp)
  100ba4:	00 
  100ba5:	c7 44 24 08 08 00 00 	movl   $0x8,0x8(%esp)
  100bac:	00 
  100bad:	89 44 24 04          	mov    %eax,0x4(%esp)
  100bb1:	c7 04 24 23 00 00 00 	movl   $0x23,(%esp)
  100bb8:	e8 cb 01 00 00       	call   100d88 <_D6kernel3x863idt6idtSetFhkthZv>
  100bbd:	b8 ac 01 10 00       	mov    $0x1001ac,%eax
  100bc2:	c7 44 24 0c 8e 00 00 	movl   $0x8e,0xc(%esp)
  100bc9:	00 
  100bca:	c7 44 24 08 08 00 00 	movl   $0x8,0x8(%esp)
  100bd1:	00 
  100bd2:	89 44 24 04          	mov    %eax,0x4(%esp)
  100bd6:	c7 04 24 24 00 00 00 	movl   $0x24,(%esp)
  100bdd:	e8 a6 01 00 00       	call   100d88 <_D6kernel3x863idt6idtSetFhkthZv>
  100be2:	b8 b6 01 10 00       	mov    $0x1001b6,%eax
  100be7:	c7 44 24 0c 8e 00 00 	movl   $0x8e,0xc(%esp)
  100bee:	00 
  100bef:	c7 44 24 08 08 00 00 	movl   $0x8,0x8(%esp)
  100bf6:	00 
  100bf7:	89 44 24 04          	mov    %eax,0x4(%esp)
  100bfb:	c7 04 24 25 00 00 00 	movl   $0x25,(%esp)
  100c02:	e8 81 01 00 00       	call   100d88 <_D6kernel3x863idt6idtSetFhkthZv>
  100c07:	b8 c0 01 10 00       	mov    $0x1001c0,%eax
  100c0c:	c7 44 24 0c 8e 00 00 	movl   $0x8e,0xc(%esp)
  100c13:	00 
  100c14:	c7 44 24 08 08 00 00 	movl   $0x8,0x8(%esp)
  100c1b:	00 
  100c1c:	89 44 24 04          	mov    %eax,0x4(%esp)
  100c20:	c7 04 24 26 00 00 00 	movl   $0x26,(%esp)
  100c27:	e8 5c 01 00 00       	call   100d88 <_D6kernel3x863idt6idtSetFhkthZv>
  100c2c:	b8 ca 01 10 00       	mov    $0x1001ca,%eax
  100c31:	c7 44 24 0c 8e 00 00 	movl   $0x8e,0xc(%esp)
  100c38:	00 
  100c39:	c7 44 24 08 08 00 00 	movl   $0x8,0x8(%esp)
  100c40:	00 
  100c41:	89 44 24 04          	mov    %eax,0x4(%esp)
  100c45:	c7 04 24 27 00 00 00 	movl   $0x27,(%esp)
  100c4c:	e8 37 01 00 00       	call   100d88 <_D6kernel3x863idt6idtSetFhkthZv>
  100c51:	b8 d4 01 10 00       	mov    $0x1001d4,%eax
  100c56:	c7 44 24 0c 8e 00 00 	movl   $0x8e,0xc(%esp)
  100c5d:	00 
  100c5e:	c7 44 24 08 08 00 00 	movl   $0x8,0x8(%esp)
  100c65:	00 
  100c66:	89 44 24 04          	mov    %eax,0x4(%esp)
  100c6a:	c7 04 24 28 00 00 00 	movl   $0x28,(%esp)
  100c71:	e8 12 01 00 00       	call   100d88 <_D6kernel3x863idt6idtSetFhkthZv>
  100c76:	b8 de 01 10 00       	mov    $0x1001de,%eax
  100c7b:	c7 44 24 0c 8e 00 00 	movl   $0x8e,0xc(%esp)
  100c82:	00 
  100c83:	c7 44 24 08 08 00 00 	movl   $0x8,0x8(%esp)
  100c8a:	00 
  100c8b:	89 44 24 04          	mov    %eax,0x4(%esp)
  100c8f:	c7 04 24 29 00 00 00 	movl   $0x29,(%esp)
  100c96:	e8 ed 00 00 00       	call   100d88 <_D6kernel3x863idt6idtSetFhkthZv>
  100c9b:	b8 e8 01 10 00       	mov    $0x1001e8,%eax
  100ca0:	c7 44 24 0c 8e 00 00 	movl   $0x8e,0xc(%esp)
  100ca7:	00 
  100ca8:	c7 44 24 08 08 00 00 	movl   $0x8,0x8(%esp)
  100caf:	00 
  100cb0:	89 44 24 04          	mov    %eax,0x4(%esp)
  100cb4:	c7 04 24 2a 00 00 00 	movl   $0x2a,(%esp)
  100cbb:	e8 c8 00 00 00       	call   100d88 <_D6kernel3x863idt6idtSetFhkthZv>
  100cc0:	b8 f2 01 10 00       	mov    $0x1001f2,%eax
  100cc5:	c7 44 24 0c 8e 00 00 	movl   $0x8e,0xc(%esp)
  100ccc:	00 
  100ccd:	c7 44 24 08 08 00 00 	movl   $0x8,0x8(%esp)
  100cd4:	00 
  100cd5:	89 44 24 04          	mov    %eax,0x4(%esp)
  100cd9:	c7 04 24 2b 00 00 00 	movl   $0x2b,(%esp)
  100ce0:	e8 a3 00 00 00       	call   100d88 <_D6kernel3x863idt6idtSetFhkthZv>
  100ce5:	b8 fc 01 10 00       	mov    $0x1001fc,%eax
  100cea:	c7 44 24 0c 8e 00 00 	movl   $0x8e,0xc(%esp)
  100cf1:	00 
  100cf2:	c7 44 24 08 08 00 00 	movl   $0x8,0x8(%esp)
  100cf9:	00 
  100cfa:	89 44 24 04          	mov    %eax,0x4(%esp)
  100cfe:	c7 04 24 2c 00 00 00 	movl   $0x2c,(%esp)
  100d05:	e8 7e 00 00 00       	call   100d88 <_D6kernel3x863idt6idtSetFhkthZv>
  100d0a:	b8 06 02 10 00       	mov    $0x100206,%eax
  100d0f:	c7 44 24 0c 8e 00 00 	movl   $0x8e,0xc(%esp)
  100d16:	00 
  100d17:	c7 44 24 08 08 00 00 	movl   $0x8,0x8(%esp)
  100d1e:	00 
  100d1f:	89 44 24 04          	mov    %eax,0x4(%esp)
  100d23:	c7 04 24 2d 00 00 00 	movl   $0x2d,(%esp)
  100d2a:	e8 59 00 00 00       	call   100d88 <_D6kernel3x863idt6idtSetFhkthZv>
  100d2f:	b8 10 02 10 00       	mov    $0x100210,%eax
  100d34:	c7 44 24 0c 8e 00 00 	movl   $0x8e,0xc(%esp)
  100d3b:	00 
  100d3c:	c7 44 24 08 08 00 00 	movl   $0x8,0x8(%esp)
  100d43:	00 
  100d44:	89 44 24 04          	mov    %eax,0x4(%esp)
  100d48:	c7 04 24 2e 00 00 00 	movl   $0x2e,(%esp)
  100d4f:	e8 34 00 00 00       	call   100d88 <_D6kernel3x863idt6idtSetFhkthZv>
  100d54:	b8 1a 02 10 00       	mov    $0x10021a,%eax
  100d59:	c7 44 24 0c 8e 00 00 	movl   $0x8e,0xc(%esp)
  100d60:	00 
  100d61:	c7 44 24 08 08 00 00 	movl   $0x8,0x8(%esp)
  100d68:	00 
  100d69:	89 44 24 04          	mov    %eax,0x4(%esp)
  100d6d:	c7 04 24 2f 00 00 00 	movl   $0x2f,(%esp)
  100d74:	e8 0f 00 00 00       	call   100d88 <_D6kernel3x863idt6idtSetFhkthZv>
  100d79:	b8 c0 b0 10 00       	mov    $0x10b0c0,%eax
  100d7e:	89 04 24             	mov    %eax,(%esp)
  100d81:	e8 ba f2 ff ff       	call   100040 <flushIdt>
  100d86:	c9                   	leave  
  100d87:	c3                   	ret    

00100d88 <_D6kernel3x863idt6idtSetFhkthZv>:
  100d88:	55                   	push   %ebp
  100d89:	89 e5                	mov    %esp,%ebp
  100d8b:	83 ec 68             	sub    $0x68,%esp
  100d8e:	0f b6 45 08          	movzbl 0x8(%ebp),%eax
  100d92:	3d 00 01 00 00       	cmp    $0x100,%eax
  100d97:	73 0c                	jae    100da5 <_D6kernel3x863idt6idtSetFhkthZv+0x1d>
  100d99:	0f b6 45 08          	movzbl 0x8(%ebp),%eax
  100d9d:	c1 e0 03             	shl    $0x3,%eax
  100da0:	89 45 b4             	mov    %eax,-0x4c(%ebp)
  100da3:	eb 28                	jmp    100dcd <_D6kernel3x863idt6idtSetFhkthZv+0x45>
  100da5:	c7 45 b8 10 00 00 00 	movl   $0x10,-0x48(%ebp)
  100dac:	c7 45 bc 4c 5c 10 00 	movl   $0x105c4c,-0x44(%ebp)
  100db3:	c7 44 24 08 90 00 00 	movl   $0x90,0x8(%esp)
  100dba:	00 
  100dbb:	8b 45 b8             	mov    -0x48(%ebp),%eax
  100dbe:	8b 55 bc             	mov    -0x44(%ebp),%edx
  100dc1:	89 04 24             	mov    %eax,(%esp)
  100dc4:	89 54 24 04          	mov    %edx,0x4(%esp)
  100dc8:	e8 f9 1a 00 00       	call   1028c6 <_d_array_bounds>
  100dcd:	8b 55 b4             	mov    -0x4c(%ebp),%edx
  100dd0:	81 c2 c0 a8 10 00    	add    $0x10a8c0,%edx
  100dd6:	8b 45 0c             	mov    0xc(%ebp),%eax
  100dd9:	66 89 02             	mov    %ax,(%edx)
  100ddc:	0f b6 45 08          	movzbl 0x8(%ebp),%eax
  100de0:	3d 00 01 00 00       	cmp    $0x100,%eax
  100de5:	73 0c                	jae    100df3 <_D6kernel3x863idt6idtSetFhkthZv+0x6b>
  100de7:	0f b6 45 08          	movzbl 0x8(%ebp),%eax
  100deb:	c1 e0 03             	shl    $0x3,%eax
  100dee:	89 45 c4             	mov    %eax,-0x3c(%ebp)
  100df1:	eb 28                	jmp    100e1b <_D6kernel3x863idt6idtSetFhkthZv+0x93>
  100df3:	c7 45 c8 10 00 00 00 	movl   $0x10,-0x38(%ebp)
  100dfa:	c7 45 cc 4c 5c 10 00 	movl   $0x105c4c,-0x34(%ebp)
  100e01:	c7 44 24 08 91 00 00 	movl   $0x91,0x8(%esp)
  100e08:	00 
  100e09:	8b 45 c8             	mov    -0x38(%ebp),%eax
  100e0c:	8b 55 cc             	mov    -0x34(%ebp),%edx
  100e0f:	89 04 24             	mov    %eax,(%esp)
  100e12:	89 54 24 04          	mov    %edx,0x4(%esp)
  100e16:	e8 ab 1a 00 00       	call   1028c6 <_d_array_bounds>
  100e1b:	8b 55 c4             	mov    -0x3c(%ebp),%edx
  100e1e:	81 c2 c0 a8 10 00    	add    $0x10a8c0,%edx
  100e24:	8b 45 0c             	mov    0xc(%ebp),%eax
  100e27:	c1 e8 10             	shr    $0x10,%eax
  100e2a:	66 89 42 06          	mov    %ax,0x6(%edx)
  100e2e:	0f b6 45 08          	movzbl 0x8(%ebp),%eax
  100e32:	3d 00 01 00 00       	cmp    $0x100,%eax
  100e37:	73 0c                	jae    100e45 <_D6kernel3x863idt6idtSetFhkthZv+0xbd>
  100e39:	0f b6 45 08          	movzbl 0x8(%ebp),%eax
  100e3d:	c1 e0 03             	shl    $0x3,%eax
  100e40:	89 45 d4             	mov    %eax,-0x2c(%ebp)
  100e43:	eb 28                	jmp    100e6d <_D6kernel3x863idt6idtSetFhkthZv+0xe5>
  100e45:	c7 45 d8 10 00 00 00 	movl   $0x10,-0x28(%ebp)
  100e4c:	c7 45 dc 4c 5c 10 00 	movl   $0x105c4c,-0x24(%ebp)
  100e53:	c7 44 24 08 93 00 00 	movl   $0x93,0x8(%esp)
  100e5a:	00 
  100e5b:	8b 45 d8             	mov    -0x28(%ebp),%eax
  100e5e:	8b 55 dc             	mov    -0x24(%ebp),%edx
  100e61:	89 04 24             	mov    %eax,(%esp)
  100e64:	89 54 24 04          	mov    %edx,0x4(%esp)
  100e68:	e8 59 1a 00 00       	call   1028c6 <_d_array_bounds>
  100e6d:	8b 45 d4             	mov    -0x2c(%ebp),%eax
  100e70:	05 c0 a8 10 00       	add    $0x10a8c0,%eax
  100e75:	0f b7 55 10          	movzwl 0x10(%ebp),%edx
  100e79:	66 89 50 02          	mov    %dx,0x2(%eax)
  100e7d:	0f b6 45 08          	movzbl 0x8(%ebp),%eax
  100e81:	3d 00 01 00 00       	cmp    $0x100,%eax
  100e86:	73 0c                	jae    100e94 <_D6kernel3x863idt6idtSetFhkthZv+0x10c>
  100e88:	0f b6 45 08          	movzbl 0x8(%ebp),%eax
  100e8c:	c1 e0 03             	shl    $0x3,%eax
  100e8f:	89 45 e4             	mov    %eax,-0x1c(%ebp)
  100e92:	eb 28                	jmp    100ebc <_D6kernel3x863idt6idtSetFhkthZv+0x134>
  100e94:	c7 45 e8 10 00 00 00 	movl   $0x10,-0x18(%ebp)
  100e9b:	c7 45 ec 4c 5c 10 00 	movl   $0x105c4c,-0x14(%ebp)
  100ea2:	c7 44 24 08 94 00 00 	movl   $0x94,0x8(%esp)
  100ea9:	00 
  100eaa:	8b 45 e8             	mov    -0x18(%ebp),%eax
  100ead:	8b 55 ec             	mov    -0x14(%ebp),%edx
  100eb0:	89 04 24             	mov    %eax,(%esp)
  100eb3:	89 54 24 04          	mov    %edx,0x4(%esp)
  100eb7:	e8 0a 1a 00 00       	call   1028c6 <_d_array_bounds>
  100ebc:	8b 45 e4             	mov    -0x1c(%ebp),%eax
  100ebf:	05 c0 a8 10 00       	add    $0x10a8c0,%eax
  100ec4:	c6 40 04 00          	movb   $0x0,0x4(%eax)
  100ec8:	0f b6 45 08          	movzbl 0x8(%ebp),%eax
  100ecc:	3d 00 01 00 00       	cmp    $0x100,%eax
  100ed1:	73 0c                	jae    100edf <_D6kernel3x863idt6idtSetFhkthZv+0x157>
  100ed3:	0f b6 45 08          	movzbl 0x8(%ebp),%eax
  100ed7:	c1 e0 03             	shl    $0x3,%eax
  100eda:	89 45 f4             	mov    %eax,-0xc(%ebp)
  100edd:	eb 28                	jmp    100f07 <_D6kernel3x863idt6idtSetFhkthZv+0x17f>
  100edf:	c7 45 f8 10 00 00 00 	movl   $0x10,-0x8(%ebp)
  100ee6:	c7 45 fc 4c 5c 10 00 	movl   $0x105c4c,-0x4(%ebp)
  100eed:	c7 44 24 08 96 00 00 	movl   $0x96,0x8(%esp)
  100ef4:	00 
  100ef5:	8b 45 f8             	mov    -0x8(%ebp),%eax
  100ef8:	8b 55 fc             	mov    -0x4(%ebp),%edx
  100efb:	89 04 24             	mov    %eax,(%esp)
  100efe:	89 54 24 04          	mov    %edx,0x4(%esp)
  100f02:	e8 bf 19 00 00       	call   1028c6 <_d_array_bounds>
  100f07:	8b 55 f4             	mov    -0xc(%ebp),%edx
  100f0a:	81 c2 c0 a8 10 00    	add    $0x10a8c0,%edx
  100f10:	0f b6 45 14          	movzbl 0x14(%ebp),%eax
  100f14:	88 42 05             	mov    %al,0x5(%edx)
  100f17:	c9                   	leave  
  100f18:	c3                   	ret    
  100f19:	00 00                	add    %al,(%eax)
	...

00100f1c <_D6kernel3x863gdt7initGdtFZv>:
  100f1c:	55                   	push   %ebp
  100f1d:	89 e5                	mov    %esp,%ebp
  100f1f:	83 ec 18             	sub    $0x18,%esp
  100f22:	66 c7 05 28 b1 10 00 	movw   $0x27,0x10b128
  100f29:	27 00 
  100f2b:	b8 00 b1 10 00       	mov    $0x10b100,%eax
  100f30:	a3 2a b1 10 00       	mov    %eax,0x10b12a
  100f35:	c7 44 24 10 00 00 00 	movl   $0x0,0x10(%esp)
  100f3c:	00 
  100f3d:	c7 44 24 0c 00 00 00 	movl   $0x0,0xc(%esp)
  100f44:	00 
  100f45:	c7 44 24 08 00 00 00 	movl   $0x0,0x8(%esp)
  100f4c:	00 
  100f4d:	c7 44 24 04 00 00 00 	movl   $0x0,0x4(%esp)
  100f54:	00 
  100f55:	c7 04 24 00 00 00 00 	movl   $0x0,(%esp)
  100f5c:	e8 bf 00 00 00       	call   101020 <_D6kernel3x863gdt6gdtSetFikkhhZv>
  100f61:	c7 44 24 10 cf 00 00 	movl   $0xcf,0x10(%esp)
  100f68:	00 
  100f69:	c7 44 24 0c 9a 00 00 	movl   $0x9a,0xc(%esp)
  100f70:	00 
  100f71:	c7 44 24 08 ff ff ff 	movl   $0xffffffff,0x8(%esp)
  100f78:	ff 
  100f79:	c7 44 24 04 00 00 00 	movl   $0x0,0x4(%esp)
  100f80:	00 
  100f81:	c7 04 24 01 00 00 00 	movl   $0x1,(%esp)
  100f88:	e8 93 00 00 00       	call   101020 <_D6kernel3x863gdt6gdtSetFikkhhZv>
  100f8d:	c7 44 24 10 cf 00 00 	movl   $0xcf,0x10(%esp)
  100f94:	00 
  100f95:	c7 44 24 0c 92 00 00 	movl   $0x92,0xc(%esp)
  100f9c:	00 
  100f9d:	c7 44 24 08 ff ff ff 	movl   $0xffffffff,0x8(%esp)
  100fa4:	ff 
  100fa5:	c7 44 24 04 00 00 00 	movl   $0x0,0x4(%esp)
  100fac:	00 
  100fad:	c7 04 24 02 00 00 00 	movl   $0x2,(%esp)
  100fb4:	e8 67 00 00 00       	call   101020 <_D6kernel3x863gdt6gdtSetFikkhhZv>
  100fb9:	c7 44 24 10 cf 00 00 	movl   $0xcf,0x10(%esp)
  100fc0:	00 
  100fc1:	c7 44 24 0c fa 00 00 	movl   $0xfa,0xc(%esp)
  100fc8:	00 
  100fc9:	c7 44 24 08 ff ff ff 	movl   $0xffffffff,0x8(%esp)
  100fd0:	ff 
  100fd1:	c7 44 24 04 00 00 00 	movl   $0x0,0x4(%esp)
  100fd8:	00 
  100fd9:	c7 04 24 03 00 00 00 	movl   $0x3,(%esp)
  100fe0:	e8 3b 00 00 00       	call   101020 <_D6kernel3x863gdt6gdtSetFikkhhZv>
  100fe5:	c7 44 24 10 cf 00 00 	movl   $0xcf,0x10(%esp)
  100fec:	00 
  100fed:	c7 44 24 0c f2 00 00 	movl   $0xf2,0xc(%esp)
  100ff4:	00 
  100ff5:	c7 44 24 08 ff ff ff 	movl   $0xffffffff,0x8(%esp)
  100ffc:	ff 
  100ffd:	c7 44 24 04 00 00 00 	movl   $0x0,0x4(%esp)
  101004:	00 
  101005:	c7 04 24 04 00 00 00 	movl   $0x4,(%esp)
  10100c:	e8 0f 00 00 00       	call   101020 <_D6kernel3x863gdt6gdtSetFikkhhZv>
  101011:	b8 28 b1 10 00       	mov    $0x10b128,%eax
  101016:	89 04 24             	mov    %eax,(%esp)
  101019:	e8 62 f2 ff ff       	call   100280 <flushGdt>
  10101e:	c9                   	leave  
  10101f:	c3                   	ret    

00101020 <_D6kernel3x863gdt6gdtSetFikkhhZv>:
  101020:	55                   	push   %ebp
  101021:	89 e5                	mov    %esp,%ebp
  101023:	81 ec 88 00 00 00    	sub    $0x88,%esp
  101029:	8b 45 08             	mov    0x8(%ebp),%eax
  10102c:	83 f8 05             	cmp    $0x5,%eax
  10102f:	73 0b                	jae    10103c <_D6kernel3x863gdt6gdtSetFikkhhZv+0x1c>
  101031:	8b 45 08             	mov    0x8(%ebp),%eax
  101034:	c1 e0 03             	shl    $0x3,%eax
  101037:	89 45 94             	mov    %eax,-0x6c(%ebp)
  10103a:	eb 28                	jmp    101064 <_D6kernel3x863gdt6gdtSetFikkhhZv+0x44>
  10103c:	c7 45 98 10 00 00 00 	movl   $0x10,-0x68(%ebp)
  101043:	c7 45 9c 5d 5c 10 00 	movl   $0x105c5d,-0x64(%ebp)
  10104a:	c7 44 24 08 24 00 00 	movl   $0x24,0x8(%esp)
  101051:	00 
  101052:	8b 45 98             	mov    -0x68(%ebp),%eax
  101055:	8b 55 9c             	mov    -0x64(%ebp),%edx
  101058:	89 04 24             	mov    %eax,(%esp)
  10105b:	89 54 24 04          	mov    %edx,0x4(%esp)
  10105f:	e8 62 18 00 00       	call   1028c6 <_d_array_bounds>
  101064:	8b 55 94             	mov    -0x6c(%ebp),%edx
  101067:	81 c2 00 b1 10 00    	add    $0x10b100,%edx
  10106d:	8b 45 0c             	mov    0xc(%ebp),%eax
  101070:	66 89 42 02          	mov    %ax,0x2(%edx)
  101074:	8b 45 08             	mov    0x8(%ebp),%eax
  101077:	83 f8 05             	cmp    $0x5,%eax
  10107a:	73 0b                	jae    101087 <_D6kernel3x863gdt6gdtSetFikkhhZv+0x67>
  10107c:	8b 45 08             	mov    0x8(%ebp),%eax
  10107f:	c1 e0 03             	shl    $0x3,%eax
  101082:	89 45 a4             	mov    %eax,-0x5c(%ebp)
  101085:	eb 28                	jmp    1010af <_D6kernel3x863gdt6gdtSetFikkhhZv+0x8f>
  101087:	c7 45 a8 10 00 00 00 	movl   $0x10,-0x58(%ebp)
  10108e:	c7 45 ac 5d 5c 10 00 	movl   $0x105c5d,-0x54(%ebp)
  101095:	c7 44 24 08 25 00 00 	movl   $0x25,0x8(%esp)
  10109c:	00 
  10109d:	8b 45 a8             	mov    -0x58(%ebp),%eax
  1010a0:	8b 55 ac             	mov    -0x54(%ebp),%edx
  1010a3:	89 04 24             	mov    %eax,(%esp)
  1010a6:	89 54 24 04          	mov    %edx,0x4(%esp)
  1010aa:	e8 17 18 00 00       	call   1028c6 <_d_array_bounds>
  1010af:	8b 55 a4             	mov    -0x5c(%ebp),%edx
  1010b2:	81 c2 00 b1 10 00    	add    $0x10b100,%edx
  1010b8:	8b 45 0c             	mov    0xc(%ebp),%eax
  1010bb:	c1 e8 10             	shr    $0x10,%eax
  1010be:	88 42 04             	mov    %al,0x4(%edx)
  1010c1:	8b 45 08             	mov    0x8(%ebp),%eax
  1010c4:	83 f8 05             	cmp    $0x5,%eax
  1010c7:	73 0b                	jae    1010d4 <_D6kernel3x863gdt6gdtSetFikkhhZv+0xb4>
  1010c9:	8b 45 08             	mov    0x8(%ebp),%eax
  1010cc:	c1 e0 03             	shl    $0x3,%eax
  1010cf:	89 45 b4             	mov    %eax,-0x4c(%ebp)
  1010d2:	eb 28                	jmp    1010fc <_D6kernel3x863gdt6gdtSetFikkhhZv+0xdc>
  1010d4:	c7 45 b8 10 00 00 00 	movl   $0x10,-0x48(%ebp)
  1010db:	c7 45 bc 5d 5c 10 00 	movl   $0x105c5d,-0x44(%ebp)
  1010e2:	c7 44 24 08 26 00 00 	movl   $0x26,0x8(%esp)
  1010e9:	00 
  1010ea:	8b 45 b8             	mov    -0x48(%ebp),%eax
  1010ed:	8b 55 bc             	mov    -0x44(%ebp),%edx
  1010f0:	89 04 24             	mov    %eax,(%esp)
  1010f3:	89 54 24 04          	mov    %edx,0x4(%esp)
  1010f7:	e8 ca 17 00 00       	call   1028c6 <_d_array_bounds>
  1010fc:	8b 55 b4             	mov    -0x4c(%ebp),%edx
  1010ff:	81 c2 00 b1 10 00    	add    $0x10b100,%edx
  101105:	8b 45 0c             	mov    0xc(%ebp),%eax
  101108:	c1 e8 18             	shr    $0x18,%eax
  10110b:	88 42 07             	mov    %al,0x7(%edx)
  10110e:	8b 45 08             	mov    0x8(%ebp),%eax
  101111:	83 f8 05             	cmp    $0x5,%eax
  101114:	73 0b                	jae    101121 <_D6kernel3x863gdt6gdtSetFikkhhZv+0x101>
  101116:	8b 45 08             	mov    0x8(%ebp),%eax
  101119:	c1 e0 03             	shl    $0x3,%eax
  10111c:	89 45 c4             	mov    %eax,-0x3c(%ebp)
  10111f:	eb 28                	jmp    101149 <_D6kernel3x863gdt6gdtSetFikkhhZv+0x129>
  101121:	c7 45 c8 10 00 00 00 	movl   $0x10,-0x38(%ebp)
  101128:	c7 45 cc 5d 5c 10 00 	movl   $0x105c5d,-0x34(%ebp)
  10112f:	c7 44 24 08 28 00 00 	movl   $0x28,0x8(%esp)
  101136:	00 
  101137:	8b 45 c8             	mov    -0x38(%ebp),%eax
  10113a:	8b 55 cc             	mov    -0x34(%ebp),%edx
  10113d:	89 04 24             	mov    %eax,(%esp)
  101140:	89 54 24 04          	mov    %edx,0x4(%esp)
  101144:	e8 7d 17 00 00       	call   1028c6 <_d_array_bounds>
  101149:	8b 55 c4             	mov    -0x3c(%ebp),%edx
  10114c:	81 c2 00 b1 10 00    	add    $0x10b100,%edx
  101152:	8b 45 10             	mov    0x10(%ebp),%eax
  101155:	66 89 02             	mov    %ax,(%edx)
  101158:	8b 45 08             	mov    0x8(%ebp),%eax
  10115b:	83 f8 05             	cmp    $0x5,%eax
  10115e:	73 0b                	jae    10116b <_D6kernel3x863gdt6gdtSetFikkhhZv+0x14b>
  101160:	8b 45 08             	mov    0x8(%ebp),%eax
  101163:	c1 e0 03             	shl    $0x3,%eax
  101166:	89 45 d4             	mov    %eax,-0x2c(%ebp)
  101169:	eb 28                	jmp    101193 <_D6kernel3x863gdt6gdtSetFikkhhZv+0x173>
  10116b:	c7 45 d8 10 00 00 00 	movl   $0x10,-0x28(%ebp)
  101172:	c7 45 dc 5d 5c 10 00 	movl   $0x105c5d,-0x24(%ebp)
  101179:	c7 44 24 08 29 00 00 	movl   $0x29,0x8(%esp)
  101180:	00 
  101181:	8b 45 d8             	mov    -0x28(%ebp),%eax
  101184:	8b 55 dc             	mov    -0x24(%ebp),%edx
  101187:	89 04 24             	mov    %eax,(%esp)
  10118a:	89 54 24 04          	mov    %edx,0x4(%esp)
  10118e:	e8 33 17 00 00       	call   1028c6 <_d_array_bounds>
  101193:	8b 55 d4             	mov    -0x2c(%ebp),%edx
  101196:	81 c2 00 b1 10 00    	add    $0x10b100,%edx
  10119c:	8b 45 10             	mov    0x10(%ebp),%eax
  10119f:	c1 e8 10             	shr    $0x10,%eax
  1011a2:	83 e0 0f             	and    $0xf,%eax
  1011a5:	88 42 06             	mov    %al,0x6(%edx)
  1011a8:	8b 45 08             	mov    0x8(%ebp),%eax
  1011ab:	83 f8 05             	cmp    $0x5,%eax
  1011ae:	73 0b                	jae    1011bb <_D6kernel3x863gdt6gdtSetFikkhhZv+0x19b>
  1011b0:	8b 45 08             	mov    0x8(%ebp),%eax
  1011b3:	c1 e0 03             	shl    $0x3,%eax
  1011b6:	89 45 e4             	mov    %eax,-0x1c(%ebp)
  1011b9:	eb 28                	jmp    1011e3 <_D6kernel3x863gdt6gdtSetFikkhhZv+0x1c3>
  1011bb:	c7 45 e8 10 00 00 00 	movl   $0x10,-0x18(%ebp)
  1011c2:	c7 45 ec 5d 5c 10 00 	movl   $0x105c5d,-0x14(%ebp)
  1011c9:	c7 44 24 08 2b 00 00 	movl   $0x2b,0x8(%esp)
  1011d0:	00 
  1011d1:	8b 45 e8             	mov    -0x18(%ebp),%eax
  1011d4:	8b 55 ec             	mov    -0x14(%ebp),%edx
  1011d7:	89 04 24             	mov    %eax,(%esp)
  1011da:	89 54 24 04          	mov    %edx,0x4(%esp)
  1011de:	e8 e3 16 00 00       	call   1028c6 <_d_array_bounds>
  1011e3:	8b 45 e4             	mov    -0x1c(%ebp),%eax
  1011e6:	8d 88 00 b1 10 00    	lea    0x10b100(%eax),%ecx
  1011ec:	05 00 b1 10 00       	add    $0x10b100,%eax
  1011f1:	0f b6 40 06          	movzbl 0x6(%eax),%eax
  1011f5:	89 c2                	mov    %eax,%edx
  1011f7:	0f b6 45 18          	movzbl 0x18(%ebp),%eax
  1011fb:	83 e0 f0             	and    $0xfffffff0,%eax
  1011fe:	09 d0                	or     %edx,%eax
  101200:	88 41 06             	mov    %al,0x6(%ecx)
  101203:	8b 45 08             	mov    0x8(%ebp),%eax
  101206:	83 f8 05             	cmp    $0x5,%eax
  101209:	73 0b                	jae    101216 <_D6kernel3x863gdt6gdtSetFikkhhZv+0x1f6>
  10120b:	8b 45 08             	mov    0x8(%ebp),%eax
  10120e:	c1 e0 03             	shl    $0x3,%eax
  101211:	89 45 f4             	mov    %eax,-0xc(%ebp)
  101214:	eb 28                	jmp    10123e <_D6kernel3x863gdt6gdtSetFikkhhZv+0x21e>
  101216:	c7 45 f8 10 00 00 00 	movl   $0x10,-0x8(%ebp)
  10121d:	c7 45 fc 5d 5c 10 00 	movl   $0x105c5d,-0x4(%ebp)
  101224:	c7 44 24 08 2c 00 00 	movl   $0x2c,0x8(%esp)
  10122b:	00 
  10122c:	8b 45 f8             	mov    -0x8(%ebp),%eax
  10122f:	8b 55 fc             	mov    -0x4(%ebp),%edx
  101232:	89 04 24             	mov    %eax,(%esp)
  101235:	89 54 24 04          	mov    %edx,0x4(%esp)
  101239:	e8 88 16 00 00       	call   1028c6 <_d_array_bounds>
  10123e:	8b 55 f4             	mov    -0xc(%ebp),%edx
  101241:	81 c2 00 b1 10 00    	add    $0x10b100,%edx
  101247:	0f b6 45 14          	movzbl 0x14(%ebp),%eax
  10124b:	88 42 05             	mov    %al,0x5(%edx)
  10124e:	c9                   	leave  
  10124f:	c3                   	ret    

00101250 <main>:
  101250:	8d 4c 24 04          	lea    0x4(%esp),%ecx
  101254:	83 e4 f0             	and    $0xfffffff0,%esp
  101257:	ff 71 fc             	pushl  -0x4(%ecx)
  10125a:	55                   	push   %ebp
  10125b:	89 e5                	mov    %esp,%ebp
  10125d:	51                   	push   %ecx
  10125e:	83 ec 04             	sub    $0x4,%esp
  101261:	e8 b6 fc ff ff       	call   100f1c <_D6kernel3x863gdt7initGdtFZv>
  101266:	e8 21 f3 ff ff       	call   10058c <_D6kernel3x863idt7initIdtFZv>
  10126b:	e8 be 01 00 00       	call   10142e <_D5video4text4text7ttyInitFZv>
  101270:	c7 04 24 e8 03 00 00 	movl   $0x3e8,(%esp)
  101277:	e8 5c f2 ff ff       	call   1004d8 <_D6kernel3pit9initTimerFkZv>
  10127c:	fb                   	sti    
  10127d:	c7 04 24 6e 5c 10 00 	movl   $0x105c6e,(%esp)
  101284:	e8 06 02 00 00       	call   10148f <_D5video4text4text4putsFPaZv>
  101289:	c7 04 24 6e 5c 10 00 	movl   $0x105c6e,(%esp)
  101290:	e8 fa 01 00 00       	call   10148f <_D5video4text4text4putsFPaZv>
  101295:	cd 04                	int    $0x4
  101297:	83 c4 04             	add    $0x4,%esp
  10129a:	59                   	pop    %ecx
  10129b:	5d                   	pop    %ebp
  10129c:	8d 61 fc             	lea    -0x4(%ecx),%esp
  10129f:	c3                   	ret    

001012a0 <_D5video4text4text7getAttrFZh>:
  1012a0:	55                   	push   %ebp
  1012a1:	89 e5                	mov    %esp,%ebp
  1012a3:	0f b6 05 44 b1 10 00 	movzbl 0x10b144,%eax
  1012aa:	5d                   	pop    %ebp
  1012ab:	c3                   	ret    

001012ac <_D5video4text4text4getYFZk>:
  1012ac:	55                   	push   %ebp
  1012ad:	89 e5                	mov    %esp,%ebp
  1012af:	a1 4c b1 10 00       	mov    0x10b14c,%eax
  1012b4:	5d                   	pop    %ebp
  1012b5:	c3                   	ret    

001012b6 <_D5video4text4text13internal_putcFaZv>:
  1012b6:	55                   	push   %ebp
  1012b7:	89 e5                	mov    %esp,%ebp
  1012b9:	83 ec 18             	sub    $0x18,%esp
  1012bc:	0f b6 45 08          	movzbl 0x8(%ebp),%eax
  1012c0:	83 f8 0a             	cmp    $0xa,%eax
  1012c3:	75 21                	jne    1012e6 <_D5video4text4text13internal_putcFaZv+0x30>
  1012c5:	c7 05 48 b1 10 00 00 	movl   $0x0,0x10b148
  1012cc:	00 00 00 
  1012cf:	a1 4c b1 10 00       	mov    0x10b14c,%eax
  1012d4:	83 c0 01             	add    $0x1,%eax
  1012d7:	a3 4c b1 10 00       	mov    %eax,0x10b14c
  1012dc:	e8 5b 07 00 00       	call   101a3c <_D5video4text4misc6scrollFZv>
  1012e1:	e9 8d 00 00 00       	jmp    101373 <_D5video4text4text13internal_putcFaZv+0xbd>
  1012e6:	0f b6 45 08          	movzbl 0x8(%ebp),%eax
  1012ea:	83 f8 0d             	cmp    $0xd,%eax
  1012ed:	75 0c                	jne    1012fb <_D5video4text4text13internal_putcFaZv+0x45>
  1012ef:	c7 05 48 b1 10 00 00 	movl   $0x0,0x10b148
  1012f6:	00 00 00 
  1012f9:	eb 78                	jmp    101373 <_D5video4text4text13internal_putcFaZv+0xbd>
  1012fb:	0f b6 45 08          	movzbl 0x8(%ebp),%eax
  1012ff:	83 f8 08             	cmp    $0x8,%eax
  101302:	0f b6 45 08          	movzbl 0x8(%ebp),%eax
  101306:	83 f8 09             	cmp    $0x9,%eax
  101309:	75 12                	jne    10131d <_D5video4text4text13internal_putcFaZv+0x67>
  10130b:	a1 48 b1 10 00       	mov    0x10b148,%eax
  101310:	83 c0 08             	add    $0x8,%eax
  101313:	83 e0 f8             	and    $0xfffffff8,%eax
  101316:	a3 48 b1 10 00       	mov    %eax,0x10b148
  10131b:	eb 56                	jmp    101373 <_D5video4text4text13internal_putcFaZv+0xbd>
  10131d:	0f b6 45 08          	movzbl 0x8(%ebp),%eax
  101321:	83 f8 20             	cmp    $0x20,%eax
  101324:	7c 4d                	jl     101373 <_D5video4text4text13internal_putcFaZv+0xbd>
  101326:	8b 0d 00 a0 10 00    	mov    0x10a000,%ecx
  10132c:	a1 4c b1 10 00       	mov    0x10b14c,%eax
  101331:	8d 14 00             	lea    (%eax,%eax,1),%edx
  101334:	89 d0                	mov    %edx,%eax
  101336:	c1 e0 02             	shl    $0x2,%eax
  101339:	01 d0                	add    %edx,%eax
  10133b:	c1 e0 04             	shl    $0x4,%eax
  10133e:	8d 14 01             	lea    (%ecx,%eax,1),%edx
  101341:	a1 48 b1 10 00       	mov    0x10b148,%eax
  101346:	01 c0                	add    %eax,%eax
  101348:	8d 04 02             	lea    (%edx,%eax,1),%eax
  10134b:	89 45 fc             	mov    %eax,-0x4(%ebp)
  10134e:	8b 55 fc             	mov    -0x4(%ebp),%edx
  101351:	0f b6 45 08          	movzbl 0x8(%ebp),%eax
  101355:	88 02                	mov    %al,(%edx)
  101357:	8b 45 fc             	mov    -0x4(%ebp),%eax
  10135a:	8d 50 01             	lea    0x1(%eax),%edx
  10135d:	0f b6 05 44 b1 10 00 	movzbl 0x10b144,%eax
  101364:	88 02                	mov    %al,(%edx)
  101366:	a1 48 b1 10 00       	mov    0x10b148,%eax
  10136b:	83 c0 01             	add    $0x1,%eax
  10136e:	a3 48 b1 10 00       	mov    %eax,0x10b148
  101373:	a1 48 b1 10 00       	mov    0x10b148,%eax
  101378:	83 f8 50             	cmp    $0x50,%eax
  10137b:	72 17                	jb     101394 <_D5video4text4text13internal_putcFaZv+0xde>
  10137d:	c7 05 48 b1 10 00 00 	movl   $0x0,0x10b148
  101384:	00 00 00 
  101387:	a1 4c b1 10 00       	mov    0x10b14c,%eax
  10138c:	83 c0 01             	add    $0x1,%eax
  10138f:	a3 4c b1 10 00       	mov    %eax,0x10b14c
  101394:	c9                   	leave  
  101395:	c3                   	ret    

00101396 <_D5video4text4text6gotoXYFkkZv>:
  101396:	55                   	push   %ebp
  101397:	89 e5                	mov    %esp,%ebp
  101399:	c7 05 48 b1 10 00 00 	movl   $0x0,0x10b148
  1013a0:	00 00 00 
  1013a3:	c7 05 4c b1 10 00 00 	movl   $0x0,0x10b14c
  1013aa:	00 00 00 
  1013ad:	5d                   	pop    %ebp
  1013ae:	c3                   	ret    

001013af <_D5video4text4text10moveCursorFZv>:
  1013af:	55                   	push   %ebp
  1013b0:	89 e5                	mov    %esp,%ebp
  1013b2:	83 ec 18             	sub    $0x18,%esp
  1013b5:	8b 15 4c b1 10 00    	mov    0x10b14c,%edx
  1013bb:	89 d0                	mov    %edx,%eax
  1013bd:	c1 e0 02             	shl    $0x2,%eax
  1013c0:	01 d0                	add    %edx,%eax
  1013c2:	c1 e0 04             	shl    $0x4,%eax
  1013c5:	89 c2                	mov    %eax,%edx
  1013c7:	a1 48 b1 10 00       	mov    0x10b148,%eax
  1013cc:	8d 04 02             	lea    (%edx,%eax,1),%eax
  1013cf:	66 89 45 fe          	mov    %ax,-0x2(%ebp)
  1013d3:	c7 44 24 04 0e 00 00 	movl   $0xe,0x4(%esp)
  1013da:	00 
  1013db:	c7 04 24 d4 03 00 00 	movl   $0x3d4,(%esp)
  1013e2:	e8 bd ee ff ff       	call   1002a4 <_D6kernel2io4outbFthZv>
  1013e7:	0f b7 45 fe          	movzwl -0x2(%ebp),%eax
  1013eb:	c1 f8 08             	sar    $0x8,%eax
  1013ee:	0f b6 c0             	movzbl %al,%eax
  1013f1:	89 44 24 04          	mov    %eax,0x4(%esp)
  1013f5:	c7 04 24 d5 03 00 00 	movl   $0x3d5,(%esp)
  1013fc:	e8 a3 ee ff ff       	call   1002a4 <_D6kernel2io4outbFthZv>
  101401:	c7 44 24 04 0f 00 00 	movl   $0xf,0x4(%esp)
  101408:	00 
  101409:	c7 04 24 d4 03 00 00 	movl   $0x3d4,(%esp)
  101410:	e8 8f ee ff ff       	call   1002a4 <_D6kernel2io4outbFthZv>
  101415:	0f b7 45 fe          	movzwl -0x2(%ebp),%eax
  101419:	0f b6 c0             	movzbl %al,%eax
  10141c:	89 44 24 04          	mov    %eax,0x4(%esp)
  101420:	c7 04 24 d5 03 00 00 	movl   $0x3d5,(%esp)
  101427:	e8 78 ee ff ff       	call   1002a4 <_D6kernel2io4outbFthZv>
  10142c:	c9                   	leave  
  10142d:	c3                   	ret    

0010142e <_D5video4text4text7ttyInitFZv>:
  10142e:	55                   	push   %ebp
  10142f:	89 e5                	mov    %esp,%ebp
  101431:	83 ec 08             	sub    $0x8,%esp
  101434:	c6 05 44 b1 10 00 07 	movb   $0x7,0x10b144
  10143b:	e8 6c 04 00 00       	call   1018ac <clearScreen>
  101440:	c9                   	leave  
  101441:	c3                   	ret    

00101442 <_D5video4text4text4putcFaZv>:
  101442:	55                   	push   %ebp
  101443:	89 e5                	mov    %esp,%ebp
  101445:	83 ec 08             	sub    $0x8,%esp
  101448:	0f b6 45 08          	movzbl 0x8(%ebp),%eax
  10144c:	89 04 24             	mov    %eax,(%esp)
  10144f:	e8 62 fe ff ff       	call   1012b6 <_D5video4text4text13internal_putcFaZv>
  101454:	e8 56 ff ff ff       	call   1013af <_D5video4text4text10moveCursorFZv>
  101459:	c9                   	leave  
  10145a:	c3                   	ret    

0010145b <_D5video4text4text13internal_putsFPaZv>:
  10145b:	55                   	push   %ebp
  10145c:	89 e5                	mov    %esp,%ebp
  10145e:	83 ec 08             	sub    $0x8,%esp
  101461:	8b 45 08             	mov    0x8(%ebp),%eax
  101464:	0f b6 00             	movzbl (%eax),%eax
  101467:	0f b6 c0             	movzbl %al,%eax
  10146a:	85 c0                	test   %eax,%eax
  10146c:	0f 95 c0             	setne  %al
  10146f:	83 f0 01             	xor    $0x1,%eax
  101472:	84 c0                	test   %al,%al
  101474:	75 17                	jne    10148d <_D5video4text4text13internal_putsFPaZv+0x32>
  101476:	8b 45 08             	mov    0x8(%ebp),%eax
  101479:	0f b6 00             	movzbl (%eax),%eax
  10147c:	0f b6 c0             	movzbl %al,%eax
  10147f:	89 04 24             	mov    %eax,(%esp)
  101482:	e8 2f fe ff ff       	call   1012b6 <_D5video4text4text13internal_putcFaZv>
  101487:	83 45 08 01          	addl   $0x1,0x8(%ebp)
  10148b:	eb d4                	jmp    101461 <_D5video4text4text13internal_putsFPaZv+0x6>
  10148d:	c9                   	leave  
  10148e:	c3                   	ret    

0010148f <_D5video4text4text4putsFPaZv>:
  10148f:	55                   	push   %ebp
  101490:	89 e5                	mov    %esp,%ebp
  101492:	83 ec 08             	sub    $0x8,%esp
  101495:	8b 45 08             	mov    0x8(%ebp),%eax
  101498:	89 04 24             	mov    %eax,(%esp)
  10149b:	e8 bb ff ff ff       	call   10145b <_D5video4text4text13internal_putsFPaZv>
  1014a0:	e8 0a ff ff ff       	call   1013af <_D5video4text4text10moveCursorFZv>
  1014a5:	c9                   	leave  
  1014a6:	c3                   	ret    

001014a7 <_D5video4text4text6printxFkZv>:
  1014a7:	55                   	push   %ebp
  1014a8:	89 e5                	mov    %esp,%ebp
  1014aa:	83 ec 18             	sub    $0x18,%esp
  1014ad:	c7 45 fc 00 00 00 00 	movl   $0x0,-0x4(%ebp)
  1014b4:	c6 45 fb 01          	movb   $0x1,-0x5(%ebp)
  1014b8:	c7 04 24 7d 5c 10 00 	movl   $0x105c7d,(%esp)
  1014bf:	e8 cb ff ff ff       	call   10148f <_D5video4text4text4putsFPaZv>
  1014c4:	c7 45 f4 00 00 00 00 	movl   $0x0,-0xc(%ebp)
  1014cb:	c7 45 f4 1c 00 00 00 	movl   $0x1c,-0xc(%ebp)
  1014d2:	83 7d f4 00          	cmpl   $0x0,-0xc(%ebp)
  1014d6:	0f 9f c0             	setg   %al
  1014d9:	83 f0 01             	xor    $0x1,%eax
  1014dc:	84 c0                	test   %al,%al
  1014de:	75 54                	jne    101534 <_D5video4text4text6printxFkZv+0x8d>
  1014e0:	8b 4d f4             	mov    -0xc(%ebp),%ecx
  1014e3:	8b 45 08             	mov    0x8(%ebp),%eax
  1014e6:	d3 e8                	shr    %cl,%eax
  1014e8:	83 e0 0f             	and    $0xf,%eax
  1014eb:	89 45 fc             	mov    %eax,-0x4(%ebp)
  1014ee:	83 7d fc 00          	cmpl   $0x0,-0x4(%ebp)
  1014f2:	75 08                	jne    1014fc <_D5video4text4text6printxFkZv+0x55>
  1014f4:	0f be 45 fb          	movsbl -0x5(%ebp),%eax
  1014f8:	85 c0                	test   %eax,%eax
  1014fa:	75 32                	jne    10152e <_D5video4text4text6printxFkZv+0x87>
  1014fc:	83 7d fc 0a          	cmpl   $0xa,-0x4(%ebp)
  101500:	7c 17                	jl     101519 <_D5video4text4text6printxFkZv+0x72>
  101502:	c6 45 fb 00          	movb   $0x0,-0x5(%ebp)
  101506:	8b 45 fc             	mov    -0x4(%ebp),%eax
  101509:	83 c0 37             	add    $0x37,%eax
  10150c:	0f b6 c0             	movzbl %al,%eax
  10150f:	89 04 24             	mov    %eax,(%esp)
  101512:	e8 2b ff ff ff       	call   101442 <_D5video4text4text4putcFaZv>
  101517:	eb 15                	jmp    10152e <_D5video4text4text6printxFkZv+0x87>
  101519:	c6 45 fb 00          	movb   $0x0,-0x5(%ebp)
  10151d:	8b 45 fc             	mov    -0x4(%ebp),%eax
  101520:	83 c0 30             	add    $0x30,%eax
  101523:	0f b6 c0             	movzbl %al,%eax
  101526:	89 04 24             	mov    %eax,(%esp)
  101529:	e8 14 ff ff ff       	call   101442 <_D5video4text4text4putcFaZv>
  10152e:	83 6d f4 04          	subl   $0x4,-0xc(%ebp)
  101532:	eb 9e                	jmp    1014d2 <_D5video4text4text6printxFkZv+0x2b>
  101534:	8b 45 08             	mov    0x8(%ebp),%eax
  101537:	83 e0 0f             	and    $0xf,%eax
  10153a:	89 45 fc             	mov    %eax,-0x4(%ebp)
  10153d:	83 7d fc 0a          	cmpl   $0xa,-0x4(%ebp)
  101541:	7c 13                	jl     101556 <_D5video4text4text6printxFkZv+0xaf>
  101543:	8b 45 fc             	mov    -0x4(%ebp),%eax
  101546:	83 c0 37             	add    $0x37,%eax
  101549:	0f b6 c0             	movzbl %al,%eax
  10154c:	89 04 24             	mov    %eax,(%esp)
  10154f:	e8 ee fe ff ff       	call   101442 <_D5video4text4text4putcFaZv>
  101554:	eb 11                	jmp    101567 <_D5video4text4text6printxFkZv+0xc0>
  101556:	8b 45 fc             	mov    -0x4(%ebp),%eax
  101559:	83 c0 30             	add    $0x30,%eax
  10155c:	0f b6 c0             	movzbl %al,%eax
  10155f:	89 04 24             	mov    %eax,(%esp)
  101562:	e8 db fe ff ff       	call   101442 <_D5video4text4text4putcFaZv>
  101567:	c9                   	leave  
  101568:	c3                   	ret    

00101569 <_D5video4text4text6printdFkZv>:
  101569:	55                   	push   %ebp
  10156a:	89 e5                	mov    %esp,%ebp
  10156c:	56                   	push   %esi
  10156d:	53                   	push   %ebx
  10156e:	81 ec e0 00 00 00    	sub    $0xe0,%esp
  101574:	83 7d 08 00          	cmpl   $0x0,0x8(%ebp)
  101578:	75 11                	jne    10158b <_D5video4text4text6printdFkZv+0x22>
  10157a:	c7 04 24 30 00 00 00 	movl   $0x30,(%esp)
  101581:	e8 bc fe ff ff       	call   101442 <_D5video4text4text4putcFaZv>
  101586:	e9 17 03 00 00       	jmp    1018a2 <_D5video4text4text6printdFkZv+0x339>
  10158b:	8b 45 08             	mov    0x8(%ebp),%eax
  10158e:	89 45 f4             	mov    %eax,-0xc(%ebp)
  101591:	c7 85 30 ff ff ff 20 	movl   $0x20,-0xd0(%ebp)
  101598:	00 00 00 
  10159b:	8d 45 cc             	lea    -0x34(%ebp),%eax
  10159e:	89 85 34 ff ff ff    	mov    %eax,-0xcc(%ebp)
  1015a4:	8b 85 30 ff ff ff    	mov    -0xd0(%ebp),%eax
  1015aa:	89 45 9c             	mov    %eax,-0x64(%ebp)
  1015ad:	8b 95 34 ff ff ff    	mov    -0xcc(%ebp),%edx
  1015b3:	89 55 98             	mov    %edx,-0x68(%ebp)
  1015b6:	83 7d 9c 00          	cmpl   $0x0,-0x64(%ebp)
  1015ba:	0f 95 c0             	setne  %al
  1015bd:	83 f0 01             	xor    $0x1,%eax
  1015c0:	84 c0                	test   %al,%al
  1015c2:	75 10                	jne    1015d4 <_D5video4text4text6printdFkZv+0x6b>
  1015c4:	8b 4d 98             	mov    -0x68(%ebp),%ecx
  1015c7:	c6 01 ff             	movb   $0xff,(%ecx)
  1015ca:	83 45 98 01          	addl   $0x1,-0x68(%ebp)
  1015ce:	83 6d 9c 01          	subl   $0x1,-0x64(%ebp)
  1015d2:	eb e2                	jmp    1015b6 <_D5video4text4text6printdFkZv+0x4d>
  1015d4:	c7 45 f0 00 00 00 00 	movl   $0x0,-0x10(%ebp)
  1015db:	83 7d f4 00          	cmpl   $0x0,-0xc(%ebp)
  1015df:	0f 9f c0             	setg   %al
  1015e2:	83 f0 01             	xor    $0x1,%eax
  1015e5:	84 c0                	test   %al,%al
  1015e7:	0f 85 cd 00 00 00    	jne    1016ba <_D5video4text4text6printdFkZv+0x151>
  1015ed:	8b 45 f0             	mov    -0x10(%ebp),%eax
  1015f0:	83 f8 20             	cmp    $0x20,%eax
  1015f3:	73 0b                	jae    101600 <_D5video4text4text6printdFkZv+0x97>
  1015f5:	8b 75 f0             	mov    -0x10(%ebp),%esi
  1015f8:	89 b5 3c ff ff ff    	mov    %esi,-0xc4(%ebp)
  1015fe:	eb 34                	jmp    101634 <_D5video4text4text6printdFkZv+0xcb>
  101600:	c7 85 40 ff ff ff 11 	movl   $0x11,-0xc0(%ebp)
  101607:	00 00 00 
  10160a:	c7 85 44 ff ff ff 80 	movl   $0x105c80,-0xbc(%ebp)
  101611:	5c 10 00 
  101614:	c7 44 24 08 80 00 00 	movl   $0x80,0x8(%esp)
  10161b:	00 
  10161c:	8b 85 40 ff ff ff    	mov    -0xc0(%ebp),%eax
  101622:	8b 95 44 ff ff ff    	mov    -0xbc(%ebp),%edx
  101628:	89 04 24             	mov    %eax,(%esp)
  10162b:	89 54 24 04          	mov    %edx,0x4(%esp)
  10162f:	e8 92 12 00 00       	call   1028c6 <_d_array_bounds>
  101634:	8d 5d cc             	lea    -0x34(%ebp),%ebx
  101637:	03 9d 3c ff ff ff    	add    -0xc4(%ebp),%ebx
  10163d:	8b 4d f4             	mov    -0xc(%ebp),%ecx
  101640:	c7 85 2c ff ff ff 67 	movl   $0x66666667,-0xd4(%ebp)
  101647:	66 66 66 
  10164a:	8b 85 2c ff ff ff    	mov    -0xd4(%ebp),%eax
  101650:	f7 e9                	imul   %ecx
  101652:	c1 fa 02             	sar    $0x2,%edx
  101655:	89 c8                	mov    %ecx,%eax
  101657:	c1 f8 1f             	sar    $0x1f,%eax
  10165a:	89 d6                	mov    %edx,%esi
  10165c:	29 c6                	sub    %eax,%esi
  10165e:	89 b5 48 ff ff ff    	mov    %esi,-0xb8(%ebp)
  101664:	8b 85 48 ff ff ff    	mov    -0xb8(%ebp),%eax
  10166a:	c1 e0 02             	shl    $0x2,%eax
  10166d:	03 85 48 ff ff ff    	add    -0xb8(%ebp),%eax
  101673:	01 c0                	add    %eax,%eax
  101675:	89 ca                	mov    %ecx,%edx
  101677:	29 c2                	sub    %eax,%edx
  101679:	89 95 48 ff ff ff    	mov    %edx,-0xb8(%ebp)
  10167f:	0f b6 85 48 ff ff ff 	movzbl -0xb8(%ebp),%eax
  101686:	83 c0 30             	add    $0x30,%eax
  101689:	88 03                	mov    %al,(%ebx)
  10168b:	8b 4d f4             	mov    -0xc(%ebp),%ecx
  10168e:	c7 85 2c ff ff ff 67 	movl   $0x66666667,-0xd4(%ebp)
  101695:	66 66 66 
  101698:	8b 85 2c ff ff ff    	mov    -0xd4(%ebp),%eax
  10169e:	f7 e9                	imul   %ecx
  1016a0:	c1 fa 02             	sar    $0x2,%edx
  1016a3:	89 c8                	mov    %ecx,%eax
  1016a5:	c1 f8 1f             	sar    $0x1f,%eax
  1016a8:	89 d1                	mov    %edx,%ecx
  1016aa:	29 c1                	sub    %eax,%ecx
  1016ac:	89 c8                	mov    %ecx,%eax
  1016ae:	89 45 f4             	mov    %eax,-0xc(%ebp)
  1016b1:	83 45 f0 01          	addl   $0x1,-0x10(%ebp)
  1016b5:	e9 21 ff ff ff       	jmp    1015db <_D5video4text4text6printdFkZv+0x72>
  1016ba:	8b 45 f0             	mov    -0x10(%ebp),%eax
  1016bd:	83 f8 20             	cmp    $0x20,%eax
  1016c0:	73 0b                	jae    1016cd <_D5video4text4text6printdFkZv+0x164>
  1016c2:	8b 75 f0             	mov    -0x10(%ebp),%esi
  1016c5:	89 b5 4c ff ff ff    	mov    %esi,-0xb4(%ebp)
  1016cb:	eb 34                	jmp    101701 <_D5video4text4text6printdFkZv+0x198>
  1016cd:	c7 85 50 ff ff ff 11 	movl   $0x11,-0xb0(%ebp)
  1016d4:	00 00 00 
  1016d7:	c7 85 54 ff ff ff 80 	movl   $0x105c80,-0xac(%ebp)
  1016de:	5c 10 00 
  1016e1:	c7 44 24 08 84 00 00 	movl   $0x84,0x8(%esp)
  1016e8:	00 
  1016e9:	8b 85 50 ff ff ff    	mov    -0xb0(%ebp),%eax
  1016ef:	8b 95 54 ff ff ff    	mov    -0xac(%ebp),%edx
  1016f5:	89 04 24             	mov    %eax,(%esp)
  1016f8:	89 54 24 04          	mov    %edx,0x4(%esp)
  1016fc:	e8 c5 11 00 00       	call   1028c6 <_d_array_bounds>
  101701:	8d 45 cc             	lea    -0x34(%ebp),%eax
  101704:	03 85 4c ff ff ff    	add    -0xb4(%ebp),%eax
  10170a:	c6 00 00             	movb   $0x0,(%eax)
  10170d:	c7 85 58 ff ff ff 20 	movl   $0x20,-0xa8(%ebp)
  101714:	00 00 00 
  101717:	8d 45 ac             	lea    -0x54(%ebp),%eax
  10171a:	89 85 5c ff ff ff    	mov    %eax,-0xa4(%ebp)
  101720:	8b 95 58 ff ff ff    	mov    -0xa8(%ebp),%edx
  101726:	89 55 a4             	mov    %edx,-0x5c(%ebp)
  101729:	8b 8d 5c ff ff ff    	mov    -0xa4(%ebp),%ecx
  10172f:	89 4d a0             	mov    %ecx,-0x60(%ebp)
  101732:	83 7d a4 00          	cmpl   $0x0,-0x5c(%ebp)
  101736:	0f 95 c0             	setne  %al
  101739:	83 f0 01             	xor    $0x1,%eax
  10173c:	84 c0                	test   %al,%al
  10173e:	75 10                	jne    101750 <_D5video4text4text6printdFkZv+0x1e7>
  101740:	8b 75 a0             	mov    -0x60(%ebp),%esi
  101743:	c6 06 ff             	movb   $0xff,(%esi)
  101746:	83 45 a0 01          	addl   $0x1,-0x60(%ebp)
  10174a:	83 6d a4 01          	subl   $0x1,-0x5c(%ebp)
  10174e:	eb e2                	jmp    101732 <_D5video4text4text6printdFkZv+0x1c9>
  101750:	8b 45 f0             	mov    -0x10(%ebp),%eax
  101753:	89 85 64 ff ff ff    	mov    %eax,-0x9c(%ebp)
  101759:	83 bd 64 ff ff ff 1f 	cmpl   $0x1f,-0x9c(%ebp)
  101760:	0f 96 c0             	setbe  %al
  101763:	83 6d f0 01          	subl   $0x1,-0x10(%ebp)
  101767:	84 c0                	test   %al,%al
  101769:	74 0e                	je     101779 <_D5video4text4text6printdFkZv+0x210>
  10176b:	8b 95 64 ff ff ff    	mov    -0x9c(%ebp),%edx
  101771:	89 95 60 ff ff ff    	mov    %edx,-0xa0(%ebp)
  101777:	eb 34                	jmp    1017ad <_D5video4text4text6printdFkZv+0x244>
  101779:	c7 85 68 ff ff ff 11 	movl   $0x11,-0x98(%ebp)
  101780:	00 00 00 
  101783:	c7 85 6c ff ff ff 80 	movl   $0x105c80,-0x94(%ebp)
  10178a:	5c 10 00 
  10178d:	c7 44 24 08 88 00 00 	movl   $0x88,0x8(%esp)
  101794:	00 
  101795:	8b 85 68 ff ff ff    	mov    -0x98(%ebp),%eax
  10179b:	8b 95 6c ff ff ff    	mov    -0x94(%ebp),%edx
  1017a1:	89 04 24             	mov    %eax,(%esp)
  1017a4:	89 54 24 04          	mov    %edx,0x4(%esp)
  1017a8:	e8 19 11 00 00       	call   1028c6 <_d_array_bounds>
  1017ad:	8d 45 ac             	lea    -0x54(%ebp),%eax
  1017b0:	03 85 60 ff ff ff    	add    -0xa0(%ebp),%eax
  1017b6:	c6 00 00             	movb   $0x0,(%eax)
  1017b9:	c7 45 ec 00 00 00 00 	movl   $0x0,-0x14(%ebp)
  1017c0:	8b 45 f0             	mov    -0x10(%ebp),%eax
  1017c3:	f7 d0                	not    %eax
  1017c5:	c1 e8 1f             	shr    $0x1f,%eax
  1017c8:	83 f0 01             	xor    $0x1,%eax
  1017cb:	84 c0                	test   %al,%al
  1017cd:	0f 85 c4 00 00 00    	jne    101897 <_D5video4text4text6printdFkZv+0x32e>
  1017d3:	8b 55 f0             	mov    -0x10(%ebp),%edx
  1017d6:	89 95 74 ff ff ff    	mov    %edx,-0x8c(%ebp)
  1017dc:	83 bd 74 ff ff ff 1f 	cmpl   $0x1f,-0x8c(%ebp)
  1017e3:	0f 96 c0             	setbe  %al
  1017e6:	83 6d f0 01          	subl   $0x1,-0x10(%ebp)
  1017ea:	84 c0                	test   %al,%al
  1017ec:	74 0e                	je     1017fc <_D5video4text4text6printdFkZv+0x293>
  1017ee:	8b 8d 74 ff ff ff    	mov    -0x8c(%ebp),%ecx
  1017f4:	89 8d 70 ff ff ff    	mov    %ecx,-0x90(%ebp)
  1017fa:	eb 34                	jmp    101830 <_D5video4text4text6printdFkZv+0x2c7>
  1017fc:	c7 85 78 ff ff ff 11 	movl   $0x11,-0x88(%ebp)
  101803:	00 00 00 
  101806:	c7 85 7c ff ff ff 80 	movl   $0x105c80,-0x84(%ebp)
  10180d:	5c 10 00 
  101810:	c7 44 24 08 8c 00 00 	movl   $0x8c,0x8(%esp)
  101817:	00 
  101818:	8b 85 78 ff ff ff    	mov    -0x88(%ebp),%eax
  10181e:	8b 95 7c ff ff ff    	mov    -0x84(%ebp),%edx
  101824:	89 04 24             	mov    %eax,(%esp)
  101827:	89 54 24 04          	mov    %edx,0x4(%esp)
  10182b:	e8 96 10 00 00       	call   1028c6 <_d_array_bounds>
  101830:	8d 55 ac             	lea    -0x54(%ebp),%edx
  101833:	89 55 84             	mov    %edx,-0x7c(%ebp)
  101836:	8b 8d 70 ff ff ff    	mov    -0x90(%ebp),%ecx
  10183c:	01 4d 84             	add    %ecx,-0x7c(%ebp)
  10183f:	8b 75 ec             	mov    -0x14(%ebp),%esi
  101842:	89 75 8c             	mov    %esi,-0x74(%ebp)
  101845:	83 7d 8c 1f          	cmpl   $0x1f,-0x74(%ebp)
  101849:	0f 96 c0             	setbe  %al
  10184c:	83 45 ec 01          	addl   $0x1,-0x14(%ebp)
  101850:	84 c0                	test   %al,%al
  101852:	74 08                	je     10185c <_D5video4text4text6printdFkZv+0x2f3>
  101854:	8b 45 8c             	mov    -0x74(%ebp),%eax
  101857:	89 45 88             	mov    %eax,-0x78(%ebp)
  10185a:	eb 28                	jmp    101884 <_D5video4text4text6printdFkZv+0x31b>
  10185c:	c7 45 90 11 00 00 00 	movl   $0x11,-0x70(%ebp)
  101863:	c7 45 94 80 5c 10 00 	movl   $0x105c80,-0x6c(%ebp)
  10186a:	c7 44 24 08 8c 00 00 	movl   $0x8c,0x8(%esp)
  101871:	00 
  101872:	8b 55 90             	mov    -0x70(%ebp),%edx
  101875:	8b 4d 94             	mov    -0x6c(%ebp),%ecx
  101878:	89 14 24             	mov    %edx,(%esp)
  10187b:	89 4c 24 04          	mov    %ecx,0x4(%esp)
  10187f:	e8 42 10 00 00       	call   1028c6 <_d_array_bounds>
  101884:	8d 45 cc             	lea    -0x34(%ebp),%eax
  101887:	03 45 88             	add    -0x78(%ebp),%eax
  10188a:	0f b6 00             	movzbl (%eax),%eax
  10188d:	8b 4d 84             	mov    -0x7c(%ebp),%ecx
  101890:	88 01                	mov    %al,(%ecx)
  101892:	e9 29 ff ff ff       	jmp    1017c0 <_D5video4text4text6printdFkZv+0x257>
  101897:	8d 45 ac             	lea    -0x54(%ebp),%eax
  10189a:	89 04 24             	mov    %eax,(%esp)
  10189d:	e8 ed fb ff ff       	call   10148f <_D5video4text4text4putsFPaZv>
  1018a2:	81 c4 e0 00 00 00    	add    $0xe0,%esp
  1018a8:	5b                   	pop    %ebx
  1018a9:	5e                   	pop    %esi
  1018aa:	5d                   	pop    %ebp
  1018ab:	c3                   	ret    

001018ac <clearScreen>:
  1018ac:	55                   	push   %ebp
  1018ad:	89 e5                	mov    %esp,%ebp
  1018af:	83 ec 18             	sub    $0x18,%esp
  1018b2:	c7 45 f8 00 80 0b 00 	movl   $0xb8000,-0x8(%ebp)
  1018b9:	c6 45 f7 20          	movb   $0x20,-0x9(%ebp)
  1018bd:	c7 45 f0 00 00 00 00 	movl   $0x0,-0x10(%ebp)
  1018c4:	c7 45 f0 00 00 00 00 	movl   $0x0,-0x10(%ebp)
  1018cb:	81 7d f0 3f 1f 00 00 	cmpl   $0x1f3f,-0x10(%ebp)
  1018d2:	0f 9e c0             	setle  %al
  1018d5:	83 f0 01             	xor    $0x1,%eax
  1018d8:	84 c0                	test   %al,%al
  1018da:	75 2c                	jne    101908 <clearScreen+0x5c>
  1018dc:	8b 45 f0             	mov    -0x10(%ebp),%eax
  1018df:	03 45 f8             	add    -0x8(%ebp),%eax
  1018e2:	89 45 fc             	mov    %eax,-0x4(%ebp)
  1018e5:	8b 55 fc             	mov    -0x4(%ebp),%edx
  1018e8:	0f b6 45 f7          	movzbl -0x9(%ebp),%eax
  1018ec:	88 02                	mov    %al,(%edx)
  1018ee:	83 45 fc 01          	addl   $0x1,-0x4(%ebp)
  1018f2:	e8 a9 f9 ff ff       	call   1012a0 <_D5video4text4text7getAttrFZh>
  1018f7:	89 c2                	mov    %eax,%edx
  1018f9:	8b 45 fc             	mov    -0x4(%ebp),%eax
  1018fc:	88 10                	mov    %dl,(%eax)
  1018fe:	83 45 f0 01          	addl   $0x1,-0x10(%ebp)
  101902:	83 45 f0 01          	addl   $0x1,-0x10(%ebp)
  101906:	eb c3                	jmp    1018cb <clearScreen+0x1f>
  101908:	c7 44 24 04 00 00 00 	movl   $0x0,0x4(%esp)
  10190f:	00 
  101910:	c7 04 24 00 00 00 00 	movl   $0x0,(%esp)
  101917:	e8 7a fa ff ff       	call   101396 <_D5video4text4text6gotoXYFkkZv>
  10191c:	e8 8e fa ff ff       	call   1013af <_D5video4text4text10moveCursorFZv>
  101921:	c9                   	leave  
  101922:	c3                   	ret    

00101923 <_D5video4text4misc12setStartAddrFtZv>:
  101923:	55                   	push   %ebp
  101924:	89 e5                	mov    %esp,%ebp
  101926:	83 ec 18             	sub    $0x18,%esp
  101929:	0f b7 45 08          	movzwl 0x8(%ebp),%eax
  10192d:	66 89 45 fe          	mov    %ax,-0x2(%ebp)
  101931:	c6 45 fd 00          	movb   $0x0,-0x3(%ebp)
  101935:	c6 45 fc 00          	movb   $0x0,-0x4(%ebp)
  101939:	0f b7 45 fe          	movzwl -0x2(%ebp),%eax
  10193d:	88 45 fd             	mov    %al,-0x3(%ebp)
  101940:	0f b7 45 fe          	movzwl -0x2(%ebp),%eax
  101944:	c1 f8 08             	sar    $0x8,%eax
  101947:	88 45 fc             	mov    %al,-0x4(%ebp)
  10194a:	c7 44 24 04 0c 00 00 	movl   $0xc,0x4(%esp)
  101951:	00 
  101952:	c7 04 24 d4 03 00 00 	movl   $0x3d4,(%esp)
  101959:	e8 46 e9 ff ff       	call   1002a4 <_D6kernel2io4outbFthZv>
  10195e:	0f b6 45 fc          	movzbl -0x4(%ebp),%eax
  101962:	89 44 24 04          	mov    %eax,0x4(%esp)
  101966:	c7 04 24 d5 03 00 00 	movl   $0x3d5,(%esp)
  10196d:	e8 32 e9 ff ff       	call   1002a4 <_D6kernel2io4outbFthZv>
  101972:	c7 44 24 04 0d 00 00 	movl   $0xd,0x4(%esp)
  101979:	00 
  10197a:	c7 04 24 d4 03 00 00 	movl   $0x3d4,(%esp)
  101981:	e8 1e e9 ff ff       	call   1002a4 <_D6kernel2io4outbFthZv>
  101986:	0f b6 45 fd          	movzbl -0x3(%ebp),%eax
  10198a:	89 44 24 04          	mov    %eax,0x4(%esp)
  10198e:	c7 04 24 d5 03 00 00 	movl   $0x3d5,(%esp)
  101995:	e8 0a e9 ff ff       	call   1002a4 <_D6kernel2io4outbFthZv>
  10199a:	c9                   	leave  
  10199b:	c3                   	ret    

0010199c <_D5video4text4misc16scrollScreenDownFZv>:
  10199c:	55                   	push   %ebp
  10199d:	89 e5                	mov    %esp,%ebp
  10199f:	83 ec 18             	sub    $0x18,%esp
  1019a2:	66 c7 45 fe 00 00    	movw   $0x0,-0x2(%ebp)
  1019a8:	c6 45 fd 00          	movb   $0x0,-0x3(%ebp)
  1019ac:	c6 45 fc 00          	movb   $0x0,-0x4(%ebp)
  1019b0:	0f b7 05 50 b1 10 00 	movzwl 0x10b150,%eax
  1019b7:	66 89 45 fe          	mov    %ax,-0x2(%ebp)
  1019bb:	66 83 45 fe 50       	addw   $0x50,-0x2(%ebp)
  1019c0:	0f b7 45 fe          	movzwl -0x2(%ebp),%eax
  1019c4:	89 04 24             	mov    %eax,(%esp)
  1019c7:	e8 57 ff ff ff       	call   101923 <_D5video4text4misc12setStartAddrFtZv>
  1019cc:	a1 04 a0 10 00       	mov    0x10a004,%eax
  1019d1:	83 c0 01             	add    $0x1,%eax
  1019d4:	a3 04 a0 10 00       	mov    %eax,0x10a004
  1019d9:	0f b7 45 fe          	movzwl -0x2(%ebp),%eax
  1019dd:	66 a3 50 b1 10 00    	mov    %ax,0x10b150
  1019e3:	c9                   	leave  
  1019e4:	c3                   	ret    

001019e5 <_D5video4text4misc14scrollScreenUpFZv>:
  1019e5:	55                   	push   %ebp
  1019e6:	89 e5                	mov    %esp,%ebp
  1019e8:	83 ec 18             	sub    $0x18,%esp
  1019eb:	66 c7 45 fe 00 00    	movw   $0x0,-0x2(%ebp)
  1019f1:	c6 45 fd 00          	movb   $0x0,-0x3(%ebp)
  1019f5:	c6 45 fc 00          	movb   $0x0,-0x4(%ebp)
  1019f9:	0f b7 05 50 b1 10 00 	movzwl 0x10b150,%eax
  101a00:	0f b7 c0             	movzwl %ax,%eax
  101a03:	85 c0                	test   %eax,%eax
  101a05:	7e 33                	jle    101a3a <_D5video4text4misc14scrollScreenUpFZv+0x55>
  101a07:	0f b7 05 50 b1 10 00 	movzwl 0x10b150,%eax
  101a0e:	66 89 45 fe          	mov    %ax,-0x2(%ebp)
  101a12:	66 83 6d fe 50       	subw   $0x50,-0x2(%ebp)
  101a17:	0f b7 45 fe          	movzwl -0x2(%ebp),%eax
  101a1b:	89 04 24             	mov    %eax,(%esp)
  101a1e:	e8 00 ff ff ff       	call   101923 <_D5video4text4misc12setStartAddrFtZv>
  101a23:	a1 04 a0 10 00       	mov    0x10a004,%eax
  101a28:	83 e8 01             	sub    $0x1,%eax
  101a2b:	a3 04 a0 10 00       	mov    %eax,0x10a004
  101a30:	0f b7 45 fe          	movzwl -0x2(%ebp),%eax
  101a34:	66 a3 50 b1 10 00    	mov    %ax,0x10b150
  101a3a:	c9                   	leave  
  101a3b:	c3                   	ret    

00101a3c <_D5video4text4misc6scrollFZv>:
  101a3c:	55                   	push   %ebp
  101a3d:	89 e5                	mov    %esp,%ebp
  101a3f:	83 ec 08             	sub    $0x8,%esp
  101a42:	a1 04 a0 10 00       	mov    0x10a004,%eax
  101a47:	83 f8 64             	cmp    $0x64,%eax
  101a4a:	72 26                	jb     101a72 <_D5video4text4misc6scrollFZv+0x36>
  101a4c:	e8 5b fe ff ff       	call   1018ac <clearScreen>
  101a51:	c7 04 24 00 00 00 00 	movl   $0x0,(%esp)
  101a58:	e8 c6 fe ff ff       	call   101923 <_D5video4text4misc12setStartAddrFtZv>
  101a5d:	66 c7 05 50 b1 10 00 	movw   $0x0,0x10b150
  101a64:	00 00 
  101a66:	c7 05 04 a0 10 00 19 	movl   $0x19,0x10a004
  101a6d:	00 00 00 
  101a70:	eb 15                	jmp    101a87 <_D5video4text4misc6scrollFZv+0x4b>
  101a72:	e8 35 f8 ff ff       	call   1012ac <_D5video4text4text4getYFZk>
  101a77:	89 c2                	mov    %eax,%edx
  101a79:	a1 04 a0 10 00       	mov    0x10a004,%eax
  101a7e:	39 c2                	cmp    %eax,%edx
  101a80:	72 05                	jb     101a87 <_D5video4text4misc6scrollFZv+0x4b>
  101a82:	e8 15 ff ff ff       	call   10199c <_D5video4text4misc16scrollScreenDownFZv>
  101a87:	c9                   	leave  
  101a88:	c3                   	ret    

00101a89 <_D5video4text4misc12toggleCursorFkZv>:
  101a89:	55                   	push   %ebp
  101a8a:	89 e5                	mov    %esp,%ebp
  101a8c:	83 ec 18             	sub    $0x18,%esp
  101a8f:	f7 55 08             	notl   0x8(%ebp)
  101a92:	83 65 08 01          	andl   $0x1,0x8(%ebp)
  101a96:	c7 44 24 04 0a 00 00 	movl   $0xa,0x4(%esp)
  101a9d:	00 
  101a9e:	c7 04 24 d4 03 00 00 	movl   $0x3d4,(%esp)
  101aa5:	e8 fa e7 ff ff       	call   1002a4 <_D6kernel2io4outbFthZv>
  101aaa:	c7 04 24 d5 03 00 00 	movl   $0x3d5,(%esp)
  101ab1:	e8 fb e7 ff ff       	call   1002b1 <_D6kernel2io3inbFtZh>
  101ab6:	88 45 ff             	mov    %al,-0x1(%ebp)
  101ab9:	8b 45 08             	mov    0x8(%ebp),%eax
  101abc:	c1 e0 05             	shl    $0x5,%eax
  101abf:	08 45 ff             	or     %al,-0x1(%ebp)
  101ac2:	c7 44 24 04 0a 00 00 	movl   $0xa,0x4(%esp)
  101ac9:	00 
  101aca:	c7 04 24 d4 03 00 00 	movl   $0x3d4,(%esp)
  101ad1:	e8 ce e7 ff ff       	call   1002a4 <_D6kernel2io4outbFthZv>
  101ad6:	0f b6 45 ff          	movzbl -0x1(%ebp),%eax
  101ada:	89 44 24 04          	mov    %eax,0x4(%esp)
  101ade:	c7 04 24 d5 03 00 00 	movl   $0x3d5,(%esp)
  101ae5:	e8 ba e7 ff ff       	call   1002a4 <_D6kernel2io4outbFthZv>
  101aea:	c9                   	leave  
  101aeb:	c3                   	ret    

00101aec <_d_toObject>:
  101aec:	55                   	push   %ebp
  101aed:	89 e5                	mov    %esp,%ebp
  101aef:	83 ec 10             	sub    $0x10,%esp
  101af2:	c7 45 f4 00 00 00 00 	movl   $0x0,-0xc(%ebp)
  101af9:	83 7d 08 00          	cmpl   $0x0,0x8(%ebp)
  101afd:	74 38                	je     101b37 <_d_toObject+0x4b>
  101aff:	8b 45 08             	mov    0x8(%ebp),%eax
  101b02:	89 45 f4             	mov    %eax,-0xc(%ebp)
  101b05:	8b 45 f4             	mov    -0xc(%ebp),%eax
  101b08:	8b 00                	mov    (%eax),%eax
  101b0a:	8b 00                	mov    (%eax),%eax
  101b0c:	89 45 fc             	mov    %eax,-0x4(%ebp)
  101b0f:	8b 45 08             	mov    0x8(%ebp),%eax
  101b12:	8b 00                	mov    (%eax),%eax
  101b14:	8b 00                	mov    (%eax),%eax
  101b16:	89 45 f8             	mov    %eax,-0x8(%ebp)
  101b19:	8b 45 f8             	mov    -0x8(%ebp),%eax
  101b1c:	8b 40 0c             	mov    0xc(%eax),%eax
  101b1f:	3d 00 00 01 00       	cmp    $0x10000,%eax
  101b24:	7d 11                	jge    101b37 <_d_toObject+0x4b>
  101b26:	8b 55 08             	mov    0x8(%ebp),%edx
  101b29:	8b 45 f8             	mov    -0x8(%ebp),%eax
  101b2c:	8b 40 0c             	mov    0xc(%eax),%eax
  101b2f:	f7 d8                	neg    %eax
  101b31:	8d 04 02             	lea    (%edx,%eax,1),%eax
  101b34:	89 45 f4             	mov    %eax,-0xc(%ebp)
  101b37:	8b 45 f4             	mov    -0xc(%ebp),%eax
  101b3a:	c9                   	leave  
  101b3b:	c3                   	ret    

00101b3c <_d_interface_cast>:
  101b3c:	55                   	push   %ebp
  101b3d:	89 e5                	mov    %esp,%ebp
  101b3f:	83 ec 28             	sub    $0x28,%esp
  101b42:	c7 45 f8 00 00 00 00 	movl   $0x0,-0x8(%ebp)
  101b49:	83 7d 08 00          	cmpl   $0x0,0x8(%ebp)
  101b4d:	74 32                	je     101b81 <_d_interface_cast+0x45>
  101b4f:	8b 45 08             	mov    0x8(%ebp),%eax
  101b52:	8b 00                	mov    (%eax),%eax
  101b54:	8b 00                	mov    (%eax),%eax
  101b56:	89 45 fc             	mov    %eax,-0x4(%ebp)
  101b59:	8b 55 08             	mov    0x8(%ebp),%edx
  101b5c:	8b 45 fc             	mov    -0x4(%ebp),%eax
  101b5f:	8b 40 0c             	mov    0xc(%eax),%eax
  101b62:	f7 d8                	neg    %eax
  101b64:	8d 04 02             	lea    (%edx,%eax,1),%eax
  101b67:	89 45 f8             	mov    %eax,-0x8(%ebp)
  101b6a:	8b 45 0c             	mov    0xc(%ebp),%eax
  101b6d:	89 44 24 04          	mov    %eax,0x4(%esp)
  101b71:	8b 45 f8             	mov    -0x8(%ebp),%eax
  101b74:	89 04 24             	mov    %eax,(%esp)
  101b77:	e8 10 00 00 00       	call   101b8c <_d_dynamic_cast>
  101b7c:	89 45 ec             	mov    %eax,-0x14(%ebp)
  101b7f:	eb 06                	jmp    101b87 <_d_interface_cast+0x4b>
  101b81:	8b 45 f8             	mov    -0x8(%ebp),%eax
  101b84:	89 45 ec             	mov    %eax,-0x14(%ebp)
  101b87:	8b 45 ec             	mov    -0x14(%ebp),%eax
  101b8a:	c9                   	leave  
  101b8b:	c3                   	ret    

00101b8c <_d_dynamic_cast>:
  101b8c:	55                   	push   %ebp
  101b8d:	89 e5                	mov    %esp,%ebp
  101b8f:	83 ec 28             	sub    $0x28,%esp
  101b92:	c7 45 fc 00 00 00 00 	movl   $0x0,-0x4(%ebp)
  101b99:	c7 45 f8 00 00 00 00 	movl   $0x0,-0x8(%ebp)
  101ba0:	83 7d 08 00          	cmpl   $0x0,0x8(%ebp)
  101ba4:	74 36                	je     101bdc <_d_dynamic_cast+0x50>
  101ba6:	8b 45 08             	mov    0x8(%ebp),%eax
  101ba9:	8b 00                	mov    (%eax),%eax
  101bab:	8b 00                	mov    (%eax),%eax
  101bad:	89 45 fc             	mov    %eax,-0x4(%ebp)
  101bb0:	8d 45 f8             	lea    -0x8(%ebp),%eax
  101bb3:	89 44 24 08          	mov    %eax,0x8(%esp)
  101bb7:	8b 45 0c             	mov    0xc(%ebp),%eax
  101bba:	89 44 24 04          	mov    %eax,0x4(%esp)
  101bbe:	8b 45 fc             	mov    -0x4(%ebp),%eax
  101bc1:	89 04 24             	mov    %eax,(%esp)
  101bc4:	e8 18 00 00 00       	call   101be1 <_d_isbaseof2>
  101bc9:	85 c0                	test   %eax,%eax
  101bcb:	74 08                	je     101bd5 <_d_dynamic_cast+0x49>
  101bcd:	8b 45 f8             	mov    -0x8(%ebp),%eax
  101bd0:	01 45 08             	add    %eax,0x8(%ebp)
  101bd3:	eb 07                	jmp    101bdc <_d_dynamic_cast+0x50>
  101bd5:	c7 45 08 00 00 00 00 	movl   $0x0,0x8(%ebp)
  101bdc:	8b 45 08             	mov    0x8(%ebp),%eax
  101bdf:	c9                   	leave  
  101be0:	c3                   	ret    

00101be1 <_d_isbaseof2>:
  101be1:	55                   	push   %ebp
  101be2:	89 e5                	mov    %esp,%ebp
  101be4:	83 ec 68             	sub    $0x68,%esp
  101be7:	c7 45 f4 00 00 00 00 	movl   $0x0,-0xc(%ebp)
  101bee:	8b 45 08             	mov    0x8(%ebp),%eax
  101bf1:	3b 45 0c             	cmp    0xc(%ebp),%eax
  101bf4:	75 0c                	jne    101c02 <_d_isbaseof2+0x21>
  101bf6:	c7 45 ac 01 00 00 00 	movl   $0x1,-0x54(%ebp)
  101bfd:	e9 35 02 00 00       	jmp    101e37 <_d_isbaseof2+0x256>
  101c02:	8b 45 08             	mov    0x8(%ebp),%eax
  101c05:	8b 40 28             	mov    0x28(%eax),%eax
  101c08:	3b 45 0c             	cmp    0xc(%ebp),%eax
  101c0b:	75 0c                	jne    101c19 <_d_isbaseof2+0x38>
  101c0d:	c7 45 ac 01 00 00 00 	movl   $0x1,-0x54(%ebp)
  101c14:	e9 1e 02 00 00       	jmp    101e37 <_d_isbaseof2+0x256>
  101c19:	c7 45 f4 00 00 00 00 	movl   $0x0,-0xc(%ebp)
  101c20:	8b 55 f4             	mov    -0xc(%ebp),%edx
  101c23:	8b 45 08             	mov    0x8(%ebp),%eax
  101c26:	8b 40 20             	mov    0x20(%eax),%eax
  101c29:	39 c2                	cmp    %eax,%edx
  101c2b:	0f 92 c0             	setb   %al
  101c2e:	83 f0 01             	xor    $0x1,%eax
  101c31:	84 c0                	test   %al,%al
  101c33:	0f 85 d5 00 00 00    	jne    101d0e <_d_isbaseof2+0x12d>
  101c39:	c7 45 f8 00 00 00 00 	movl   $0x0,-0x8(%ebp)
  101c40:	8b 45 08             	mov    0x8(%ebp),%eax
  101c43:	8b 40 24             	mov    0x24(%eax),%eax
  101c46:	89 45 b0             	mov    %eax,-0x50(%ebp)
  101c49:	8b 55 f4             	mov    -0xc(%ebp),%edx
  101c4c:	8b 45 08             	mov    0x8(%ebp),%eax
  101c4f:	8b 40 20             	mov    0x20(%eax),%eax
  101c52:	39 c2                	cmp    %eax,%edx
  101c54:	73 0d                	jae    101c63 <_d_isbaseof2+0x82>
  101c56:	8b 45 f4             	mov    -0xc(%ebp),%eax
  101c59:	89 c2                	mov    %eax,%edx
  101c5b:	c1 e2 04             	shl    $0x4,%edx
  101c5e:	89 55 b4             	mov    %edx,-0x4c(%ebp)
  101c61:	eb 28                	jmp    101c8b <_d_isbaseof2+0xaa>
  101c63:	c7 45 b8 19 00 00 00 	movl   $0x19,-0x48(%ebp)
  101c6a:	c7 45 bc a0 5c 10 00 	movl   $0x105ca0,-0x44(%ebp)
  101c71:	c7 44 24 08 56 00 00 	movl   $0x56,0x8(%esp)
  101c78:	00 
  101c79:	8b 45 b8             	mov    -0x48(%ebp),%eax
  101c7c:	8b 55 bc             	mov    -0x44(%ebp),%edx
  101c7f:	89 04 24             	mov    %eax,(%esp)
  101c82:	89 54 24 04          	mov    %edx,0x4(%esp)
  101c86:	e8 3b 0c 00 00       	call   1028c6 <_d_array_bounds>
  101c8b:	8b 45 b0             	mov    -0x50(%ebp),%eax
  101c8e:	03 45 b4             	add    -0x4c(%ebp),%eax
  101c91:	8b 00                	mov    (%eax),%eax
  101c93:	89 45 f8             	mov    %eax,-0x8(%ebp)
  101c96:	8b 45 f8             	mov    -0x8(%ebp),%eax
  101c99:	3b 45 0c             	cmp    0xc(%ebp),%eax
  101c9c:	75 67                	jne    101d05 <_d_isbaseof2+0x124>
  101c9e:	8b 45 08             	mov    0x8(%ebp),%eax
  101ca1:	8b 40 24             	mov    0x24(%eax),%eax
  101ca4:	89 45 c0             	mov    %eax,-0x40(%ebp)
  101ca7:	8b 55 f4             	mov    -0xc(%ebp),%edx
  101caa:	8b 45 08             	mov    0x8(%ebp),%eax
  101cad:	8b 40 20             	mov    0x20(%eax),%eax
  101cb0:	39 c2                	cmp    %eax,%edx
  101cb2:	73 0d                	jae    101cc1 <_d_isbaseof2+0xe0>
  101cb4:	8b 45 f4             	mov    -0xc(%ebp),%eax
  101cb7:	89 c2                	mov    %eax,%edx
  101cb9:	c1 e2 04             	shl    $0x4,%edx
  101cbc:	89 55 c4             	mov    %edx,-0x3c(%ebp)
  101cbf:	eb 28                	jmp    101ce9 <_d_isbaseof2+0x108>
  101cc1:	c7 45 c8 19 00 00 00 	movl   $0x19,-0x38(%ebp)
  101cc8:	c7 45 cc a0 5c 10 00 	movl   $0x105ca0,-0x34(%ebp)
  101ccf:	c7 44 24 08 58 00 00 	movl   $0x58,0x8(%esp)
  101cd6:	00 
  101cd7:	8b 45 c8             	mov    -0x38(%ebp),%eax
  101cda:	8b 55 cc             	mov    -0x34(%ebp),%edx
  101cdd:	89 04 24             	mov    %eax,(%esp)
  101ce0:	89 54 24 04          	mov    %edx,0x4(%esp)
  101ce4:	e8 dd 0b 00 00       	call   1028c6 <_d_array_bounds>
  101ce9:	8b 45 c0             	mov    -0x40(%ebp),%eax
  101cec:	03 45 c4             	add    -0x3c(%ebp),%eax
  101cef:	8b 40 0c             	mov    0xc(%eax),%eax
  101cf2:	89 c2                	mov    %eax,%edx
  101cf4:	8b 45 10             	mov    0x10(%ebp),%eax
  101cf7:	89 10                	mov    %edx,(%eax)
  101cf9:	c7 45 ac 01 00 00 00 	movl   $0x1,-0x54(%ebp)
  101d00:	e9 32 01 00 00       	jmp    101e37 <_d_isbaseof2+0x256>
  101d05:	83 45 f4 01          	addl   $0x1,-0xc(%ebp)
  101d09:	e9 12 ff ff ff       	jmp    101c20 <_d_isbaseof2+0x3f>
  101d0e:	c7 45 f4 00 00 00 00 	movl   $0x0,-0xc(%ebp)
  101d15:	8b 55 f4             	mov    -0xc(%ebp),%edx
  101d18:	8b 45 08             	mov    0x8(%ebp),%eax
  101d1b:	8b 40 20             	mov    0x20(%eax),%eax
  101d1e:	39 c2                	cmp    %eax,%edx
  101d20:	0f 92 c0             	setb   %al
  101d23:	83 f0 01             	xor    $0x1,%eax
  101d26:	84 c0                	test   %al,%al
  101d28:	0f 85 e7 00 00 00    	jne    101e15 <_d_isbaseof2+0x234>
  101d2e:	c7 45 fc 00 00 00 00 	movl   $0x0,-0x4(%ebp)
  101d35:	8b 45 08             	mov    0x8(%ebp),%eax
  101d38:	8b 40 24             	mov    0x24(%eax),%eax
  101d3b:	89 45 d0             	mov    %eax,-0x30(%ebp)
  101d3e:	8b 55 f4             	mov    -0xc(%ebp),%edx
  101d41:	8b 45 08             	mov    0x8(%ebp),%eax
  101d44:	8b 40 20             	mov    0x20(%eax),%eax
  101d47:	39 c2                	cmp    %eax,%edx
  101d49:	73 0d                	jae    101d58 <_d_isbaseof2+0x177>
  101d4b:	8b 45 f4             	mov    -0xc(%ebp),%eax
  101d4e:	89 c2                	mov    %eax,%edx
  101d50:	c1 e2 04             	shl    $0x4,%edx
  101d53:	89 55 d4             	mov    %edx,-0x2c(%ebp)
  101d56:	eb 28                	jmp    101d80 <_d_isbaseof2+0x19f>
  101d58:	c7 45 d8 19 00 00 00 	movl   $0x19,-0x28(%ebp)
  101d5f:	c7 45 dc a0 5c 10 00 	movl   $0x105ca0,-0x24(%ebp)
  101d66:	c7 44 24 08 5f 00 00 	movl   $0x5f,0x8(%esp)
  101d6d:	00 
  101d6e:	8b 45 d8             	mov    -0x28(%ebp),%eax
  101d71:	8b 55 dc             	mov    -0x24(%ebp),%edx
  101d74:	89 04 24             	mov    %eax,(%esp)
  101d77:	89 54 24 04          	mov    %edx,0x4(%esp)
  101d7b:	e8 46 0b 00 00       	call   1028c6 <_d_array_bounds>
  101d80:	8b 45 d0             	mov    -0x30(%ebp),%eax
  101d83:	03 45 d4             	add    -0x2c(%ebp),%eax
  101d86:	8b 00                	mov    (%eax),%eax
  101d88:	89 45 fc             	mov    %eax,-0x4(%ebp)
  101d8b:	8b 45 10             	mov    0x10(%ebp),%eax
  101d8e:	89 44 24 08          	mov    %eax,0x8(%esp)
  101d92:	8b 45 0c             	mov    0xc(%ebp),%eax
  101d95:	89 44 24 04          	mov    %eax,0x4(%esp)
  101d99:	8b 45 fc             	mov    -0x4(%ebp),%eax
  101d9c:	89 04 24             	mov    %eax,(%esp)
  101d9f:	e8 3d fe ff ff       	call   101be1 <_d_isbaseof2>
  101da4:	85 c0                	test   %eax,%eax
  101da6:	74 64                	je     101e0c <_d_isbaseof2+0x22b>
  101da8:	8b 45 08             	mov    0x8(%ebp),%eax
  101dab:	8b 40 24             	mov    0x24(%eax),%eax
  101dae:	89 45 e0             	mov    %eax,-0x20(%ebp)
  101db1:	8b 55 f4             	mov    -0xc(%ebp),%edx
  101db4:	8b 45 08             	mov    0x8(%ebp),%eax
  101db7:	8b 40 20             	mov    0x20(%eax),%eax
  101dba:	39 c2                	cmp    %eax,%edx
  101dbc:	73 0d                	jae    101dcb <_d_isbaseof2+0x1ea>
  101dbe:	8b 45 f4             	mov    -0xc(%ebp),%eax
  101dc1:	89 c2                	mov    %eax,%edx
  101dc3:	c1 e2 04             	shl    $0x4,%edx
  101dc6:	89 55 e4             	mov    %edx,-0x1c(%ebp)
  101dc9:	eb 28                	jmp    101df3 <_d_isbaseof2+0x212>
  101dcb:	c7 45 e8 19 00 00 00 	movl   $0x19,-0x18(%ebp)
  101dd2:	c7 45 ec a0 5c 10 00 	movl   $0x105ca0,-0x14(%ebp)
  101dd9:	c7 44 24 08 61 00 00 	movl   $0x61,0x8(%esp)
  101de0:	00 
  101de1:	8b 45 e8             	mov    -0x18(%ebp),%eax
  101de4:	8b 55 ec             	mov    -0x14(%ebp),%edx
  101de7:	89 04 24             	mov    %eax,(%esp)
  101dea:	89 54 24 04          	mov    %edx,0x4(%esp)
  101dee:	e8 d3 0a 00 00       	call   1028c6 <_d_array_bounds>
  101df3:	8b 45 e0             	mov    -0x20(%ebp),%eax
  101df6:	03 45 e4             	add    -0x1c(%ebp),%eax
  101df9:	8b 40 0c             	mov    0xc(%eax),%eax
  101dfc:	89 c2                	mov    %eax,%edx
  101dfe:	8b 45 10             	mov    0x10(%ebp),%eax
  101e01:	89 10                	mov    %edx,(%eax)
  101e03:	c7 45 ac 01 00 00 00 	movl   $0x1,-0x54(%ebp)
  101e0a:	eb 2b                	jmp    101e37 <_d_isbaseof2+0x256>
  101e0c:	83 45 f4 01          	addl   $0x1,-0xc(%ebp)
  101e10:	e9 00 ff ff ff       	jmp    101d15 <_d_isbaseof2+0x134>
  101e15:	8b 45 08             	mov    0x8(%ebp),%eax
  101e18:	8b 40 28             	mov    0x28(%eax),%eax
  101e1b:	89 45 08             	mov    %eax,0x8(%ebp)
  101e1e:	83 7d 08 00          	cmpl   $0x0,0x8(%ebp)
  101e22:	0f 95 c0             	setne  %al
  101e25:	83 f0 01             	xor    $0x1,%eax
  101e28:	84 c0                	test   %al,%al
  101e2a:	0f 84 d2 fd ff ff    	je     101c02 <_d_isbaseof2+0x21>
  101e30:	c7 45 ac 00 00 00 00 	movl   $0x0,-0x54(%ebp)
  101e37:	8b 45 ac             	mov    -0x54(%ebp),%eax
  101e3a:	c9                   	leave  
  101e3b:	c3                   	ret    

00101e3c <_d_isbaseof>:
  101e3c:	55                   	push   %ebp
  101e3d:	89 e5                	mov    %esp,%ebp
  101e3f:	83 ec 38             	sub    $0x38,%esp
  101e42:	c7 45 f8 00 00 00 00 	movl   $0x0,-0x8(%ebp)
  101e49:	8b 45 08             	mov    0x8(%ebp),%eax
  101e4c:	3b 45 0c             	cmp    0xc(%ebp),%eax
  101e4f:	75 0c                	jne    101e5d <_d_isbaseof+0x21>
  101e51:	c7 45 dc 01 00 00 00 	movl   $0x1,-0x24(%ebp)
  101e58:	e9 e6 00 00 00       	jmp    101f43 <_d_isbaseof+0x107>
  101e5d:	8b 45 08             	mov    0x8(%ebp),%eax
  101e60:	8b 40 28             	mov    0x28(%eax),%eax
  101e63:	3b 45 0c             	cmp    0xc(%ebp),%eax
  101e66:	75 0c                	jne    101e74 <_d_isbaseof+0x38>
  101e68:	c7 45 dc 01 00 00 00 	movl   $0x1,-0x24(%ebp)
  101e6f:	e9 cf 00 00 00       	jmp    101f43 <_d_isbaseof+0x107>
  101e74:	c7 45 f8 00 00 00 00 	movl   $0x0,-0x8(%ebp)
  101e7b:	8b 55 f8             	mov    -0x8(%ebp),%edx
  101e7e:	8b 45 08             	mov    0x8(%ebp),%eax
  101e81:	8b 40 20             	mov    0x20(%eax),%eax
  101e84:	39 c2                	cmp    %eax,%edx
  101e86:	0f 92 c0             	setb   %al
  101e89:	83 f0 01             	xor    $0x1,%eax
  101e8c:	84 c0                	test   %al,%al
  101e8e:	0f 85 8d 00 00 00    	jne    101f21 <_d_isbaseof+0xe5>
  101e94:	c7 45 fc 00 00 00 00 	movl   $0x0,-0x4(%ebp)
  101e9b:	8b 45 08             	mov    0x8(%ebp),%eax
  101e9e:	8b 40 24             	mov    0x24(%eax),%eax
  101ea1:	89 45 e0             	mov    %eax,-0x20(%ebp)
  101ea4:	8b 55 f8             	mov    -0x8(%ebp),%edx
  101ea7:	8b 45 08             	mov    0x8(%ebp),%eax
  101eaa:	8b 40 20             	mov    0x20(%eax),%eax
  101ead:	39 c2                	cmp    %eax,%edx
  101eaf:	73 0d                	jae    101ebe <_d_isbaseof+0x82>
  101eb1:	8b 45 f8             	mov    -0x8(%ebp),%eax
  101eb4:	89 c2                	mov    %eax,%edx
  101eb6:	c1 e2 04             	shl    $0x4,%edx
  101eb9:	89 55 e4             	mov    %edx,-0x1c(%ebp)
  101ebc:	eb 28                	jmp    101ee6 <_d_isbaseof+0xaa>
  101ebe:	c7 45 e8 19 00 00 00 	movl   $0x19,-0x18(%ebp)
  101ec5:	c7 45 ec a0 5c 10 00 	movl   $0x105ca0,-0x14(%ebp)
  101ecc:	c7 44 24 08 75 00 00 	movl   $0x75,0x8(%esp)
  101ed3:	00 
  101ed4:	8b 45 e8             	mov    -0x18(%ebp),%eax
  101ed7:	8b 55 ec             	mov    -0x14(%ebp),%edx
  101eda:	89 04 24             	mov    %eax,(%esp)
  101edd:	89 54 24 04          	mov    %edx,0x4(%esp)
  101ee1:	e8 e0 09 00 00       	call   1028c6 <_d_array_bounds>
  101ee6:	8b 45 e0             	mov    -0x20(%ebp),%eax
  101ee9:	03 45 e4             	add    -0x1c(%ebp),%eax
  101eec:	8b 00                	mov    (%eax),%eax
  101eee:	89 45 fc             	mov    %eax,-0x4(%ebp)
  101ef1:	8b 45 fc             	mov    -0x4(%ebp),%eax
  101ef4:	3b 45 0c             	cmp    0xc(%ebp),%eax
  101ef7:	74 16                	je     101f0f <_d_isbaseof+0xd3>
  101ef9:	8b 45 0c             	mov    0xc(%ebp),%eax
  101efc:	89 44 24 04          	mov    %eax,0x4(%esp)
  101f00:	8b 45 fc             	mov    -0x4(%ebp),%eax
  101f03:	89 04 24             	mov    %eax,(%esp)
  101f06:	e8 31 ff ff ff       	call   101e3c <_d_isbaseof>
  101f0b:	85 c0                	test   %eax,%eax
  101f0d:	74 09                	je     101f18 <_d_isbaseof+0xdc>
  101f0f:	c7 45 dc 01 00 00 00 	movl   $0x1,-0x24(%ebp)
  101f16:	eb 2b                	jmp    101f43 <_d_isbaseof+0x107>
  101f18:	83 45 f8 01          	addl   $0x1,-0x8(%ebp)
  101f1c:	e9 5a ff ff ff       	jmp    101e7b <_d_isbaseof+0x3f>
  101f21:	8b 45 08             	mov    0x8(%ebp),%eax
  101f24:	8b 40 28             	mov    0x28(%eax),%eax
  101f27:	89 45 08             	mov    %eax,0x8(%ebp)
  101f2a:	83 7d 08 00          	cmpl   $0x0,0x8(%ebp)
  101f2e:	0f 95 c0             	setne  %al
  101f31:	83 f0 01             	xor    $0x1,%eax
  101f34:	84 c0                	test   %al,%al
  101f36:	0f 84 21 ff ff ff    	je     101e5d <_d_isbaseof+0x21>
  101f3c:	c7 45 dc 00 00 00 00 	movl   $0x0,-0x24(%ebp)
  101f43:	8b 45 dc             	mov    -0x24(%ebp),%eax
  101f46:	c9                   	leave  
  101f47:	c3                   	ret    

00101f48 <_d_interface_vtbl>:
  101f48:	55                   	push   %ebp
  101f49:	89 e5                	mov    %esp,%ebp
  101f4b:	83 ec 58             	sub    $0x58,%esp
  101f4e:	c7 45 f8 00 00 00 00 	movl   $0x0,-0x8(%ebp)
  101f55:	c7 45 f4 00 00 00 00 	movl   $0x0,-0xc(%ebp)
  101f5c:	8b 45 0c             	mov    0xc(%ebp),%eax
  101f5f:	89 04 24             	mov    %eax,(%esp)
  101f62:	e8 ae 1f 00 00       	call   103f15 <_D9invariant12_d_invariantFC6ObjectZv>
  101f67:	8b 45 0c             	mov    0xc(%ebp),%eax
  101f6a:	8b 00                	mov    (%eax),%eax
  101f6c:	8b 00                	mov    (%eax),%eax
  101f6e:	89 45 f4             	mov    %eax,-0xc(%ebp)
  101f71:	c7 45 f8 00 00 00 00 	movl   $0x0,-0x8(%ebp)
  101f78:	8b 55 f8             	mov    -0x8(%ebp),%edx
  101f7b:	8b 45 f4             	mov    -0xc(%ebp),%eax
  101f7e:	8b 40 20             	mov    0x20(%eax),%eax
  101f81:	39 c2                	cmp    %eax,%edx
  101f83:	0f 92 c0             	setb   %al
  101f86:	83 f0 01             	xor    $0x1,%eax
  101f89:	84 c0                	test   %al,%al
  101f8b:	0f 85 ca 00 00 00    	jne    10205b <_d_interface_vtbl+0x113>
  101f91:	c7 45 fc 00 00 00 00 	movl   $0x0,-0x4(%ebp)
  101f98:	8b 45 f4             	mov    -0xc(%ebp),%eax
  101f9b:	8b 40 24             	mov    0x24(%eax),%eax
  101f9e:	89 45 c8             	mov    %eax,-0x38(%ebp)
  101fa1:	8b 55 f8             	mov    -0x8(%ebp),%edx
  101fa4:	8b 45 f4             	mov    -0xc(%ebp),%eax
  101fa7:	8b 40 20             	mov    0x20(%eax),%eax
  101faa:	39 c2                	cmp    %eax,%edx
  101fac:	73 0d                	jae    101fbb <_d_interface_vtbl+0x73>
  101fae:	8b 45 f8             	mov    -0x8(%ebp),%eax
  101fb1:	89 c2                	mov    %eax,%edx
  101fb3:	c1 e2 04             	shl    $0x4,%edx
  101fb6:	89 55 cc             	mov    %edx,-0x34(%ebp)
  101fb9:	eb 28                	jmp    101fe3 <_d_interface_vtbl+0x9b>
  101fbb:	c7 45 d0 19 00 00 00 	movl   $0x19,-0x30(%ebp)
  101fc2:	c7 45 d4 a0 5c 10 00 	movl   $0x105ca0,-0x2c(%ebp)
  101fc9:	c7 44 24 08 8e 00 00 	movl   $0x8e,0x8(%esp)
  101fd0:	00 
  101fd1:	8b 45 d0             	mov    -0x30(%ebp),%eax
  101fd4:	8b 55 d4             	mov    -0x2c(%ebp),%edx
  101fd7:	89 04 24             	mov    %eax,(%esp)
  101fda:	89 54 24 04          	mov    %edx,0x4(%esp)
  101fde:	e8 e3 08 00 00       	call   1028c6 <_d_array_bounds>
  101fe3:	8b 45 c8             	mov    -0x38(%ebp),%eax
  101fe6:	03 45 cc             	add    -0x34(%ebp),%eax
  101fe9:	8b 00                	mov    (%eax),%eax
  101feb:	89 45 fc             	mov    %eax,-0x4(%ebp)
  101fee:	8b 45 fc             	mov    -0x4(%ebp),%eax
  101ff1:	3b 45 08             	cmp    0x8(%ebp),%eax
  101ff4:	75 5c                	jne    102052 <_d_interface_vtbl+0x10a>
  101ff6:	8b 45 f4             	mov    -0xc(%ebp),%eax
  101ff9:	8b 40 24             	mov    0x24(%eax),%eax
  101ffc:	89 45 d8             	mov    %eax,-0x28(%ebp)
  101fff:	8b 55 f8             	mov    -0x8(%ebp),%edx
  102002:	8b 45 f4             	mov    -0xc(%ebp),%eax
  102005:	8b 40 20             	mov    0x20(%eax),%eax
  102008:	39 c2                	cmp    %eax,%edx
  10200a:	73 0d                	jae    102019 <_d_interface_vtbl+0xd1>
  10200c:	8b 45 f8             	mov    -0x8(%ebp),%eax
  10200f:	89 c2                	mov    %eax,%edx
  102011:	c1 e2 04             	shl    $0x4,%edx
  102014:	89 55 dc             	mov    %edx,-0x24(%ebp)
  102017:	eb 28                	jmp    102041 <_d_interface_vtbl+0xf9>
  102019:	c7 45 e0 19 00 00 00 	movl   $0x19,-0x20(%ebp)
  102020:	c7 45 e4 a0 5c 10 00 	movl   $0x105ca0,-0x1c(%ebp)
  102027:	c7 44 24 08 90 00 00 	movl   $0x90,0x8(%esp)
  10202e:	00 
  10202f:	8b 45 e0             	mov    -0x20(%ebp),%eax
  102032:	8b 55 e4             	mov    -0x1c(%ebp),%edx
  102035:	89 04 24             	mov    %eax,(%esp)
  102038:	89 54 24 04          	mov    %edx,0x4(%esp)
  10203c:	e8 85 08 00 00       	call   1028c6 <_d_array_bounds>
  102041:	8b 45 d8             	mov    -0x28(%ebp),%eax
  102044:	03 45 dc             	add    -0x24(%ebp),%eax
  102047:	8b 40 08             	mov    0x8(%eax),%eax
  10204a:	89 45 c4             	mov    %eax,-0x3c(%ebp)
  10204d:	8b 45 c4             	mov    -0x3c(%ebp),%eax
  102050:	eb 31                	jmp    102083 <_d_interface_vtbl+0x13b>
  102052:	83 45 f8 01          	addl   $0x1,-0x8(%ebp)
  102056:	e9 1d ff ff ff       	jmp    101f78 <_d_interface_vtbl+0x30>
  10205b:	c7 45 e8 19 00 00 00 	movl   $0x19,-0x18(%ebp)
  102062:	c7 45 ec a0 5c 10 00 	movl   $0x105ca0,-0x14(%ebp)
  102069:	c7 44 24 08 93 00 00 	movl   $0x93,0x8(%esp)
  102070:	00 
  102071:	8b 45 e8             	mov    -0x18(%ebp),%eax
  102074:	8b 55 ec             	mov    -0x14(%ebp),%edx
  102077:	89 04 24             	mov    %eax,(%esp)
  10207a:	89 54 24 04          	mov    %edx,0x4(%esp)
  10207e:	e8 f3 07 00 00       	call   102876 <_d_assert>
  102083:	c9                   	leave  
  102084:	c3                   	ret    

00102085 <_d_obj_eq>:
  102085:	55                   	push   %ebp
  102086:	89 e5                	mov    %esp,%ebp
  102088:	83 ec 18             	sub    $0x18,%esp
  10208b:	8b 45 08             	mov    0x8(%ebp),%eax
  10208e:	3b 45 0c             	cmp    0xc(%ebp),%eax
  102091:	74 23                	je     1020b6 <_d_obj_eq+0x31>
  102093:	83 7d 08 00          	cmpl   $0x0,0x8(%ebp)
  102097:	74 23                	je     1020bc <_d_obj_eq+0x37>
  102099:	8b 45 08             	mov    0x8(%ebp),%eax
  10209c:	8b 00                	mov    (%eax),%eax
  10209e:	83 c0 14             	add    $0x14,%eax
  1020a1:	8b 10                	mov    (%eax),%edx
  1020a3:	8b 45 0c             	mov    0xc(%ebp),%eax
  1020a6:	89 44 24 04          	mov    %eax,0x4(%esp)
  1020aa:	8b 45 08             	mov    0x8(%ebp),%eax
  1020ad:	89 04 24             	mov    %eax,(%esp)
  1020b0:	ff d2                	call   *%edx
  1020b2:	85 c0                	test   %eax,%eax
  1020b4:	74 06                	je     1020bc <_d_obj_eq+0x37>
  1020b6:	c6 45 ff 01          	movb   $0x1,-0x1(%ebp)
  1020ba:	eb 04                	jmp    1020c0 <_d_obj_eq+0x3b>
  1020bc:	c6 45 ff 00          	movb   $0x0,-0x1(%ebp)
  1020c0:	0f b6 45 ff          	movzbl -0x1(%ebp),%eax
  1020c4:	c9                   	leave  
  1020c5:	c3                   	ret    

001020c6 <_d_obj_cmp>:
  1020c6:	55                   	push   %ebp
  1020c7:	89 e5                	mov    %esp,%ebp
  1020c9:	83 ec 08             	sub    $0x8,%esp
  1020cc:	8b 45 08             	mov    0x8(%ebp),%eax
  1020cf:	8b 00                	mov    (%eax),%eax
  1020d1:	83 c0 10             	add    $0x10,%eax
  1020d4:	8b 10                	mov    (%eax),%edx
  1020d6:	8b 45 0c             	mov    0xc(%ebp),%eax
  1020d9:	89 44 24 04          	mov    %eax,0x4(%esp)
  1020dd:	8b 45 08             	mov    0x8(%ebp),%eax
  1020e0:	89 04 24             	mov    %eax,(%esp)
  1020e3:	ff d2                	call   *%edx
  1020e5:	c9                   	leave  
  1020e6:	c3                   	ret    

001020e7 <_d_switch_string>:
  1020e7:	55                   	push   %ebp
  1020e8:	89 e5                	mov    %esp,%ebp
  1020ea:	81 ec a8 00 00 00    	sub    $0xa8,%esp
  1020f0:	c7 45 f8 00 00 00 00 	movl   $0x0,-0x8(%ebp)
  1020f7:	c7 45 f4 00 00 00 00 	movl   $0x0,-0xc(%ebp)
  1020fe:	c7 45 f0 00 00 00 00 	movl   $0x0,-0x10(%ebp)
  102105:	c7 45 ec 00 00 00 00 	movl   $0x0,-0x14(%ebp)
  10210c:	c7 45 e4 00 00 00 00 	movl   $0x0,-0x1c(%ebp)
  102113:	c7 45 e8 00 00 00 00 	movl   $0x0,-0x18(%ebp)
  10211a:	c7 45 f8 00 00 00 00 	movl   $0x0,-0x8(%ebp)
  102121:	8b 45 08             	mov    0x8(%ebp),%eax
  102124:	89 45 f4             	mov    %eax,-0xc(%ebp)
  102127:	83 7d f4 00          	cmpl   $0x0,-0xc(%ebp)
  10212b:	0f 84 5d 02 00 00    	je     10238e <_d_switch_string+0x2a7>
  102131:	8b 45 10             	mov    0x10(%ebp),%eax
  102134:	89 85 74 ff ff ff    	mov    %eax,-0x8c(%ebp)
  10213a:	8b 55 0c             	mov    0xc(%ebp),%edx
  10213d:	89 95 78 ff ff ff    	mov    %edx,-0x88(%ebp)
  102143:	8b 45 08             	mov    0x8(%ebp),%eax
  102146:	85 c0                	test   %eax,%eax
  102148:	75 2a                	jne    102174 <_d_switch_string+0x8d>
  10214a:	c7 45 80 19 00 00 00 	movl   $0x19,-0x80(%ebp)
  102151:	c7 45 84 a0 5c 10 00 	movl   $0x105ca0,-0x7c(%ebp)
  102158:	c7 44 24 08 a9 00 00 	movl   $0xa9,0x8(%esp)
  10215f:	00 
  102160:	8b 45 80             	mov    -0x80(%ebp),%eax
  102163:	8b 55 84             	mov    -0x7c(%ebp),%edx
  102166:	89 04 24             	mov    %eax,(%esp)
  102169:	89 54 24 04          	mov    %edx,0x4(%esp)
  10216d:	e8 54 07 00 00       	call   1028c6 <_d_array_bounds>
  102172:	eb 0a                	jmp    10217e <_d_switch_string+0x97>
  102174:	c7 85 7c ff ff ff 00 	movl   $0x0,-0x84(%ebp)
  10217b:	00 00 00 
  10217e:	8b 85 78 ff ff ff    	mov    -0x88(%ebp),%eax
  102184:	03 85 7c ff ff ff    	add    -0x84(%ebp),%eax
  10218a:	8b 00                	mov    (%eax),%eax
  10218c:	39 85 74 ff ff ff    	cmp    %eax,-0x8c(%ebp)
  102192:	0f 82 f6 01 00 00    	jb     10238e <_d_switch_string+0x2a7>
  102198:	8b 55 10             	mov    0x10(%ebp),%edx
  10219b:	89 55 88             	mov    %edx,-0x78(%ebp)
  10219e:	8b 4d 0c             	mov    0xc(%ebp),%ecx
  1021a1:	89 4d 8c             	mov    %ecx,-0x74(%ebp)
  1021a4:	8b 45 f4             	mov    -0xc(%ebp),%eax
  1021a7:	83 e8 01             	sub    $0x1,%eax
  1021aa:	89 45 94             	mov    %eax,-0x6c(%ebp)
  1021ad:	8b 45 08             	mov    0x8(%ebp),%eax
  1021b0:	39 45 94             	cmp    %eax,-0x6c(%ebp)
  1021b3:	73 0b                	jae    1021c0 <_d_switch_string+0xd9>
  1021b5:	8b 45 94             	mov    -0x6c(%ebp),%eax
  1021b8:	c1 e0 03             	shl    $0x3,%eax
  1021bb:	89 45 90             	mov    %eax,-0x70(%ebp)
  1021be:	eb 28                	jmp    1021e8 <_d_switch_string+0x101>
  1021c0:	c7 45 98 19 00 00 00 	movl   $0x19,-0x68(%ebp)
  1021c7:	c7 45 9c a0 5c 10 00 	movl   $0x105ca0,-0x64(%ebp)
  1021ce:	c7 44 24 08 aa 00 00 	movl   $0xaa,0x8(%esp)
  1021d5:	00 
  1021d6:	8b 55 98             	mov    -0x68(%ebp),%edx
  1021d9:	8b 4d 9c             	mov    -0x64(%ebp),%ecx
  1021dc:	89 14 24             	mov    %edx,(%esp)
  1021df:	89 4c 24 04          	mov    %ecx,0x4(%esp)
  1021e3:	e8 de 06 00 00       	call   1028c6 <_d_array_bounds>
  1021e8:	8b 45 8c             	mov    -0x74(%ebp),%eax
  1021eb:	03 45 90             	add    -0x70(%ebp),%eax
  1021ee:	8b 00                	mov    (%eax),%eax
  1021f0:	39 45 88             	cmp    %eax,-0x78(%ebp)
  1021f3:	0f 87 95 01 00 00    	ja     10238e <_d_switch_string+0x2a7>
  1021f9:	8b 45 10             	mov    0x10(%ebp),%eax
  1021fc:	85 c0                	test   %eax,%eax
  1021fe:	75 0c                	jne    10220c <_d_switch_string+0x125>
  102200:	c7 45 a4 00 00 00 00 	movl   $0x0,-0x5c(%ebp)
  102207:	e9 89 01 00 00       	jmp    102395 <_d_switch_string+0x2ae>
  10220c:	8b 4d 14             	mov    0x14(%ebp),%ecx
  10220f:	89 4d a8             	mov    %ecx,-0x58(%ebp)
  102212:	8b 45 10             	mov    0x10(%ebp),%eax
  102215:	85 c0                	test   %eax,%eax
  102217:	75 2a                	jne    102243 <_d_switch_string+0x15c>
  102219:	c7 45 b0 19 00 00 00 	movl   $0x19,-0x50(%ebp)
  102220:	c7 45 b4 a0 5c 10 00 	movl   $0x105ca0,-0x4c(%ebp)
  102227:	c7 44 24 08 af 00 00 	movl   $0xaf,0x8(%esp)
  10222e:	00 
  10222f:	8b 45 b0             	mov    -0x50(%ebp),%eax
  102232:	8b 55 b4             	mov    -0x4c(%ebp),%edx
  102235:	89 04 24             	mov    %eax,(%esp)
  102238:	89 54 24 04          	mov    %edx,0x4(%esp)
  10223c:	e8 85 06 00 00       	call   1028c6 <_d_array_bounds>
  102241:	eb 07                	jmp    10224a <_d_switch_string+0x163>
  102243:	c7 45 ac 00 00 00 00 	movl   $0x0,-0x54(%ebp)
  10224a:	8b 45 a8             	mov    -0x58(%ebp),%eax
  10224d:	03 45 ac             	add    -0x54(%ebp),%eax
  102250:	0f b6 00             	movzbl (%eax),%eax
  102253:	88 45 ff             	mov    %al,-0x1(%ebp)
  102256:	8b 45 f8             	mov    -0x8(%ebp),%eax
  102259:	3b 45 f4             	cmp    -0xc(%ebp),%eax
  10225c:	0f 9c c0             	setl   %al
  10225f:	83 f0 01             	xor    $0x1,%eax
  102262:	84 c0                	test   %al,%al
  102264:	0f 85 24 01 00 00    	jne    10238e <_d_switch_string+0x2a7>
  10226a:	8b 55 f4             	mov    -0xc(%ebp),%edx
  10226d:	8b 45 f8             	mov    -0x8(%ebp),%eax
  102270:	01 d0                	add    %edx,%eax
  102272:	d1 f8                	sar    %eax
  102274:	89 45 f0             	mov    %eax,-0x10(%ebp)
  102277:	8b 55 0c             	mov    0xc(%ebp),%edx
  10227a:	89 55 b8             	mov    %edx,-0x48(%ebp)
  10227d:	8b 55 f0             	mov    -0x10(%ebp),%edx
  102280:	8b 45 08             	mov    0x8(%ebp),%eax
  102283:	39 c2                	cmp    %eax,%edx
  102285:	73 0b                	jae    102292 <_d_switch_string+0x1ab>
  102287:	8b 45 f0             	mov    -0x10(%ebp),%eax
  10228a:	c1 e0 03             	shl    $0x3,%eax
  10228d:	89 45 bc             	mov    %eax,-0x44(%ebp)
  102290:	eb 28                	jmp    1022ba <_d_switch_string+0x1d3>
  102292:	c7 45 c0 19 00 00 00 	movl   $0x19,-0x40(%ebp)
  102299:	c7 45 c4 a0 5c 10 00 	movl   $0x105ca0,-0x3c(%ebp)
  1022a0:	c7 44 24 08 b4 00 00 	movl   $0xb4,0x8(%esp)
  1022a7:	00 
  1022a8:	8b 45 c0             	mov    -0x40(%ebp),%eax
  1022ab:	8b 55 c4             	mov    -0x3c(%ebp),%edx
  1022ae:	89 04 24             	mov    %eax,(%esp)
  1022b1:	89 54 24 04          	mov    %edx,0x4(%esp)
  1022b5:	e8 0c 06 00 00       	call   1028c6 <_d_array_bounds>
  1022ba:	8b 45 b8             	mov    -0x48(%ebp),%eax
  1022bd:	03 45 bc             	add    -0x44(%ebp),%eax
  1022c0:	8b 50 04             	mov    0x4(%eax),%edx
  1022c3:	8b 00                	mov    (%eax),%eax
  1022c5:	89 45 e4             	mov    %eax,-0x1c(%ebp)
  1022c8:	89 55 e8             	mov    %edx,-0x18(%ebp)
  1022cb:	8b 55 10             	mov    0x10(%ebp),%edx
  1022ce:	8b 45 e4             	mov    -0x1c(%ebp),%eax
  1022d1:	89 d1                	mov    %edx,%ecx
  1022d3:	29 c1                	sub    %eax,%ecx
  1022d5:	89 c8                	mov    %ecx,%eax
  1022d7:	89 45 ec             	mov    %eax,-0x14(%ebp)
  1022da:	83 7d ec 00          	cmpl   $0x0,-0x14(%ebp)
  1022de:	0f 85 8b 00 00 00    	jne    10236f <_d_switch_string+0x288>
  1022e4:	0f b6 45 ff          	movzbl -0x1(%ebp),%eax
  1022e8:	89 45 cc             	mov    %eax,-0x34(%ebp)
  1022eb:	8b 55 e8             	mov    -0x18(%ebp),%edx
  1022ee:	89 55 d0             	mov    %edx,-0x30(%ebp)
  1022f1:	8b 45 e4             	mov    -0x1c(%ebp),%eax
  1022f4:	85 c0                	test   %eax,%eax
  1022f6:	75 2a                	jne    102322 <_d_switch_string+0x23b>
  1022f8:	c7 45 d8 19 00 00 00 	movl   $0x19,-0x28(%ebp)
  1022ff:	c7 45 dc a0 5c 10 00 	movl   $0x105ca0,-0x24(%ebp)
  102306:	c7 44 24 08 b7 00 00 	movl   $0xb7,0x8(%esp)
  10230d:	00 
  10230e:	8b 45 d8             	mov    -0x28(%ebp),%eax
  102311:	8b 55 dc             	mov    -0x24(%ebp),%edx
  102314:	89 04 24             	mov    %eax,(%esp)
  102317:	89 54 24 04          	mov    %edx,0x4(%esp)
  10231b:	e8 a6 05 00 00       	call   1028c6 <_d_array_bounds>
  102320:	eb 07                	jmp    102329 <_d_switch_string+0x242>
  102322:	c7 45 d4 00 00 00 00 	movl   $0x0,-0x2c(%ebp)
  102329:	8b 45 d0             	mov    -0x30(%ebp),%eax
  10232c:	03 45 d4             	add    -0x2c(%ebp),%eax
  10232f:	0f b6 00             	movzbl (%eax),%eax
  102332:	0f b6 c0             	movzbl %al,%eax
  102335:	8b 55 cc             	mov    -0x34(%ebp),%edx
  102338:	29 c2                	sub    %eax,%edx
  10233a:	89 d0                	mov    %edx,%eax
  10233c:	89 45 ec             	mov    %eax,-0x14(%ebp)
  10233f:	83 7d ec 00          	cmpl   $0x0,-0x14(%ebp)
  102343:	75 2a                	jne    10236f <_d_switch_string+0x288>
  102345:	8b 45 10             	mov    0x10(%ebp),%eax
  102348:	8b 55 e8             	mov    -0x18(%ebp),%edx
  10234b:	8b 4d 14             	mov    0x14(%ebp),%ecx
  10234e:	89 44 24 08          	mov    %eax,0x8(%esp)
  102352:	89 54 24 04          	mov    %edx,0x4(%esp)
  102356:	89 0c 24             	mov    %ecx,(%esp)
  102359:	e8 23 19 00 00       	call   103c81 <memcmp>
  10235e:	89 45 ec             	mov    %eax,-0x14(%ebp)
  102361:	83 7d ec 00          	cmpl   $0x0,-0x14(%ebp)
  102365:	75 08                	jne    10236f <_d_switch_string+0x288>
  102367:	8b 4d f0             	mov    -0x10(%ebp),%ecx
  10236a:	89 4d a4             	mov    %ecx,-0x5c(%ebp)
  10236d:	eb 26                	jmp    102395 <_d_switch_string+0x2ae>
  10236f:	83 7d ec 00          	cmpl   $0x0,-0x14(%ebp)
  102373:	79 0b                	jns    102380 <_d_switch_string+0x299>
  102375:	8b 45 f0             	mov    -0x10(%ebp),%eax
  102378:	89 45 f4             	mov    %eax,-0xc(%ebp)
  10237b:	e9 d6 fe ff ff       	jmp    102256 <_d_switch_string+0x16f>
  102380:	8b 45 f0             	mov    -0x10(%ebp),%eax
  102383:	83 c0 01             	add    $0x1,%eax
  102386:	89 45 f8             	mov    %eax,-0x8(%ebp)
  102389:	e9 c8 fe ff ff       	jmp    102256 <_d_switch_string+0x16f>
  10238e:	c7 45 a4 ff ff ff ff 	movl   $0xffffffff,-0x5c(%ebp)
  102395:	8b 45 a4             	mov    -0x5c(%ebp),%eax
  102398:	c9                   	leave  
  102399:	c3                   	ret    

0010239a <_d_switch_ustring>:
  10239a:	55                   	push   %ebp
  10239b:	89 e5                	mov    %esp,%ebp
  10239d:	83 ec 48             	sub    $0x48,%esp
  1023a0:	c7 45 fc 00 00 00 00 	movl   $0x0,-0x4(%ebp)
  1023a7:	c7 45 f8 00 00 00 00 	movl   $0x0,-0x8(%ebp)
  1023ae:	c7 45 f4 00 00 00 00 	movl   $0x0,-0xc(%ebp)
  1023b5:	c7 45 f0 00 00 00 00 	movl   $0x0,-0x10(%ebp)
  1023bc:	c7 45 e8 00 00 00 00 	movl   $0x0,-0x18(%ebp)
  1023c3:	c7 45 ec 00 00 00 00 	movl   $0x0,-0x14(%ebp)
  1023ca:	c7 45 fc 00 00 00 00 	movl   $0x0,-0x4(%ebp)
  1023d1:	8b 45 08             	mov    0x8(%ebp),%eax
  1023d4:	89 45 f8             	mov    %eax,-0x8(%ebp)
  1023d7:	8b 45 fc             	mov    -0x4(%ebp),%eax
  1023da:	3b 45 f8             	cmp    -0x8(%ebp),%eax
  1023dd:	0f 9c c0             	setl   %al
  1023e0:	83 f0 01             	xor    $0x1,%eax
  1023e3:	84 c0                	test   %al,%al
  1023e5:	0f 85 c1 00 00 00    	jne    1024ac <_d_switch_ustring+0x112>
  1023eb:	8b 55 f8             	mov    -0x8(%ebp),%edx
  1023ee:	8b 45 fc             	mov    -0x4(%ebp),%eax
  1023f1:	01 d0                	add    %edx,%eax
  1023f3:	d1 f8                	sar    %eax
  1023f5:	89 45 f4             	mov    %eax,-0xc(%ebp)
  1023f8:	8b 45 0c             	mov    0xc(%ebp),%eax
  1023fb:	89 45 c8             	mov    %eax,-0x38(%ebp)
  1023fe:	8b 55 f4             	mov    -0xc(%ebp),%edx
  102401:	8b 45 08             	mov    0x8(%ebp),%eax
  102404:	39 c2                	cmp    %eax,%edx
  102406:	73 0b                	jae    102413 <_d_switch_ustring+0x79>
  102408:	8b 45 f4             	mov    -0xc(%ebp),%eax
  10240b:	c1 e0 03             	shl    $0x3,%eax
  10240e:	89 45 cc             	mov    %eax,-0x34(%ebp)
  102411:	eb 28                	jmp    10243b <_d_switch_ustring+0xa1>
  102413:	c7 45 d0 19 00 00 00 	movl   $0x19,-0x30(%ebp)
  10241a:	c7 45 d4 a0 5c 10 00 	movl   $0x105ca0,-0x2c(%ebp)
  102421:	c7 44 24 08 d8 00 00 	movl   $0xd8,0x8(%esp)
  102428:	00 
  102429:	8b 55 d0             	mov    -0x30(%ebp),%edx
  10242c:	8b 4d d4             	mov    -0x2c(%ebp),%ecx
  10242f:	89 14 24             	mov    %edx,(%esp)
  102432:	89 4c 24 04          	mov    %ecx,0x4(%esp)
  102436:	e8 8b 04 00 00       	call   1028c6 <_d_array_bounds>
  10243b:	8b 45 c8             	mov    -0x38(%ebp),%eax
  10243e:	03 45 cc             	add    -0x34(%ebp),%eax
  102441:	8b 50 04             	mov    0x4(%eax),%edx
  102444:	8b 00                	mov    (%eax),%eax
  102446:	89 45 e8             	mov    %eax,-0x18(%ebp)
  102449:	89 55 ec             	mov    %edx,-0x14(%ebp)
  10244c:	8b 55 10             	mov    0x10(%ebp),%edx
  10244f:	8b 45 e8             	mov    -0x18(%ebp),%eax
  102452:	89 d1                	mov    %edx,%ecx
  102454:	29 c1                	sub    %eax,%ecx
  102456:	89 c8                	mov    %ecx,%eax
  102458:	89 45 f0             	mov    %eax,-0x10(%ebp)
  10245b:	83 7d f0 00          	cmpl   $0x0,-0x10(%ebp)
  10245f:	75 2c                	jne    10248d <_d_switch_ustring+0xf3>
  102461:	8b 45 10             	mov    0x10(%ebp),%eax
  102464:	01 c0                	add    %eax,%eax
  102466:	8b 55 ec             	mov    -0x14(%ebp),%edx
  102469:	8b 4d 14             	mov    0x14(%ebp),%ecx
  10246c:	89 44 24 08          	mov    %eax,0x8(%esp)
  102470:	89 54 24 04          	mov    %edx,0x4(%esp)
  102474:	89 0c 24             	mov    %ecx,(%esp)
  102477:	e8 05 18 00 00       	call   103c81 <memcmp>
  10247c:	89 45 f0             	mov    %eax,-0x10(%ebp)
  10247f:	83 7d f0 00          	cmpl   $0x0,-0x10(%ebp)
  102483:	75 08                	jne    10248d <_d_switch_ustring+0xf3>
  102485:	8b 45 f4             	mov    -0xc(%ebp),%eax
  102488:	89 45 dc             	mov    %eax,-0x24(%ebp)
  10248b:	eb 26                	jmp    1024b3 <_d_switch_ustring+0x119>
  10248d:	83 7d f0 00          	cmpl   $0x0,-0x10(%ebp)
  102491:	79 0b                	jns    10249e <_d_switch_ustring+0x104>
  102493:	8b 45 f4             	mov    -0xc(%ebp),%eax
  102496:	89 45 f8             	mov    %eax,-0x8(%ebp)
  102499:	e9 39 ff ff ff       	jmp    1023d7 <_d_switch_ustring+0x3d>
  10249e:	8b 45 f4             	mov    -0xc(%ebp),%eax
  1024a1:	83 c0 01             	add    $0x1,%eax
  1024a4:	89 45 fc             	mov    %eax,-0x4(%ebp)
  1024a7:	e9 2b ff ff ff       	jmp    1023d7 <_d_switch_ustring+0x3d>
  1024ac:	c7 45 dc ff ff ff ff 	movl   $0xffffffff,-0x24(%ebp)
  1024b3:	8b 45 dc             	mov    -0x24(%ebp),%eax
  1024b6:	c9                   	leave  
  1024b7:	c3                   	ret    

001024b8 <_d_switch_dstring>:
  1024b8:	55                   	push   %ebp
  1024b9:	89 e5                	mov    %esp,%ebp
  1024bb:	83 ec 48             	sub    $0x48,%esp
  1024be:	c7 45 fc 00 00 00 00 	movl   $0x0,-0x4(%ebp)
  1024c5:	c7 45 f8 00 00 00 00 	movl   $0x0,-0x8(%ebp)
  1024cc:	c7 45 f4 00 00 00 00 	movl   $0x0,-0xc(%ebp)
  1024d3:	c7 45 f0 00 00 00 00 	movl   $0x0,-0x10(%ebp)
  1024da:	c7 45 e8 00 00 00 00 	movl   $0x0,-0x18(%ebp)
  1024e1:	c7 45 ec 00 00 00 00 	movl   $0x0,-0x14(%ebp)
  1024e8:	c7 45 fc 00 00 00 00 	movl   $0x0,-0x4(%ebp)
  1024ef:	8b 45 08             	mov    0x8(%ebp),%eax
  1024f2:	89 45 f8             	mov    %eax,-0x8(%ebp)
  1024f5:	8b 45 fc             	mov    -0x4(%ebp),%eax
  1024f8:	3b 45 f8             	cmp    -0x8(%ebp),%eax
  1024fb:	0f 9c c0             	setl   %al
  1024fe:	83 f0 01             	xor    $0x1,%eax
  102501:	84 c0                	test   %al,%al
  102503:	0f 85 c2 00 00 00    	jne    1025cb <_d_switch_dstring+0x113>
  102509:	8b 55 f8             	mov    -0x8(%ebp),%edx
  10250c:	8b 45 fc             	mov    -0x4(%ebp),%eax
  10250f:	01 d0                	add    %edx,%eax
  102511:	d1 f8                	sar    %eax
  102513:	89 45 f4             	mov    %eax,-0xc(%ebp)
  102516:	8b 45 0c             	mov    0xc(%ebp),%eax
  102519:	89 45 c8             	mov    %eax,-0x38(%ebp)
  10251c:	8b 55 f4             	mov    -0xc(%ebp),%edx
  10251f:	8b 45 08             	mov    0x8(%ebp),%eax
  102522:	39 c2                	cmp    %eax,%edx
  102524:	73 0b                	jae    102531 <_d_switch_dstring+0x79>
  102526:	8b 45 f4             	mov    -0xc(%ebp),%eax
  102529:	c1 e0 03             	shl    $0x3,%eax
  10252c:	89 45 cc             	mov    %eax,-0x34(%ebp)
  10252f:	eb 28                	jmp    102559 <_d_switch_dstring+0xa1>
  102531:	c7 45 d0 19 00 00 00 	movl   $0x19,-0x30(%ebp)
  102538:	c7 45 d4 a0 5c 10 00 	movl   $0x105ca0,-0x2c(%ebp)
  10253f:	c7 44 24 08 f8 00 00 	movl   $0xf8,0x8(%esp)
  102546:	00 
  102547:	8b 55 d0             	mov    -0x30(%ebp),%edx
  10254a:	8b 4d d4             	mov    -0x2c(%ebp),%ecx
  10254d:	89 14 24             	mov    %edx,(%esp)
  102550:	89 4c 24 04          	mov    %ecx,0x4(%esp)
  102554:	e8 6d 03 00 00       	call   1028c6 <_d_array_bounds>
  102559:	8b 45 c8             	mov    -0x38(%ebp),%eax
  10255c:	03 45 cc             	add    -0x34(%ebp),%eax
  10255f:	8b 50 04             	mov    0x4(%eax),%edx
  102562:	8b 00                	mov    (%eax),%eax
  102564:	89 45 e8             	mov    %eax,-0x18(%ebp)
  102567:	89 55 ec             	mov    %edx,-0x14(%ebp)
  10256a:	8b 55 10             	mov    0x10(%ebp),%edx
  10256d:	8b 45 e8             	mov    -0x18(%ebp),%eax
  102570:	89 d1                	mov    %edx,%ecx
  102572:	29 c1                	sub    %eax,%ecx
  102574:	89 c8                	mov    %ecx,%eax
  102576:	89 45 f0             	mov    %eax,-0x10(%ebp)
  102579:	83 7d f0 00          	cmpl   $0x0,-0x10(%ebp)
  10257d:	75 2d                	jne    1025ac <_d_switch_dstring+0xf4>
  10257f:	8b 45 10             	mov    0x10(%ebp),%eax
  102582:	c1 e0 02             	shl    $0x2,%eax
  102585:	8b 55 ec             	mov    -0x14(%ebp),%edx
  102588:	8b 4d 14             	mov    0x14(%ebp),%ecx
  10258b:	89 44 24 08          	mov    %eax,0x8(%esp)
  10258f:	89 54 24 04          	mov    %edx,0x4(%esp)
  102593:	89 0c 24             	mov    %ecx,(%esp)
  102596:	e8 e6 16 00 00       	call   103c81 <memcmp>
  10259b:	89 45 f0             	mov    %eax,-0x10(%ebp)
  10259e:	83 7d f0 00          	cmpl   $0x0,-0x10(%ebp)
  1025a2:	75 08                	jne    1025ac <_d_switch_dstring+0xf4>
  1025a4:	8b 45 f4             	mov    -0xc(%ebp),%eax
  1025a7:	89 45 dc             	mov    %eax,-0x24(%ebp)
  1025aa:	eb 26                	jmp    1025d2 <_d_switch_dstring+0x11a>
  1025ac:	83 7d f0 00          	cmpl   $0x0,-0x10(%ebp)
  1025b0:	79 0b                	jns    1025bd <_d_switch_dstring+0x105>
  1025b2:	8b 45 f4             	mov    -0xc(%ebp),%eax
  1025b5:	89 45 f8             	mov    %eax,-0x8(%ebp)
  1025b8:	e9 38 ff ff ff       	jmp    1024f5 <_d_switch_dstring+0x3d>
  1025bd:	8b 45 f4             	mov    -0xc(%ebp),%eax
  1025c0:	83 c0 01             	add    $0x1,%eax
  1025c3:	89 45 fc             	mov    %eax,-0x4(%ebp)
  1025c6:	e9 2a ff ff ff       	jmp    1024f5 <_d_switch_dstring+0x3d>
  1025cb:	c7 45 dc ff ff ff ff 	movl   $0xffffffff,-0x24(%ebp)
  1025d2:	8b 45 dc             	mov    -0x24(%ebp),%eax
  1025d5:	c9                   	leave  
  1025d6:	c3                   	ret    

001025d7 <_d_arraycase>:
  1025d7:	55                   	push   %ebp
  1025d8:	89 e5                	mov    %esp,%ebp
  1025da:	83 ec 14             	sub    $0x14,%esp
  1025dd:	8b 4d 08             	mov    0x8(%ebp),%ecx
  1025e0:	8b 45 14             	mov    0x14(%ebp),%eax
  1025e3:	89 45 fc             	mov    %eax,-0x4(%ebp)
  1025e6:	c7 45 f8 00 00 00 00 	movl   $0x0,-0x8(%ebp)
  1025ed:	8b 45 fc             	mov    -0x4(%ebp),%eax
  1025f0:	0f af 45 10          	imul   0x10(%ebp),%eax
  1025f4:	89 45 f8             	mov    %eax,-0x8(%ebp)
  1025f7:	8b 45 f8             	mov    -0x8(%ebp),%eax
  1025fa:	ba 00 00 00 00       	mov    $0x0,%edx
  1025ff:	f7 75 0c             	divl   0xc(%ebp)
  102602:	89 45 fc             	mov    %eax,-0x4(%ebp)
  102605:	8d 55 14             	lea    0x14(%ebp),%edx
  102608:	8b 45 fc             	mov    -0x4(%ebp),%eax
  10260b:	89 02                	mov    %eax,(%edx)
  10260d:	8b 45 14             	mov    0x14(%ebp),%eax
  102610:	8b 55 18             	mov    0x18(%ebp),%edx
  102613:	89 01                	mov    %eax,(%ecx)
  102615:	89 51 04             	mov    %edx,0x4(%ecx)
  102618:	89 c8                	mov    %ecx,%eax
  10261a:	c9                   	leave  
  10261b:	c2 04 00             	ret    $0x4

0010261e <_d_array_init_i1>:
  10261e:	55                   	push   %ebp
  10261f:	89 e5                	mov    %esp,%ebp
  102621:	83 ec 10             	sub    $0x10,%esp
  102624:	8b 45 08             	mov    0x8(%ebp),%eax
  102627:	89 45 fc             	mov    %eax,-0x4(%ebp)
  10262a:	8b 45 0c             	mov    0xc(%ebp),%eax
  10262d:	03 45 08             	add    0x8(%ebp),%eax
  102630:	89 45 f8             	mov    %eax,-0x8(%ebp)
  102633:	8b 45 fc             	mov    -0x4(%ebp),%eax
  102636:	3b 45 f8             	cmp    -0x8(%ebp),%eax
  102639:	0f 95 c0             	setne  %al
  10263c:	83 f0 01             	xor    $0x1,%eax
  10263f:	84 c0                	test   %al,%al
  102641:	75 0f                	jne    102652 <_d_array_init_i1+0x34>
  102643:	8b 55 fc             	mov    -0x4(%ebp),%edx
  102646:	0f b6 45 10          	movzbl 0x10(%ebp),%eax
  10264a:	88 02                	mov    %al,(%edx)
  10264c:	83 45 fc 01          	addl   $0x1,-0x4(%ebp)
  102650:	eb e1                	jmp    102633 <_d_array_init_i1+0x15>
  102652:	c9                   	leave  
  102653:	c3                   	ret    

00102654 <_d_array_init_i8>:
  102654:	55                   	push   %ebp
  102655:	89 e5                	mov    %esp,%ebp
  102657:	83 ec 10             	sub    $0x10,%esp
  10265a:	8b 45 08             	mov    0x8(%ebp),%eax
  10265d:	89 45 fc             	mov    %eax,-0x4(%ebp)
  102660:	8b 45 0c             	mov    0xc(%ebp),%eax
  102663:	03 45 08             	add    0x8(%ebp),%eax
  102666:	89 45 f8             	mov    %eax,-0x8(%ebp)
  102669:	8b 45 fc             	mov    -0x4(%ebp),%eax
  10266c:	3b 45 f8             	cmp    -0x8(%ebp),%eax
  10266f:	0f 95 c0             	setne  %al
  102672:	83 f0 01             	xor    $0x1,%eax
  102675:	84 c0                	test   %al,%al
  102677:	75 0f                	jne    102688 <_d_array_init_i8+0x34>
  102679:	8b 55 fc             	mov    -0x4(%ebp),%edx
  10267c:	0f b6 45 10          	movzbl 0x10(%ebp),%eax
  102680:	88 02                	mov    %al,(%edx)
  102682:	83 45 fc 01          	addl   $0x1,-0x4(%ebp)
  102686:	eb e1                	jmp    102669 <_d_array_init_i8+0x15>
  102688:	c9                   	leave  
  102689:	c3                   	ret    

0010268a <_d_array_init_i16>:
  10268a:	55                   	push   %ebp
  10268b:	89 e5                	mov    %esp,%ebp
  10268d:	83 ec 10             	sub    $0x10,%esp
  102690:	8b 45 08             	mov    0x8(%ebp),%eax
  102693:	89 45 fc             	mov    %eax,-0x4(%ebp)
  102696:	8b 45 0c             	mov    0xc(%ebp),%eax
  102699:	01 c0                	add    %eax,%eax
  10269b:	03 45 08             	add    0x8(%ebp),%eax
  10269e:	89 45 f8             	mov    %eax,-0x8(%ebp)
  1026a1:	8b 45 fc             	mov    -0x4(%ebp),%eax
  1026a4:	3b 45 f8             	cmp    -0x8(%ebp),%eax
  1026a7:	0f 95 c0             	setne  %al
  1026aa:	83 f0 01             	xor    $0x1,%eax
  1026ad:	84 c0                	test   %al,%al
  1026af:	75 10                	jne    1026c1 <_d_array_init_i16+0x37>
  1026b1:	8b 55 fc             	mov    -0x4(%ebp),%edx
  1026b4:	0f b7 45 10          	movzwl 0x10(%ebp),%eax
  1026b8:	66 89 02             	mov    %ax,(%edx)
  1026bb:	83 45 fc 02          	addl   $0x2,-0x4(%ebp)
  1026bf:	eb e0                	jmp    1026a1 <_d_array_init_i16+0x17>
  1026c1:	c9                   	leave  
  1026c2:	c3                   	ret    

001026c3 <_d_array_init_i32>:
  1026c3:	55                   	push   %ebp
  1026c4:	89 e5                	mov    %esp,%ebp
  1026c6:	83 ec 10             	sub    $0x10,%esp
  1026c9:	8b 45 08             	mov    0x8(%ebp),%eax
  1026cc:	89 45 fc             	mov    %eax,-0x4(%ebp)
  1026cf:	8b 45 0c             	mov    0xc(%ebp),%eax
  1026d2:	c1 e0 02             	shl    $0x2,%eax
  1026d5:	03 45 08             	add    0x8(%ebp),%eax
  1026d8:	89 45 f8             	mov    %eax,-0x8(%ebp)
  1026db:	8b 45 fc             	mov    -0x4(%ebp),%eax
  1026de:	3b 45 f8             	cmp    -0x8(%ebp),%eax
  1026e1:	0f 95 c0             	setne  %al
  1026e4:	83 f0 01             	xor    $0x1,%eax
  1026e7:	84 c0                	test   %al,%al
  1026e9:	75 0e                	jne    1026f9 <_d_array_init_i32+0x36>
  1026eb:	8b 55 fc             	mov    -0x4(%ebp),%edx
  1026ee:	8b 45 10             	mov    0x10(%ebp),%eax
  1026f1:	89 02                	mov    %eax,(%edx)
  1026f3:	83 45 fc 04          	addl   $0x4,-0x4(%ebp)
  1026f7:	eb e2                	jmp    1026db <_d_array_init_i32+0x18>
  1026f9:	c9                   	leave  
  1026fa:	c3                   	ret    

001026fb <_d_array_init_i64>:
  1026fb:	55                   	push   %ebp
  1026fc:	89 e5                	mov    %esp,%ebp
  1026fe:	83 ec 18             	sub    $0x18,%esp
  102701:	8b 45 10             	mov    0x10(%ebp),%eax
  102704:	89 45 e8             	mov    %eax,-0x18(%ebp)
  102707:	8b 45 14             	mov    0x14(%ebp),%eax
  10270a:	89 45 ec             	mov    %eax,-0x14(%ebp)
  10270d:	8b 45 08             	mov    0x8(%ebp),%eax
  102710:	89 45 fc             	mov    %eax,-0x4(%ebp)
  102713:	8b 45 0c             	mov    0xc(%ebp),%eax
  102716:	c1 e0 03             	shl    $0x3,%eax
  102719:	03 45 08             	add    0x8(%ebp),%eax
  10271c:	89 45 f8             	mov    %eax,-0x8(%ebp)
  10271f:	8b 45 fc             	mov    -0x4(%ebp),%eax
  102722:	3b 45 f8             	cmp    -0x8(%ebp),%eax
  102725:	0f 95 c0             	setne  %al
  102728:	83 f0 01             	xor    $0x1,%eax
  10272b:	84 c0                	test   %al,%al
  10272d:	75 14                	jne    102743 <_d_array_init_i64+0x48>
  10272f:	8b 4d fc             	mov    -0x4(%ebp),%ecx
  102732:	8b 45 e8             	mov    -0x18(%ebp),%eax
  102735:	8b 55 ec             	mov    -0x14(%ebp),%edx
  102738:	89 01                	mov    %eax,(%ecx)
  10273a:	89 51 04             	mov    %edx,0x4(%ecx)
  10273d:	83 45 fc 08          	addl   $0x8,-0x4(%ebp)
  102741:	eb dc                	jmp    10271f <_d_array_init_i64+0x24>
  102743:	c9                   	leave  
  102744:	c3                   	ret    

00102745 <_d_array_init_float>:
  102745:	55                   	push   %ebp
  102746:	89 e5                	mov    %esp,%ebp
  102748:	83 ec 10             	sub    $0x10,%esp
  10274b:	8b 45 08             	mov    0x8(%ebp),%eax
  10274e:	89 45 fc             	mov    %eax,-0x4(%ebp)
  102751:	8b 45 0c             	mov    0xc(%ebp),%eax
  102754:	c1 e0 02             	shl    $0x2,%eax
  102757:	03 45 08             	add    0x8(%ebp),%eax
  10275a:	89 45 f8             	mov    %eax,-0x8(%ebp)
  10275d:	8b 45 fc             	mov    -0x4(%ebp),%eax
  102760:	3b 45 f8             	cmp    -0x8(%ebp),%eax
  102763:	0f 95 c0             	setne  %al
  102766:	83 f0 01             	xor    $0x1,%eax
  102769:	84 c0                	test   %al,%al
  10276b:	75 0e                	jne    10277b <_d_array_init_float+0x36>
  10276d:	8b 55 fc             	mov    -0x4(%ebp),%edx
  102770:	8b 45 10             	mov    0x10(%ebp),%eax
  102773:	89 02                	mov    %eax,(%edx)
  102775:	83 45 fc 04          	addl   $0x4,-0x4(%ebp)
  102779:	eb e2                	jmp    10275d <_d_array_init_float+0x18>
  10277b:	c9                   	leave  
  10277c:	c3                   	ret    

0010277d <_d_array_init_double>:
  10277d:	55                   	push   %ebp
  10277e:	89 e5                	mov    %esp,%ebp
  102780:	83 ec 18             	sub    $0x18,%esp
  102783:	8b 45 10             	mov    0x10(%ebp),%eax
  102786:	89 45 e8             	mov    %eax,-0x18(%ebp)
  102789:	8b 45 14             	mov    0x14(%ebp),%eax
  10278c:	89 45 ec             	mov    %eax,-0x14(%ebp)
  10278f:	8b 45 08             	mov    0x8(%ebp),%eax
  102792:	89 45 fc             	mov    %eax,-0x4(%ebp)
  102795:	8b 45 0c             	mov    0xc(%ebp),%eax
  102798:	c1 e0 03             	shl    $0x3,%eax
  10279b:	03 45 08             	add    0x8(%ebp),%eax
  10279e:	89 45 f8             	mov    %eax,-0x8(%ebp)
  1027a1:	8b 45 fc             	mov    -0x4(%ebp),%eax
  1027a4:	3b 45 f8             	cmp    -0x8(%ebp),%eax
  1027a7:	0f 95 c0             	setne  %al
  1027aa:	83 f0 01             	xor    $0x1,%eax
  1027ad:	84 c0                	test   %al,%al
  1027af:	75 0e                	jne    1027bf <_d_array_init_double+0x42>
  1027b1:	8b 45 fc             	mov    -0x4(%ebp),%eax
  1027b4:	dd 45 e8             	fldl   -0x18(%ebp)
  1027b7:	dd 18                	fstpl  (%eax)
  1027b9:	83 45 fc 08          	addl   $0x8,-0x4(%ebp)
  1027bd:	eb e2                	jmp    1027a1 <_d_array_init_double+0x24>
  1027bf:	c9                   	leave  
  1027c0:	c3                   	ret    

001027c1 <_d_array_init_pointer>:
  1027c1:	55                   	push   %ebp
  1027c2:	89 e5                	mov    %esp,%ebp
  1027c4:	83 ec 10             	sub    $0x10,%esp
  1027c7:	8b 45 08             	mov    0x8(%ebp),%eax
  1027ca:	89 45 fc             	mov    %eax,-0x4(%ebp)
  1027cd:	8b 45 0c             	mov    0xc(%ebp),%eax
  1027d0:	c1 e0 02             	shl    $0x2,%eax
  1027d3:	03 45 08             	add    0x8(%ebp),%eax
  1027d6:	89 45 f8             	mov    %eax,-0x8(%ebp)
  1027d9:	8b 45 fc             	mov    -0x4(%ebp),%eax
  1027dc:	3b 45 f8             	cmp    -0x8(%ebp),%eax
  1027df:	0f 95 c0             	setne  %al
  1027e2:	83 f0 01             	xor    $0x1,%eax
  1027e5:	84 c0                	test   %al,%al
  1027e7:	75 0e                	jne    1027f7 <_d_array_init_pointer+0x36>
  1027e9:	8b 55 fc             	mov    -0x4(%ebp),%edx
  1027ec:	8b 45 10             	mov    0x10(%ebp),%eax
  1027ef:	89 02                	mov    %eax,(%edx)
  1027f1:	83 45 fc 04          	addl   $0x4,-0x4(%ebp)
  1027f5:	eb e2                	jmp    1027d9 <_d_array_init_pointer+0x18>
  1027f7:	c9                   	leave  
  1027f8:	c3                   	ret    

001027f9 <_d_array_init_mem>:
  1027f9:	55                   	push   %ebp
  1027fa:	89 e5                	mov    %esp,%ebp
  1027fc:	83 ec 28             	sub    $0x28,%esp
  1027ff:	8b 45 08             	mov    0x8(%ebp),%eax
  102802:	89 45 fc             	mov    %eax,-0x4(%ebp)
  102805:	8b 45 0c             	mov    0xc(%ebp),%eax
  102808:	0f af 45 14          	imul   0x14(%ebp),%eax
  10280c:	03 45 08             	add    0x8(%ebp),%eax
  10280f:	89 45 f8             	mov    %eax,-0x8(%ebp)
  102812:	8b 45 fc             	mov    -0x4(%ebp),%eax
  102815:	3b 45 f8             	cmp    -0x8(%ebp),%eax
  102818:	0f 95 c0             	setne  %al
  10281b:	83 f0 01             	xor    $0x1,%eax
  10281e:	84 c0                	test   %al,%al
  102820:	75 21                	jne    102843 <_d_array_init_mem+0x4a>
  102822:	8b 45 14             	mov    0x14(%ebp),%eax
  102825:	89 44 24 08          	mov    %eax,0x8(%esp)
  102829:	8b 45 10             	mov    0x10(%ebp),%eax
  10282c:	89 44 24 04          	mov    %eax,0x4(%esp)
  102830:	8b 45 fc             	mov    -0x4(%ebp),%eax
  102833:	89 04 24             	mov    %eax,(%esp)
  102836:	e8 ae 13 00 00       	call   103be9 <memcpy>
  10283b:	8b 45 14             	mov    0x14(%ebp),%eax
  10283e:	01 45 fc             	add    %eax,-0x4(%ebp)
  102841:	eb cf                	jmp    102812 <_d_array_init_mem+0x19>
  102843:	c9                   	leave  
  102844:	c3                   	ret    

00102845 <_d_array_cast_len>:
  102845:	55                   	push   %ebp
  102846:	89 e5                	mov    %esp,%ebp
  102848:	83 ec 08             	sub    $0x8,%esp
  10284b:	83 7d 10 01          	cmpl   $0x1,0x10(%ebp)
  10284f:	75 0e                	jne    10285f <_d_array_cast_len+0x1a>
  102851:	8b 45 08             	mov    0x8(%ebp),%eax
  102854:	89 c2                	mov    %eax,%edx
  102856:	0f af 55 0c          	imul   0xc(%ebp),%edx
  10285a:	89 55 fc             	mov    %edx,-0x4(%ebp)
  10285d:	eb 12                	jmp    102871 <_d_array_cast_len+0x2c>
  10285f:	8b 45 08             	mov    0x8(%ebp),%eax
  102862:	0f af 45 0c          	imul   0xc(%ebp),%eax
  102866:	ba 00 00 00 00       	mov    $0x0,%edx
  10286b:	f7 75 10             	divl   0x10(%ebp)
  10286e:	89 45 fc             	mov    %eax,-0x4(%ebp)
  102871:	8b 45 fc             	mov    -0x4(%ebp),%eax
  102874:	c9                   	leave  
  102875:	c3                   	ret    

00102876 <_d_assert>:
  102876:	55                   	push   %ebp
  102877:	89 e5                	mov    %esp,%ebp
  102879:	83 ec 18             	sub    $0x18,%esp
  10287c:	8b 45 10             	mov    0x10(%ebp),%eax
  10287f:	89 44 24 08          	mov    %eax,0x8(%esp)
  102883:	8b 45 08             	mov    0x8(%ebp),%eax
  102886:	8b 55 0c             	mov    0xc(%ebp),%edx
  102889:	89 04 24             	mov    %eax,(%esp)
  10288c:	89 54 24 04          	mov    %edx,0x4(%esp)
  102890:	e8 73 00 00 00       	call   102908 <onAssertError>
  102895:	c9                   	leave  
  102896:	c3                   	ret    

00102897 <_d_assert_msg>:
  102897:	55                   	push   %ebp
  102898:	89 e5                	mov    %esp,%ebp
  10289a:	83 ec 18             	sub    $0x18,%esp
  10289d:	8b 45 08             	mov    0x8(%ebp),%eax
  1028a0:	8b 55 0c             	mov    0xc(%ebp),%edx
  1028a3:	89 44 24 0c          	mov    %eax,0xc(%esp)
  1028a7:	89 54 24 10          	mov    %edx,0x10(%esp)
  1028ab:	8b 45 18             	mov    0x18(%ebp),%eax
  1028ae:	89 44 24 08          	mov    %eax,0x8(%esp)
  1028b2:	8b 45 10             	mov    0x10(%ebp),%eax
  1028b5:	8b 55 14             	mov    0x14(%ebp),%edx
  1028b8:	89 04 24             	mov    %eax,(%esp)
  1028bb:	89 54 24 04          	mov    %edx,0x4(%esp)
  1028bf:	e8 4c 00 00 00       	call   102910 <onAssertErrorMsg>
  1028c4:	c9                   	leave  
  1028c5:	c3                   	ret    

001028c6 <_d_array_bounds>:
  1028c6:	55                   	push   %ebp
  1028c7:	89 e5                	mov    %esp,%ebp
  1028c9:	83 ec 18             	sub    $0x18,%esp
  1028cc:	8b 45 10             	mov    0x10(%ebp),%eax
  1028cf:	89 44 24 08          	mov    %eax,0x8(%esp)
  1028d3:	8b 45 08             	mov    0x8(%ebp),%eax
  1028d6:	8b 55 0c             	mov    0xc(%ebp),%edx
  1028d9:	89 04 24             	mov    %eax,(%esp)
  1028dc:	89 54 24 04          	mov    %edx,0x4(%esp)
  1028e0:	e8 33 00 00 00       	call   102918 <onArrayBoundsError>
  1028e5:	c9                   	leave  
  1028e6:	c3                   	ret    

001028e7 <_d_switch_error>:
  1028e7:	55                   	push   %ebp
  1028e8:	89 e5                	mov    %esp,%ebp
  1028ea:	83 ec 18             	sub    $0x18,%esp
  1028ed:	8b 45 10             	mov    0x10(%ebp),%eax
  1028f0:	89 44 24 08          	mov    %eax,0x8(%esp)
  1028f4:	8b 45 08             	mov    0x8(%ebp),%eax
  1028f7:	8b 55 0c             	mov    0xc(%ebp),%edx
  1028fa:	89 04 24             	mov    %eax,(%esp)
  1028fd:	89 54 24 04          	mov    %edx,0x4(%esp)
  102901:	e8 1a 00 00 00       	call   102920 <onSwitchError>
  102906:	c9                   	leave  
  102907:	c3                   	ret    

00102908 <onAssertError>:
  102908:	55                   	push   %ebp
  102909:	89 e5                	mov    %esp,%ebp
  10290b:	f4                   	hlt    
  10290c:	eb fd                	jmp    10290b <onAssertError+0x3>
  10290e:	5d                   	pop    %ebp
  10290f:	c3                   	ret    

00102910 <onAssertErrorMsg>:
  102910:	55                   	push   %ebp
  102911:	89 e5                	mov    %esp,%ebp
  102913:	f4                   	hlt    
  102914:	eb fd                	jmp    102913 <onAssertErrorMsg+0x3>
  102916:	5d                   	pop    %ebp
  102917:	c3                   	ret    

00102918 <onArrayBoundsError>:
  102918:	55                   	push   %ebp
  102919:	89 e5                	mov    %esp,%ebp
  10291b:	f4                   	hlt    
  10291c:	eb fd                	jmp    10291b <onArrayBoundsError+0x3>
  10291e:	5d                   	pop    %ebp
  10291f:	c3                   	ret    

00102920 <onSwitchError>:
  102920:	55                   	push   %ebp
  102921:	89 e5                	mov    %esp,%ebp
  102923:	f4                   	hlt    
  102924:	eb fd                	jmp    102923 <onSwitchError+0x3>
  102926:	5d                   	pop    %ebp
  102927:	c3                   	ret    

00102928 <_adReverseChar>:
  102928:	55                   	push   %ebp
  102929:	89 e5                	mov    %esp,%ebp
  10292b:	53                   	push   %ebx
  10292c:	81 ec 94 00 00 00    	sub    $0x94,%esp
  102932:	8b 45 0c             	mov    0xc(%ebp),%eax
  102935:	83 f8 01             	cmp    $0x1,%eax
  102938:	0f 86 05 03 00 00    	jbe    102c43 <_adReverseChar+0x31b>
  10293e:	c7 85 78 ff ff ff 06 	movl   $0x6,-0x88(%ebp)
  102945:	00 00 00 
  102948:	8d 45 cc             	lea    -0x34(%ebp),%eax
  10294b:	89 85 7c ff ff ff    	mov    %eax,-0x84(%ebp)
  102951:	8b 85 78 ff ff ff    	mov    -0x88(%ebp),%eax
  102957:	89 45 bc             	mov    %eax,-0x44(%ebp)
  10295a:	8b 95 7c ff ff ff    	mov    -0x84(%ebp),%edx
  102960:	89 55 b8             	mov    %edx,-0x48(%ebp)
  102963:	83 7d bc 00          	cmpl   $0x0,-0x44(%ebp)
  102967:	0f 95 c0             	setne  %al
  10296a:	83 f0 01             	xor    $0x1,%eax
  10296d:	84 c0                	test   %al,%al
  10296f:	75 10                	jne    102981 <_adReverseChar+0x59>
  102971:	8b 4d b8             	mov    -0x48(%ebp),%ecx
  102974:	c6 01 ff             	movb   $0xff,(%ecx)
  102977:	83 45 b8 01          	addl   $0x1,-0x48(%ebp)
  10297b:	83 6d bc 01          	subl   $0x1,-0x44(%ebp)
  10297f:	eb e2                	jmp    102963 <_adReverseChar+0x3b>
  102981:	c7 45 80 06 00 00 00 	movl   $0x6,-0x80(%ebp)
  102988:	8d 45 d2             	lea    -0x2e(%ebp),%eax
  10298b:	89 45 84             	mov    %eax,-0x7c(%ebp)
  10298e:	8b 5d 80             	mov    -0x80(%ebp),%ebx
  102991:	89 5d c4             	mov    %ebx,-0x3c(%ebp)
  102994:	8b 45 84             	mov    -0x7c(%ebp),%eax
  102997:	89 45 c0             	mov    %eax,-0x40(%ebp)
  10299a:	83 7d c4 00          	cmpl   $0x0,-0x3c(%ebp)
  10299e:	0f 95 c0             	setne  %al
  1029a1:	83 f0 01             	xor    $0x1,%eax
  1029a4:	84 c0                	test   %al,%al
  1029a6:	75 10                	jne    1029b8 <_adReverseChar+0x90>
  1029a8:	8b 55 c0             	mov    -0x40(%ebp),%edx
  1029ab:	c6 02 ff             	movb   $0xff,(%edx)
  1029ae:	83 45 c0 01          	addl   $0x1,-0x40(%ebp)
  1029b2:	83 6d c4 01          	subl   $0x1,-0x3c(%ebp)
  1029b6:	eb e2                	jmp    10299a <_adReverseChar+0x72>
  1029b8:	8b 45 10             	mov    0x10(%ebp),%eax
  1029bb:	89 45 e4             	mov    %eax,-0x1c(%ebp)
  1029be:	8b 4d 10             	mov    0x10(%ebp),%ecx
  1029c1:	89 4d 8c             	mov    %ecx,-0x74(%ebp)
  1029c4:	8b 45 0c             	mov    0xc(%ebp),%eax
  1029c7:	89 45 e8             	mov    %eax,-0x18(%ebp)
  1029ca:	8b 45 e8             	mov    -0x18(%ebp),%eax
  1029cd:	83 e8 01             	sub    $0x1,%eax
  1029d0:	89 45 94             	mov    %eax,-0x6c(%ebp)
  1029d3:	8b 45 0c             	mov    0xc(%ebp),%eax
  1029d6:	39 45 94             	cmp    %eax,-0x6c(%ebp)
  1029d9:	73 08                	jae    1029e3 <_adReverseChar+0xbb>
  1029db:	8b 5d 94             	mov    -0x6c(%ebp),%ebx
  1029de:	89 5d 90             	mov    %ebx,-0x70(%ebp)
  1029e1:	eb 28                	jmp    102a0b <_adReverseChar+0xe3>
  1029e3:	c7 45 98 19 00 00 00 	movl   $0x19,-0x68(%ebp)
  1029ea:	c7 45 9c a0 5c 10 00 	movl   $0x105ca0,-0x64(%ebp)
  1029f1:	c7 44 24 08 85 01 00 	movl   $0x185,0x8(%esp)
  1029f8:	00 
  1029f9:	8b 45 98             	mov    -0x68(%ebp),%eax
  1029fc:	8b 55 9c             	mov    -0x64(%ebp),%edx
  1029ff:	89 04 24             	mov    %eax,(%esp)
  102a02:	89 54 24 04          	mov    %edx,0x4(%esp)
  102a06:	e8 bb fe ff ff       	call   1028c6 <_d_array_bounds>
  102a0b:	8b 45 90             	mov    -0x70(%ebp),%eax
  102a0e:	03 45 8c             	add    -0x74(%ebp),%eax
  102a11:	89 45 e0             	mov    %eax,-0x20(%ebp)
  102a14:	8b 45 e4             	mov    -0x1c(%ebp),%eax
  102a17:	3b 45 e0             	cmp    -0x20(%ebp),%eax
  102a1a:	0f 92 c0             	setb   %al
  102a1d:	83 f0 01             	xor    $0x1,%eax
  102a20:	84 c0                	test   %al,%al
  102a22:	0f 85 1b 02 00 00    	jne    102c43 <_adReverseChar+0x31b>
  102a28:	8b 45 e4             	mov    -0x1c(%ebp),%eax
  102a2b:	0f b6 00             	movzbl (%eax),%eax
  102a2e:	88 45 f7             	mov    %al,-0x9(%ebp)
  102a31:	8b 45 e0             	mov    -0x20(%ebp),%eax
  102a34:	0f b6 00             	movzbl (%eax),%eax
  102a37:	88 45 f6             	mov    %al,-0xa(%ebp)
  102a3a:	0f b6 45 f7          	movzbl -0x9(%ebp),%eax
  102a3e:	83 f8 7f             	cmp    $0x7f,%eax
  102a41:	7f 25                	jg     102a68 <_adReverseChar+0x140>
  102a43:	0f b6 45 f6          	movzbl -0xa(%ebp),%eax
  102a47:	83 f8 7f             	cmp    $0x7f,%eax
  102a4a:	7f 1c                	jg     102a68 <_adReverseChar+0x140>
  102a4c:	8b 55 e4             	mov    -0x1c(%ebp),%edx
  102a4f:	0f b6 45 f6          	movzbl -0xa(%ebp),%eax
  102a53:	88 02                	mov    %al,(%edx)
  102a55:	8b 55 e0             	mov    -0x20(%ebp),%edx
  102a58:	0f b6 45 f7          	movzbl -0x9(%ebp),%eax
  102a5c:	88 02                	mov    %al,(%edx)
  102a5e:	83 45 e4 01          	addl   $0x1,-0x1c(%ebp)
  102a62:	83 6d e0 01          	subl   $0x1,-0x20(%ebp)
  102a66:	eb ac                	jmp    102a14 <_adReverseChar+0xec>
  102a68:	0f b6 45 f7          	movzbl -0x9(%ebp),%eax
  102a6c:	3d 00 01 00 00       	cmp    $0x100,%eax
  102a71:	73 09                	jae    102a7c <_adReverseChar+0x154>
  102a73:	0f b6 55 f7          	movzbl -0x9(%ebp),%edx
  102a77:	89 55 a4             	mov    %edx,-0x5c(%ebp)
  102a7a:	eb 28                	jmp    102aa4 <_adReverseChar+0x17c>
  102a7c:	c7 45 a8 19 00 00 00 	movl   $0x19,-0x58(%ebp)
  102a83:	c7 45 ac a0 5c 10 00 	movl   $0x105ca0,-0x54(%ebp)
  102a8a:	c7 44 24 08 93 01 00 	movl   $0x193,0x8(%esp)
  102a91:	00 
  102a92:	8b 4d a8             	mov    -0x58(%ebp),%ecx
  102a95:	8b 5d ac             	mov    -0x54(%ebp),%ebx
  102a98:	89 0c 24             	mov    %ecx,(%esp)
  102a9b:	89 5c 24 04          	mov    %ebx,0x4(%esp)
  102a9f:	e8 22 fe ff ff       	call   1028c6 <_d_array_bounds>
  102aa4:	8b 45 a4             	mov    -0x5c(%ebp),%eax
  102aa7:	05 c0 5c 10 00       	add    $0x105cc0,%eax
  102aac:	0f b6 00             	movzbl (%eax),%eax
  102aaf:	0f b6 c0             	movzbl %al,%eax
  102ab2:	89 45 f0             	mov    %eax,-0x10(%ebp)
  102ab5:	c7 45 ec 01 00 00 00 	movl   $0x1,-0x14(%ebp)
  102abc:	0f b6 45 f6          	movzbl -0xa(%ebp),%eax
  102ac0:	25 c0 00 00 00       	and    $0xc0,%eax
  102ac5:	3d 80 00 00 00       	cmp    $0x80,%eax
  102aca:	0f 94 c0             	sete   %al
  102acd:	83 f0 01             	xor    $0x1,%eax
  102ad0:	84 c0                	test   %al,%al
  102ad2:	75 43                	jne    102b17 <_adReverseChar+0x1ef>
  102ad4:	83 6d e0 01          	subl   $0x1,-0x20(%ebp)
  102ad8:	8b 45 e0             	mov    -0x20(%ebp),%eax
  102adb:	0f b6 00             	movzbl (%eax),%eax
  102ade:	88 45 f6             	mov    %al,-0xa(%ebp)
  102ae1:	83 45 ec 01          	addl   $0x1,-0x14(%ebp)
  102ae5:	8b 45 e0             	mov    -0x20(%ebp),%eax
  102ae8:	3b 45 e4             	cmp    -0x1c(%ebp),%eax
  102aeb:	73 cf                	jae    102abc <_adReverseChar+0x194>
  102aed:	c7 45 b0 19 00 00 00 	movl   $0x19,-0x50(%ebp)
  102af4:	c7 45 b4 a0 5c 10 00 	movl   $0x105ca0,-0x4c(%ebp)
  102afb:	c7 44 24 08 99 01 00 	movl   $0x199,0x8(%esp)
  102b02:	00 
  102b03:	8b 45 b0             	mov    -0x50(%ebp),%eax
  102b06:	8b 55 b4             	mov    -0x4c(%ebp),%edx
  102b09:	89 04 24             	mov    %eax,(%esp)
  102b0c:	89 54 24 04          	mov    %edx,0x4(%esp)
  102b10:	e8 61 fd ff ff       	call   102876 <_d_assert>
  102b15:	eb a5                	jmp    102abc <_adReverseChar+0x194>
  102b17:	8b 45 e4             	mov    -0x1c(%ebp),%eax
  102b1a:	3b 45 e0             	cmp    -0x20(%ebp),%eax
  102b1d:	0f 84 20 01 00 00    	je     102c43 <_adReverseChar+0x31b>
  102b23:	8b 45 f0             	mov    -0x10(%ebp),%eax
  102b26:	3b 45 ec             	cmp    -0x14(%ebp),%eax
  102b29:	75 5a                	jne    102b85 <_adReverseChar+0x25d>
  102b2b:	8b 45 f0             	mov    -0x10(%ebp),%eax
  102b2e:	89 44 24 08          	mov    %eax,0x8(%esp)
  102b32:	8b 45 e4             	mov    -0x1c(%ebp),%eax
  102b35:	89 44 24 04          	mov    %eax,0x4(%esp)
  102b39:	8d 45 cc             	lea    -0x34(%ebp),%eax
  102b3c:	89 04 24             	mov    %eax,(%esp)
  102b3f:	e8 a5 10 00 00       	call   103be9 <memcpy>
  102b44:	8b 45 f0             	mov    -0x10(%ebp),%eax
  102b47:	89 44 24 08          	mov    %eax,0x8(%esp)
  102b4b:	8b 45 e0             	mov    -0x20(%ebp),%eax
  102b4e:	89 44 24 04          	mov    %eax,0x4(%esp)
  102b52:	8b 45 e4             	mov    -0x1c(%ebp),%eax
  102b55:	89 04 24             	mov    %eax,(%esp)
  102b58:	e8 8c 10 00 00       	call   103be9 <memcpy>
  102b5d:	8b 45 f0             	mov    -0x10(%ebp),%eax
  102b60:	89 44 24 08          	mov    %eax,0x8(%esp)
  102b64:	8d 45 cc             	lea    -0x34(%ebp),%eax
  102b67:	89 44 24 04          	mov    %eax,0x4(%esp)
  102b6b:	8b 45 e0             	mov    -0x20(%ebp),%eax
  102b6e:	89 04 24             	mov    %eax,(%esp)
  102b71:	e8 73 10 00 00       	call   103be9 <memcpy>
  102b76:	8b 45 f0             	mov    -0x10(%ebp),%eax
  102b79:	01 45 e4             	add    %eax,-0x1c(%ebp)
  102b7c:	83 6d e0 01          	subl   $0x1,-0x20(%ebp)
  102b80:	e9 8f fe ff ff       	jmp    102a14 <_adReverseChar+0xec>
  102b85:	8b 45 ec             	mov    -0x14(%ebp),%eax
  102b88:	89 44 24 08          	mov    %eax,0x8(%esp)
  102b8c:	8b 45 e0             	mov    -0x20(%ebp),%eax
  102b8f:	89 44 24 04          	mov    %eax,0x4(%esp)
  102b93:	8d 45 cc             	lea    -0x34(%ebp),%eax
  102b96:	89 04 24             	mov    %eax,(%esp)
  102b99:	e8 4b 10 00 00       	call   103be9 <memcpy>
  102b9e:	8b 45 f0             	mov    -0x10(%ebp),%eax
  102ba1:	89 44 24 08          	mov    %eax,0x8(%esp)
  102ba5:	8b 45 e4             	mov    -0x1c(%ebp),%eax
  102ba8:	89 44 24 04          	mov    %eax,0x4(%esp)
  102bac:	8d 45 d2             	lea    -0x2e(%ebp),%eax
  102baf:	89 04 24             	mov    %eax,(%esp)
  102bb2:	e8 32 10 00 00       	call   103be9 <memcpy>
  102bb7:	8b 55 e0             	mov    -0x20(%ebp),%edx
  102bba:	8b 45 e4             	mov    -0x1c(%ebp),%eax
  102bbd:	89 d1                	mov    %edx,%ecx
  102bbf:	29 c1                	sub    %eax,%ecx
  102bc1:	89 c8                	mov    %ecx,%eax
  102bc3:	89 c2                	mov    %eax,%edx
  102bc5:	2b 55 f0             	sub    -0x10(%ebp),%edx
  102bc8:	8b 45 f0             	mov    -0x10(%ebp),%eax
  102bcb:	89 c1                	mov    %eax,%ecx
  102bcd:	03 4d e4             	add    -0x1c(%ebp),%ecx
  102bd0:	8b 45 ec             	mov    -0x14(%ebp),%eax
  102bd3:	03 45 e4             	add    -0x1c(%ebp),%eax
  102bd6:	89 54 24 08          	mov    %edx,0x8(%esp)
  102bda:	89 4c 24 04          	mov    %ecx,0x4(%esp)
  102bde:	89 04 24             	mov    %eax,(%esp)
  102be1:	e8 4f 10 00 00       	call   103c35 <memmove>
  102be6:	8b 45 ec             	mov    -0x14(%ebp),%eax
  102be9:	89 44 24 08          	mov    %eax,0x8(%esp)
  102bed:	8d 45 cc             	lea    -0x34(%ebp),%eax
  102bf0:	89 44 24 04          	mov    %eax,0x4(%esp)
  102bf4:	8b 45 e4             	mov    -0x1c(%ebp),%eax
  102bf7:	89 04 24             	mov    %eax,(%esp)
  102bfa:	e8 ea 0f 00 00       	call   103be9 <memcpy>
  102bff:	8b 45 ec             	mov    -0x14(%ebp),%eax
  102c02:	2b 45 f0             	sub    -0x10(%ebp),%eax
  102c05:	89 c2                	mov    %eax,%edx
  102c07:	03 55 e0             	add    -0x20(%ebp),%edx
  102c0a:	8b 45 f0             	mov    -0x10(%ebp),%eax
  102c0d:	89 44 24 08          	mov    %eax,0x8(%esp)
  102c11:	8d 45 d2             	lea    -0x2e(%ebp),%eax
  102c14:	89 44 24 04          	mov    %eax,0x4(%esp)
  102c18:	89 14 24             	mov    %edx,(%esp)
  102c1b:	e8 c9 0f 00 00       	call   103be9 <memcpy>
  102c20:	8b 45 ec             	mov    -0x14(%ebp),%eax
  102c23:	01 45 e4             	add    %eax,-0x1c(%ebp)
  102c26:	8b 45 e0             	mov    -0x20(%ebp),%eax
  102c29:	8d 48 ff             	lea    -0x1(%eax),%ecx
  102c2c:	8b 55 ec             	mov    -0x14(%ebp),%edx
  102c2f:	8b 45 f0             	mov    -0x10(%ebp),%eax
  102c32:	89 d3                	mov    %edx,%ebx
  102c34:	29 c3                	sub    %eax,%ebx
  102c36:	89 d8                	mov    %ebx,%eax
  102c38:	8d 04 01             	lea    (%ecx,%eax,1),%eax
  102c3b:	89 45 e0             	mov    %eax,-0x20(%ebp)
  102c3e:	e9 d1 fd ff ff       	jmp    102a14 <_adReverseChar+0xec>
  102c43:	8d 45 0c             	lea    0xc(%ebp),%eax
  102c46:	8b 50 04             	mov    0x4(%eax),%edx
  102c49:	8b 00                	mov    (%eax),%eax
  102c4b:	89 45 d8             	mov    %eax,-0x28(%ebp)
  102c4e:	89 55 dc             	mov    %edx,-0x24(%ebp)
  102c51:	8b 45 d8             	mov    -0x28(%ebp),%eax
  102c54:	8b 55 dc             	mov    -0x24(%ebp),%edx
  102c57:	8b 4d 08             	mov    0x8(%ebp),%ecx
  102c5a:	89 01                	mov    %eax,(%ecx)
  102c5c:	89 51 04             	mov    %edx,0x4(%ecx)
  102c5f:	8b 45 08             	mov    0x8(%ebp),%eax
  102c62:	81 c4 94 00 00 00    	add    $0x94,%esp
  102c68:	5b                   	pop    %ebx
  102c69:	5d                   	pop    %ebp
  102c6a:	c2 04 00             	ret    $0x4

00102c6d <_adReverseWchar>:
  102c6d:	55                   	push   %ebp
  102c6e:	89 e5                	mov    %esp,%ebp
  102c70:	53                   	push   %ebx
  102c71:	81 ec 84 00 00 00    	sub    $0x84,%esp
  102c77:	8b 45 0c             	mov    0xc(%ebp),%eax
  102c7a:	83 f8 01             	cmp    $0x1,%eax
  102c7d:	0f 86 c8 02 00 00    	jbe    102f4b <_adReverseWchar+0x2de>
  102c83:	c7 45 88 02 00 00 00 	movl   $0x2,-0x78(%ebp)
  102c8a:	8d 45 d0             	lea    -0x30(%ebp),%eax
  102c8d:	89 45 8c             	mov    %eax,-0x74(%ebp)
  102c90:	8b 45 88             	mov    -0x78(%ebp),%eax
  102c93:	89 45 c4             	mov    %eax,-0x3c(%ebp)
  102c96:	8b 55 8c             	mov    -0x74(%ebp),%edx
  102c99:	89 55 c0             	mov    %edx,-0x40(%ebp)
  102c9c:	83 7d c4 00          	cmpl   $0x0,-0x3c(%ebp)
  102ca0:	0f 95 c0             	setne  %al
  102ca3:	83 f0 01             	xor    $0x1,%eax
  102ca6:	84 c0                	test   %al,%al
  102ca8:	75 12                	jne    102cbc <_adReverseWchar+0x4f>
  102caa:	8b 4d c0             	mov    -0x40(%ebp),%ecx
  102cad:	66 c7 01 ff ff       	movw   $0xffff,(%ecx)
  102cb2:	83 45 c0 02          	addl   $0x2,-0x40(%ebp)
  102cb6:	83 6d c4 01          	subl   $0x1,-0x3c(%ebp)
  102cba:	eb e0                	jmp    102c9c <_adReverseWchar+0x2f>
  102cbc:	8b 45 10             	mov    0x10(%ebp),%eax
  102cbf:	89 45 e0             	mov    %eax,-0x20(%ebp)
  102cc2:	8b 5d 10             	mov    0x10(%ebp),%ebx
  102cc5:	89 5d 94             	mov    %ebx,-0x6c(%ebp)
  102cc8:	8b 45 0c             	mov    0xc(%ebp),%eax
  102ccb:	89 45 e4             	mov    %eax,-0x1c(%ebp)
  102cce:	8b 45 e4             	mov    -0x1c(%ebp),%eax
  102cd1:	83 e8 01             	sub    $0x1,%eax
  102cd4:	89 45 9c             	mov    %eax,-0x64(%ebp)
  102cd7:	8b 45 0c             	mov    0xc(%ebp),%eax
  102cda:	39 45 9c             	cmp    %eax,-0x64(%ebp)
  102cdd:	73 08                	jae    102ce7 <_adReverseWchar+0x7a>
  102cdf:	8b 45 9c             	mov    -0x64(%ebp),%eax
  102ce2:	89 45 98             	mov    %eax,-0x68(%ebp)
  102ce5:	eb 28                	jmp    102d0f <_adReverseWchar+0xa2>
  102ce7:	c7 45 a0 19 00 00 00 	movl   $0x19,-0x60(%ebp)
  102cee:	c7 45 a4 a0 5c 10 00 	movl   $0x105ca0,-0x5c(%ebp)
  102cf5:	c7 44 24 08 bc 01 00 	movl   $0x1bc,0x8(%esp)
  102cfc:	00 
  102cfd:	8b 55 a0             	mov    -0x60(%ebp),%edx
  102d00:	8b 4d a4             	mov    -0x5c(%ebp),%ecx
  102d03:	89 14 24             	mov    %edx,(%esp)
  102d06:	89 4c 24 04          	mov    %ecx,0x4(%esp)
  102d0a:	e8 b7 fb ff ff       	call   1028c6 <_d_array_bounds>
  102d0f:	8b 45 98             	mov    -0x68(%ebp),%eax
  102d12:	01 c0                	add    %eax,%eax
  102d14:	03 45 94             	add    -0x6c(%ebp),%eax
  102d17:	89 45 dc             	mov    %eax,-0x24(%ebp)
  102d1a:	8b 45 e0             	mov    -0x20(%ebp),%eax
  102d1d:	3b 45 dc             	cmp    -0x24(%ebp),%eax
  102d20:	0f 92 c0             	setb   %al
  102d23:	83 f0 01             	xor    $0x1,%eax
  102d26:	84 c0                	test   %al,%al
  102d28:	0f 85 1d 02 00 00    	jne    102f4b <_adReverseWchar+0x2de>
  102d2e:	8b 45 e0             	mov    -0x20(%ebp),%eax
  102d31:	0f b7 00             	movzwl (%eax),%eax
  102d34:	66 89 45 f2          	mov    %ax,-0xe(%ebp)
  102d38:	8b 45 dc             	mov    -0x24(%ebp),%eax
  102d3b:	0f b7 00             	movzwl (%eax),%eax
  102d3e:	66 89 45 f0          	mov    %ax,-0x10(%ebp)
  102d42:	0f b7 45 f2          	movzwl -0xe(%ebp),%eax
  102d46:	3d 00 d8 00 00       	cmp    $0xd800,%eax
  102d4b:	7c 0b                	jl     102d58 <_adReverseWchar+0xeb>
  102d4d:	0f b7 45 f2          	movzwl -0xe(%ebp),%eax
  102d51:	3d ff df 00 00       	cmp    $0xdfff,%eax
  102d56:	7e 34                	jle    102d8c <_adReverseWchar+0x11f>
  102d58:	0f b7 45 f0          	movzwl -0x10(%ebp),%eax
  102d5c:	3d 00 d8 00 00       	cmp    $0xd800,%eax
  102d61:	7c 0b                	jl     102d6e <_adReverseWchar+0x101>
  102d63:	0f b7 45 f0          	movzwl -0x10(%ebp),%eax
  102d67:	3d ff df 00 00       	cmp    $0xdfff,%eax
  102d6c:	7e 1e                	jle    102d8c <_adReverseWchar+0x11f>
  102d6e:	8b 55 e0             	mov    -0x20(%ebp),%edx
  102d71:	0f b7 45 f0          	movzwl -0x10(%ebp),%eax
  102d75:	66 89 02             	mov    %ax,(%edx)
  102d78:	8b 55 dc             	mov    -0x24(%ebp),%edx
  102d7b:	0f b7 45 f2          	movzwl -0xe(%ebp),%eax
  102d7f:	66 89 02             	mov    %ax,(%edx)
  102d82:	83 45 e0 02          	addl   $0x2,-0x20(%ebp)
  102d86:	83 6d dc 02          	subl   $0x2,-0x24(%ebp)
  102d8a:	eb 8e                	jmp    102d1a <_adReverseWchar+0xad>
  102d8c:	0f b7 45 f2          	movzwl -0xe(%ebp),%eax
  102d90:	3d 00 d8 00 00       	cmp    $0xd800,%eax
  102d95:	7c 11                	jl     102da8 <_adReverseWchar+0x13b>
  102d97:	0f b7 45 f2          	movzwl -0xe(%ebp),%eax
  102d9b:	3d ff db 00 00       	cmp    $0xdbff,%eax
  102da0:	7f 06                	jg     102da8 <_adReverseWchar+0x13b>
  102da2:	c6 45 af 01          	movb   $0x1,-0x51(%ebp)
  102da6:	eb 04                	jmp    102dac <_adReverseWchar+0x13f>
  102da8:	c6 45 af 00          	movb   $0x0,-0x51(%ebp)
  102dac:	0f b6 45 af          	movzbl -0x51(%ebp),%eax
  102db0:	83 c0 01             	add    $0x1,%eax
  102db3:	89 45 ec             	mov    %eax,-0x14(%ebp)
  102db6:	c7 45 e8 01 00 00 00 	movl   $0x1,-0x18(%ebp)
  102dbd:	0f b7 45 f0          	movzwl -0x10(%ebp),%eax
  102dc1:	3d 00 dc 00 00       	cmp    $0xdc00,%eax
  102dc6:	7c 4d                	jl     102e15 <_adReverseWchar+0x1a8>
  102dc8:	0f b7 45 f0          	movzwl -0x10(%ebp),%eax
  102dcc:	3d ff df 00 00       	cmp    $0xdfff,%eax
  102dd1:	7f 42                	jg     102e15 <_adReverseWchar+0x1a8>
  102dd3:	83 6d dc 02          	subl   $0x2,-0x24(%ebp)
  102dd7:	8b 45 dc             	mov    -0x24(%ebp),%eax
  102dda:	0f b7 00             	movzwl (%eax),%eax
  102ddd:	66 89 45 f0          	mov    %ax,-0x10(%ebp)
  102de1:	83 45 e8 01          	addl   $0x1,-0x18(%ebp)
  102de5:	8b 45 dc             	mov    -0x24(%ebp),%eax
  102de8:	3b 45 e0             	cmp    -0x20(%ebp),%eax
  102deb:	73 28                	jae    102e15 <_adReverseWchar+0x1a8>
  102ded:	c7 45 b0 19 00 00 00 	movl   $0x19,-0x50(%ebp)
  102df4:	c7 45 b4 a0 5c 10 00 	movl   $0x105ca0,-0x4c(%ebp)
  102dfb:	c7 44 24 08 d1 01 00 	movl   $0x1d1,0x8(%esp)
  102e02:	00 
  102e03:	8b 4d b0             	mov    -0x50(%ebp),%ecx
  102e06:	8b 5d b4             	mov    -0x4c(%ebp),%ebx
  102e09:	89 0c 24             	mov    %ecx,(%esp)
  102e0c:	89 5c 24 04          	mov    %ebx,0x4(%esp)
  102e10:	e8 61 fa ff ff       	call   102876 <_d_assert>
  102e15:	8b 45 e0             	mov    -0x20(%ebp),%eax
  102e18:	3b 45 dc             	cmp    -0x24(%ebp),%eax
  102e1b:	0f 84 2a 01 00 00    	je     102f4b <_adReverseWchar+0x2de>
  102e21:	8b 45 ec             	mov    -0x14(%ebp),%eax
  102e24:	3b 45 e8             	cmp    -0x18(%ebp),%eax
  102e27:	75 60                	jne    102e89 <_adReverseWchar+0x21c>
  102e29:	c7 45 f4 00 00 00 00 	movl   $0x0,-0xc(%ebp)
  102e30:	83 7d ec 02          	cmpl   $0x2,-0x14(%ebp)
  102e34:	74 28                	je     102e5e <_adReverseWchar+0x1f1>
  102e36:	c7 45 b8 19 00 00 00 	movl   $0x19,-0x48(%ebp)
  102e3d:	c7 45 bc a0 5c 10 00 	movl   $0x105ca0,-0x44(%ebp)
  102e44:	c7 44 24 08 d9 01 00 	movl   $0x1d9,0x8(%esp)
  102e4b:	00 
  102e4c:	8b 45 b8             	mov    -0x48(%ebp),%eax
  102e4f:	8b 55 bc             	mov    -0x44(%ebp),%edx
  102e52:	89 04 24             	mov    %eax,(%esp)
  102e55:	89 54 24 04          	mov    %edx,0x4(%esp)
  102e59:	e8 18 fa ff ff       	call   102876 <_d_assert>
  102e5e:	8b 45 e0             	mov    -0x20(%ebp),%eax
  102e61:	8b 00                	mov    (%eax),%eax
  102e63:	89 45 f4             	mov    %eax,-0xc(%ebp)
  102e66:	8b 55 e0             	mov    -0x20(%ebp),%edx
  102e69:	8b 45 dc             	mov    -0x24(%ebp),%eax
  102e6c:	8b 00                	mov    (%eax),%eax
  102e6e:	89 02                	mov    %eax,(%edx)
  102e70:	8b 55 dc             	mov    -0x24(%ebp),%edx
  102e73:	8b 45 f4             	mov    -0xc(%ebp),%eax
  102e76:	89 02                	mov    %eax,(%edx)
  102e78:	8b 45 ec             	mov    -0x14(%ebp),%eax
  102e7b:	01 c0                	add    %eax,%eax
  102e7d:	01 45 e0             	add    %eax,-0x20(%ebp)
  102e80:	83 6d dc 02          	subl   $0x2,-0x24(%ebp)
  102e84:	e9 91 fe ff ff       	jmp    102d1a <_adReverseWchar+0xad>
  102e89:	8b 45 e8             	mov    -0x18(%ebp),%eax
  102e8c:	01 c0                	add    %eax,%eax
  102e8e:	89 44 24 08          	mov    %eax,0x8(%esp)
  102e92:	8b 45 dc             	mov    -0x24(%ebp),%eax
  102e95:	89 44 24 04          	mov    %eax,0x4(%esp)
  102e99:	8d 45 d0             	lea    -0x30(%ebp),%eax
  102e9c:	89 04 24             	mov    %eax,(%esp)
  102e9f:	e8 45 0d 00 00       	call   103be9 <memcpy>
  102ea4:	8b 45 ec             	mov    -0x14(%ebp),%eax
  102ea7:	8d 0c 00             	lea    (%eax,%eax,1),%ecx
  102eaa:	8b 55 ec             	mov    -0x14(%ebp),%edx
  102ead:	8b 45 e8             	mov    -0x18(%ebp),%eax
  102eb0:	89 d3                	mov    %edx,%ebx
  102eb2:	29 c3                	sub    %eax,%ebx
  102eb4:	89 d8                	mov    %ebx,%eax
  102eb6:	01 c0                	add    %eax,%eax
  102eb8:	f7 d8                	neg    %eax
  102eba:	89 c2                	mov    %eax,%edx
  102ebc:	03 55 dc             	add    -0x24(%ebp),%edx
  102ebf:	89 4c 24 08          	mov    %ecx,0x8(%esp)
  102ec3:	8b 45 e0             	mov    -0x20(%ebp),%eax
  102ec6:	89 44 24 04          	mov    %eax,0x4(%esp)
  102eca:	89 14 24             	mov    %edx,(%esp)
  102ecd:	e8 17 0d 00 00       	call   103be9 <memcpy>
  102ed2:	8b 55 dc             	mov    -0x24(%ebp),%edx
  102ed5:	8b 45 ec             	mov    -0x14(%ebp),%eax
  102ed8:	01 c0                	add    %eax,%eax
  102eda:	03 45 e0             	add    -0x20(%ebp),%eax
  102edd:	29 c2                	sub    %eax,%edx
  102edf:	89 d0                	mov    %edx,%eax
  102ee1:	c1 e8 1f             	shr    $0x1f,%eax
  102ee4:	01 d0                	add    %edx,%eax
  102ee6:	d1 f8                	sar    %eax
  102ee8:	8d 14 00             	lea    (%eax,%eax,1),%edx
  102eeb:	8b 45 ec             	mov    -0x14(%ebp),%eax
  102eee:	01 c0                	add    %eax,%eax
  102ef0:	89 c1                	mov    %eax,%ecx
  102ef2:	03 4d e0             	add    -0x20(%ebp),%ecx
  102ef5:	8b 45 e8             	mov    -0x18(%ebp),%eax
  102ef8:	01 c0                	add    %eax,%eax
  102efa:	03 45 e0             	add    -0x20(%ebp),%eax
  102efd:	89 54 24 08          	mov    %edx,0x8(%esp)
  102f01:	89 4c 24 04          	mov    %ecx,0x4(%esp)
  102f05:	89 04 24             	mov    %eax,(%esp)
  102f08:	e8 28 0d 00 00       	call   103c35 <memmove>
  102f0d:	8b 45 e8             	mov    -0x18(%ebp),%eax
  102f10:	01 c0                	add    %eax,%eax
  102f12:	89 44 24 08          	mov    %eax,0x8(%esp)
  102f16:	8d 45 d0             	lea    -0x30(%ebp),%eax
  102f19:	89 44 24 04          	mov    %eax,0x4(%esp)
  102f1d:	8b 45 e0             	mov    -0x20(%ebp),%eax
  102f20:	89 04 24             	mov    %eax,(%esp)
  102f23:	e8 c1 0c 00 00       	call   103be9 <memcpy>
  102f28:	8b 45 e8             	mov    -0x18(%ebp),%eax
  102f2b:	01 c0                	add    %eax,%eax
  102f2d:	01 45 e0             	add    %eax,-0x20(%ebp)
  102f30:	8b 45 dc             	mov    -0x24(%ebp),%eax
  102f33:	8d 48 fe             	lea    -0x2(%eax),%ecx
  102f36:	8b 55 ec             	mov    -0x14(%ebp),%edx
  102f39:	8b 45 e8             	mov    -0x18(%ebp),%eax
  102f3c:	29 d0                	sub    %edx,%eax
  102f3e:	01 c0                	add    %eax,%eax
  102f40:	8d 04 01             	lea    (%ecx,%eax,1),%eax
  102f43:	89 45 dc             	mov    %eax,-0x24(%ebp)
  102f46:	e9 cf fd ff ff       	jmp    102d1a <_adReverseWchar+0xad>
  102f4b:	8d 45 0c             	lea    0xc(%ebp),%eax
  102f4e:	8b 50 04             	mov    0x4(%eax),%edx
  102f51:	8b 00                	mov    (%eax),%eax
  102f53:	89 45 d4             	mov    %eax,-0x2c(%ebp)
  102f56:	89 55 d8             	mov    %edx,-0x28(%ebp)
  102f59:	8b 45 d4             	mov    -0x2c(%ebp),%eax
  102f5c:	8b 55 d8             	mov    -0x28(%ebp),%edx
  102f5f:	8b 4d 08             	mov    0x8(%ebp),%ecx
  102f62:	89 01                	mov    %eax,(%ecx)
  102f64:	89 51 04             	mov    %edx,0x4(%ecx)
  102f67:	8b 45 08             	mov    0x8(%ebp),%eax
  102f6a:	81 c4 84 00 00 00    	add    $0x84,%esp
  102f70:	5b                   	pop    %ebx
  102f71:	5d                   	pop    %ebp
  102f72:	c2 04 00             	ret    $0x4

00102f75 <_adCmpChar>:
  102f75:	55                   	push   %ebp
  102f76:	89 e5                	mov    %esp,%ebp
  102f78:	83 ec 28             	sub    $0x28,%esp
  102f7b:	c7 45 fc 00 00 00 00 	movl   $0x0,-0x4(%ebp)
  102f82:	c7 45 f8 00 00 00 00 	movl   $0x0,-0x8(%ebp)
  102f89:	8b 45 08             	mov    0x8(%ebp),%eax
  102f8c:	89 45 fc             	mov    %eax,-0x4(%ebp)
  102f8f:	8b 55 10             	mov    0x10(%ebp),%edx
  102f92:	8b 45 fc             	mov    -0x4(%ebp),%eax
  102f95:	39 c2                	cmp    %eax,%edx
  102f97:	73 06                	jae    102f9f <_adCmpChar+0x2a>
  102f99:	8b 45 10             	mov    0x10(%ebp),%eax
  102f9c:	89 45 fc             	mov    %eax,-0x4(%ebp)
  102f9f:	8b 45 fc             	mov    -0x4(%ebp),%eax
  102fa2:	8b 55 14             	mov    0x14(%ebp),%edx
  102fa5:	8b 4d 0c             	mov    0xc(%ebp),%ecx
  102fa8:	89 44 24 08          	mov    %eax,0x8(%esp)
  102fac:	89 54 24 04          	mov    %edx,0x4(%esp)
  102fb0:	89 0c 24             	mov    %ecx,(%esp)
  102fb3:	e8 c9 0c 00 00       	call   103c81 <memcmp>
  102fb8:	89 45 f8             	mov    %eax,-0x8(%ebp)
  102fbb:	83 7d f8 00          	cmpl   $0x0,-0x8(%ebp)
  102fbf:	0f 95 c0             	setne  %al
  102fc2:	83 f0 01             	xor    $0x1,%eax
  102fc5:	84 c0                	test   %al,%al
  102fc7:	74 11                	je     102fda <_adCmpChar+0x65>
  102fc9:	8b 45 08             	mov    0x8(%ebp),%eax
  102fcc:	89 c2                	mov    %eax,%edx
  102fce:	8b 45 10             	mov    0x10(%ebp),%eax
  102fd1:	89 d1                	mov    %edx,%ecx
  102fd3:	29 c1                	sub    %eax,%ecx
  102fd5:	89 c8                	mov    %ecx,%eax
  102fd7:	89 45 f8             	mov    %eax,-0x8(%ebp)
  102fda:	8b 45 f8             	mov    -0x8(%ebp),%eax
  102fdd:	c9                   	leave  
  102fde:	c3                   	ret    

00102fdf <_adReverse>:
  102fdf:	55                   	push   %ebp
  102fe0:	89 e5                	mov    %esp,%ebp
  102fe2:	83 ec 48             	sub    $0x48,%esp
  102fe5:	8b 45 0c             	mov    0xc(%ebp),%eax
  102fe8:	83 f8 02             	cmp    $0x2,%eax
  102feb:	0f 82 dc 00 00 00    	jb     1030cd <_adReverse+0xee>
  102ff1:	c7 45 fc 00 00 00 00 	movl   $0x0,-0x4(%ebp)
  102ff8:	c7 45 d0 10 00 00 00 	movl   $0x10,-0x30(%ebp)
  102fff:	8d 45 e4             	lea    -0x1c(%ebp),%eax
  103002:	89 45 d4             	mov    %eax,-0x2c(%ebp)
  103005:	8b 45 d0             	mov    -0x30(%ebp),%eax
  103008:	89 45 dc             	mov    %eax,-0x24(%ebp)
  10300b:	8b 4d d4             	mov    -0x2c(%ebp),%ecx
  10300e:	89 4d d8             	mov    %ecx,-0x28(%ebp)
  103011:	83 7d dc 00          	cmpl   $0x0,-0x24(%ebp)
  103015:	0f 95 c0             	setne  %al
  103018:	83 f0 01             	xor    $0x1,%eax
  10301b:	84 c0                	test   %al,%al
  10301d:	75 10                	jne    10302f <_adReverse+0x50>
  10301f:	8b 45 d8             	mov    -0x28(%ebp),%eax
  103022:	c6 00 00             	movb   $0x0,(%eax)
  103025:	83 45 d8 01          	addl   $0x1,-0x28(%ebp)
  103029:	83 6d dc 01          	subl   $0x1,-0x24(%ebp)
  10302d:	eb e2                	jmp    103011 <_adReverse+0x32>
  10302f:	8b 45 10             	mov    0x10(%ebp),%eax
  103032:	89 45 f8             	mov    %eax,-0x8(%ebp)
  103035:	8b 55 10             	mov    0x10(%ebp),%edx
  103038:	8b 45 0c             	mov    0xc(%ebp),%eax
  10303b:	83 e8 01             	sub    $0x1,%eax
  10303e:	0f af 45 14          	imul   0x14(%ebp),%eax
  103042:	8d 04 02             	lea    (%edx,%eax,1),%eax
  103045:	89 45 f4             	mov    %eax,-0xc(%ebp)
  103048:	8d 45 e4             	lea    -0x1c(%ebp),%eax
  10304b:	89 45 fc             	mov    %eax,-0x4(%ebp)
  10304e:	83 7d 14 10          	cmpl   $0x10,0x14(%ebp)
  103052:	76 0e                	jbe    103062 <_adReverse+0x83>
  103054:	8b 45 14             	mov    0x14(%ebp),%eax
  103057:	89 04 24             	mov    %eax,(%esp)
  10305a:	e8 79 0e 00 00       	call   103ed8 <alloca>
  10305f:	89 45 fc             	mov    %eax,-0x4(%ebp)
  103062:	8b 45 f8             	mov    -0x8(%ebp),%eax
  103065:	3b 45 f4             	cmp    -0xc(%ebp),%eax
  103068:	0f 92 c0             	setb   %al
  10306b:	83 f0 01             	xor    $0x1,%eax
  10306e:	84 c0                	test   %al,%al
  103070:	75 5b                	jne    1030cd <_adReverse+0xee>
  103072:	8b 45 14             	mov    0x14(%ebp),%eax
  103075:	89 44 24 08          	mov    %eax,0x8(%esp)
  103079:	8b 45 f8             	mov    -0x8(%ebp),%eax
  10307c:	89 44 24 04          	mov    %eax,0x4(%esp)
  103080:	8b 45 fc             	mov    -0x4(%ebp),%eax
  103083:	89 04 24             	mov    %eax,(%esp)
  103086:	e8 5e 0b 00 00       	call   103be9 <memcpy>
  10308b:	8b 45 14             	mov    0x14(%ebp),%eax
  10308e:	89 44 24 08          	mov    %eax,0x8(%esp)
  103092:	8b 45 f4             	mov    -0xc(%ebp),%eax
  103095:	89 44 24 04          	mov    %eax,0x4(%esp)
  103099:	8b 45 f8             	mov    -0x8(%ebp),%eax
  10309c:	89 04 24             	mov    %eax,(%esp)
  10309f:	e8 45 0b 00 00       	call   103be9 <memcpy>
  1030a4:	8b 45 14             	mov    0x14(%ebp),%eax
  1030a7:	89 44 24 08          	mov    %eax,0x8(%esp)
  1030ab:	8b 45 fc             	mov    -0x4(%ebp),%eax
  1030ae:	89 44 24 04          	mov    %eax,0x4(%esp)
  1030b2:	8b 45 f4             	mov    -0xc(%ebp),%eax
  1030b5:	89 04 24             	mov    %eax,(%esp)
  1030b8:	e8 2c 0b 00 00       	call   103be9 <memcpy>
  1030bd:	8b 45 14             	mov    0x14(%ebp),%eax
  1030c0:	01 45 f8             	add    %eax,-0x8(%ebp)
  1030c3:	8b 45 14             	mov    0x14(%ebp),%eax
  1030c6:	f7 d8                	neg    %eax
  1030c8:	01 45 f4             	add    %eax,-0xc(%ebp)
  1030cb:	eb 95                	jmp    103062 <_adReverse+0x83>
  1030cd:	8b 45 0c             	mov    0xc(%ebp),%eax
  1030d0:	8b 55 10             	mov    0x10(%ebp),%edx
  1030d3:	8b 4d 08             	mov    0x8(%ebp),%ecx
  1030d6:	89 01                	mov    %eax,(%ecx)
  1030d8:	89 51 04             	mov    %edx,0x4(%ecx)
  1030db:	8b 45 08             	mov    0x8(%ebp),%eax
  1030de:	c9                   	leave  
  1030df:	c2 04 00             	ret    $0x4

001030e2 <_adEq>:
  1030e2:	55                   	push   %ebp
  1030e3:	89 e5                	mov    %esp,%ebp
  1030e5:	83 ec 28             	sub    $0x28,%esp
  1030e8:	8b 55 08             	mov    0x8(%ebp),%edx
  1030eb:	8b 45 10             	mov    0x10(%ebp),%eax
  1030ee:	39 c2                	cmp    %eax,%edx
  1030f0:	74 0c                	je     1030fe <_adEq+0x1c>
  1030f2:	c7 45 ec 00 00 00 00 	movl   $0x0,-0x14(%ebp)
  1030f9:	e9 b6 00 00 00       	jmp    1031b4 <_adEq+0xd2>
  1030fe:	8b 45 18             	mov    0x18(%ebp),%eax
  103101:	8b 00                	mov    (%eax),%eax
  103103:	83 c0 24             	add    $0x24,%eax
  103106:	8b 10                	mov    (%eax),%edx
  103108:	8b 45 18             	mov    0x18(%ebp),%eax
  10310b:	89 04 24             	mov    %eax,(%esp)
  10310e:	ff d2                	call   *%edx
  103110:	89 45 f8             	mov    %eax,-0x8(%ebp)
  103113:	8b 45 0c             	mov    0xc(%ebp),%eax
  103116:	89 45 f4             	mov    %eax,-0xc(%ebp)
  103119:	8b 45 14             	mov    0x14(%ebp),%eax
  10311c:	89 45 f0             	mov    %eax,-0x10(%ebp)
  10311f:	83 7d f8 01          	cmpl   $0x1,-0x8(%ebp)
  103123:	75 26                	jne    10314b <_adEq+0x69>
  103125:	8b 45 08             	mov    0x8(%ebp),%eax
  103128:	89 44 24 08          	mov    %eax,0x8(%esp)
  10312c:	8b 45 f0             	mov    -0x10(%ebp),%eax
  10312f:	89 44 24 04          	mov    %eax,0x4(%esp)
  103133:	8b 45 f4             	mov    -0xc(%ebp),%eax
  103136:	89 04 24             	mov    %eax,(%esp)
  103139:	e8 43 0b 00 00       	call   103c81 <memcmp>
  10313e:	85 c0                	test   %eax,%eax
  103140:	0f 94 c0             	sete   %al
  103143:	0f b6 c0             	movzbl %al,%eax
  103146:	89 45 ec             	mov    %eax,-0x14(%ebp)
  103149:	eb 69                	jmp    1031b4 <_adEq+0xd2>
  10314b:	c7 45 fc 00 00 00 00 	movl   $0x0,-0x4(%ebp)
  103152:	8b 45 08             	mov    0x8(%ebp),%eax
  103155:	39 45 fc             	cmp    %eax,-0x4(%ebp)
  103158:	0f 92 c0             	setb   %al
  10315b:	83 f0 01             	xor    $0x1,%eax
  10315e:	84 c0                	test   %al,%al
  103160:	75 4b                	jne    1031ad <_adEq+0xcb>
  103162:	8b 45 18             	mov    0x18(%ebp),%eax
  103165:	8b 00                	mov    (%eax),%eax
  103167:	83 c0 1c             	add    $0x1c,%eax
  10316a:	8b 08                	mov    (%eax),%ecx
  10316c:	8b 45 fc             	mov    -0x4(%ebp),%eax
  10316f:	0f af 45 f8          	imul   -0x8(%ebp),%eax
  103173:	89 c2                	mov    %eax,%edx
  103175:	03 55 f0             	add    -0x10(%ebp),%edx
  103178:	8b 45 fc             	mov    -0x4(%ebp),%eax
  10317b:	0f af 45 f8          	imul   -0x8(%ebp),%eax
  10317f:	03 45 f4             	add    -0xc(%ebp),%eax
  103182:	89 54 24 08          	mov    %edx,0x8(%esp)
  103186:	89 44 24 04          	mov    %eax,0x4(%esp)
  10318a:	8b 45 18             	mov    0x18(%ebp),%eax
  10318d:	89 04 24             	mov    %eax,(%esp)
  103190:	ff d1                	call   *%ecx
  103192:	85 c0                	test   %eax,%eax
  103194:	0f 95 c0             	setne  %al
  103197:	83 f0 01             	xor    $0x1,%eax
  10319a:	84 c0                	test   %al,%al
  10319c:	74 09                	je     1031a7 <_adEq+0xc5>
  10319e:	c7 45 ec 00 00 00 00 	movl   $0x0,-0x14(%ebp)
  1031a5:	eb 0d                	jmp    1031b4 <_adEq+0xd2>
  1031a7:	83 45 fc 01          	addl   $0x1,-0x4(%ebp)
  1031ab:	eb a5                	jmp    103152 <_adEq+0x70>
  1031ad:	c7 45 ec 01 00 00 00 	movl   $0x1,-0x14(%ebp)
  1031b4:	8b 45 ec             	mov    -0x14(%ebp),%eax
  1031b7:	c9                   	leave  
  1031b8:	c3                   	ret    

001031b9 <_adCmp>:
  1031b9:	55                   	push   %ebp
  1031ba:	89 e5                	mov    %esp,%ebp
  1031bc:	83 ec 38             	sub    $0x38,%esp
  1031bf:	8b 45 08             	mov    0x8(%ebp),%eax
  1031c2:	89 45 f0             	mov    %eax,-0x10(%ebp)
  1031c5:	8b 45 10             	mov    0x10(%ebp),%eax
  1031c8:	3b 45 f0             	cmp    -0x10(%ebp),%eax
  1031cb:	73 06                	jae    1031d3 <_adCmp+0x1a>
  1031cd:	8b 45 10             	mov    0x10(%ebp),%eax
  1031d0:	89 45 f0             	mov    %eax,-0x10(%ebp)
  1031d3:	8b 45 18             	mov    0x18(%ebp),%eax
  1031d6:	8b 00                	mov    (%eax),%eax
  1031d8:	83 c0 24             	add    $0x24,%eax
  1031db:	8b 10                	mov    (%eax),%edx
  1031dd:	8b 45 18             	mov    0x18(%ebp),%eax
  1031e0:	89 04 24             	mov    %eax,(%esp)
  1031e3:	ff d2                	call   *%edx
  1031e5:	89 45 ec             	mov    %eax,-0x14(%ebp)
  1031e8:	8b 45 0c             	mov    0xc(%ebp),%eax
  1031eb:	89 45 e8             	mov    %eax,-0x18(%ebp)
  1031ee:	8b 45 14             	mov    0x14(%ebp),%eax
  1031f1:	89 45 e4             	mov    %eax,-0x1c(%ebp)
  1031f4:	83 7d ec 01          	cmpl   $0x1,-0x14(%ebp)
  1031f8:	75 2d                	jne    103227 <_adCmp+0x6e>
  1031fa:	8b 45 f0             	mov    -0x10(%ebp),%eax
  1031fd:	89 44 24 08          	mov    %eax,0x8(%esp)
  103201:	8b 45 e4             	mov    -0x1c(%ebp),%eax
  103204:	89 44 24 04          	mov    %eax,0x4(%esp)
  103208:	8b 45 e8             	mov    -0x18(%ebp),%eax
  10320b:	89 04 24             	mov    %eax,(%esp)
  10320e:	e8 6e 0a 00 00       	call   103c81 <memcmp>
  103213:	89 45 f4             	mov    %eax,-0xc(%ebp)
  103216:	83 7d f4 00          	cmpl   $0x0,-0xc(%ebp)
  10321a:	74 69                	je     103285 <_adCmp+0xcc>
  10321c:	8b 45 f4             	mov    -0xc(%ebp),%eax
  10321f:	89 45 d8             	mov    %eax,-0x28(%ebp)
  103222:	e9 91 00 00 00       	jmp    1032b8 <_adCmp+0xff>
  103227:	c7 45 f8 00 00 00 00 	movl   $0x0,-0x8(%ebp)
  10322e:	8b 45 f8             	mov    -0x8(%ebp),%eax
  103231:	3b 45 f0             	cmp    -0x10(%ebp),%eax
  103234:	0f 92 c0             	setb   %al
  103237:	83 f0 01             	xor    $0x1,%eax
  10323a:	84 c0                	test   %al,%al
  10323c:	75 47                	jne    103285 <_adCmp+0xcc>
  10323e:	8b 45 18             	mov    0x18(%ebp),%eax
  103241:	8b 00                	mov    (%eax),%eax
  103243:	83 c0 20             	add    $0x20,%eax
  103246:	8b 08                	mov    (%eax),%ecx
  103248:	8b 45 f8             	mov    -0x8(%ebp),%eax
  10324b:	0f af 45 ec          	imul   -0x14(%ebp),%eax
  10324f:	89 c2                	mov    %eax,%edx
  103251:	03 55 e4             	add    -0x1c(%ebp),%edx
  103254:	8b 45 f8             	mov    -0x8(%ebp),%eax
  103257:	0f af 45 ec          	imul   -0x14(%ebp),%eax
  10325b:	03 45 e8             	add    -0x18(%ebp),%eax
  10325e:	89 54 24 08          	mov    %edx,0x8(%esp)
  103262:	89 44 24 04          	mov    %eax,0x4(%esp)
  103266:	8b 45 18             	mov    0x18(%ebp),%eax
  103269:	89 04 24             	mov    %eax,(%esp)
  10326c:	ff d1                	call   *%ecx
  10326e:	89 45 fc             	mov    %eax,-0x4(%ebp)
  103271:	83 7d fc 00          	cmpl   $0x0,-0x4(%ebp)
  103275:	74 08                	je     10327f <_adCmp+0xc6>
  103277:	8b 45 fc             	mov    -0x4(%ebp),%eax
  10327a:	89 45 d8             	mov    %eax,-0x28(%ebp)
  10327d:	eb 39                	jmp    1032b8 <_adCmp+0xff>
  10327f:	83 45 f8 01          	addl   $0x1,-0x8(%ebp)
  103283:	eb a9                	jmp    10322e <_adCmp+0x75>
  103285:	8b 55 08             	mov    0x8(%ebp),%edx
  103288:	8b 45 10             	mov    0x10(%ebp),%eax
  10328b:	39 c2                	cmp    %eax,%edx
  10328d:	75 09                	jne    103298 <_adCmp+0xdf>
  10328f:	c7 45 d8 00 00 00 00 	movl   $0x0,-0x28(%ebp)
  103296:	eb 20                	jmp    1032b8 <_adCmp+0xff>
  103298:	8b 55 08             	mov    0x8(%ebp),%edx
  10329b:	8b 45 10             	mov    0x10(%ebp),%eax
  10329e:	39 c2                	cmp    %eax,%edx
  1032a0:	76 09                	jbe    1032ab <_adCmp+0xf2>
  1032a2:	c7 45 dc 01 00 00 00 	movl   $0x1,-0x24(%ebp)
  1032a9:	eb 07                	jmp    1032b2 <_adCmp+0xf9>
  1032ab:	c7 45 dc ff ff ff ff 	movl   $0xffffffff,-0x24(%ebp)
  1032b2:	8b 45 dc             	mov    -0x24(%ebp),%eax
  1032b5:	89 45 d8             	mov    %eax,-0x28(%ebp)
  1032b8:	8b 45 d8             	mov    -0x28(%ebp),%eax
  1032bb:	c9                   	leave  
  1032bc:	c3                   	ret    

001032bd <_adSort>:
  1032bd:	55                   	push   %ebp
  1032be:	89 e5                	mov    %esp,%ebp
  1032c0:	56                   	push   %esi
  1032c1:	53                   	push   %ebx
  1032c2:	81 ec 60 01 00 00    	sub    $0x160,%esp
  1032c8:	8b 45 14             	mov    0x14(%ebp),%eax
  1032cb:	8b 00                	mov    (%eax),%eax
  1032cd:	83 c0 24             	add    $0x24,%eax
  1032d0:	8b 10                	mov    (%eax),%edx
  1032d2:	8b 45 14             	mov    0x14(%ebp),%eax
  1032d5:	89 04 24             	mov    %eax,(%esp)
  1032d8:	ff d2                	call   *%edx
  1032da:	89 45 f4             	mov    %eax,-0xc(%ebp)
  1032dd:	8b 55 f4             	mov    -0xc(%ebp),%edx
  1032e0:	89 d0                	mov    %edx,%eax
  1032e2:	c1 e0 03             	shl    $0x3,%eax
  1032e5:	29 d0                	sub    %edx,%eax
  1032e7:	89 45 f0             	mov    %eax,-0x10(%ebp)
  1032ea:	bb 20 00 00 00       	mov    $0x20,%ebx
  1032ef:	8d 85 dc fe ff ff    	lea    -0x124(%ebp),%eax
  1032f5:	89 c6                	mov    %eax,%esi
  1032f7:	89 9d d4 fe ff ff    	mov    %ebx,-0x12c(%ebp)
  1032fd:	89 b5 d0 fe ff ff    	mov    %esi,-0x130(%ebp)
  103303:	83 bd d4 fe ff ff 00 	cmpl   $0x0,-0x12c(%ebp)
  10330a:	0f 95 c0             	setne  %al
  10330d:	83 f0 01             	xor    $0x1,%eax
  103310:	84 c0                	test   %al,%al
  103312:	75 26                	jne    10333a <_adSort+0x7d>
  103314:	a1 54 b1 10 00       	mov    0x10b154,%eax
  103319:	8b 15 58 b1 10 00    	mov    0x10b158,%edx
  10331f:	8b 8d d0 fe ff ff    	mov    -0x130(%ebp),%ecx
  103325:	89 01                	mov    %eax,(%ecx)
  103327:	89 51 04             	mov    %edx,0x4(%ecx)
  10332a:	83 85 d0 fe ff ff 08 	addl   $0x8,-0x130(%ebp)
  103331:	83 ad d4 fe ff ff 01 	subl   $0x1,-0x12c(%ebp)
  103338:	eb c9                	jmp    103303 <_adSort+0x46>
  10333a:	8d 85 dc fe ff ff    	lea    -0x124(%ebp),%eax
  103340:	89 45 ec             	mov    %eax,-0x14(%ebp)
  103343:	8b 45 10             	mov    0x10(%ebp),%eax
  103346:	89 45 e8             	mov    %eax,-0x18(%ebp)
  103349:	8b 55 10             	mov    0x10(%ebp),%edx
  10334c:	8b 45 0c             	mov    0xc(%ebp),%eax
  10334f:	0f af 45 f4          	imul   -0xc(%ebp),%eax
  103353:	8d 04 02             	lea    (%edx,%eax,1),%eax
  103356:	89 45 e4             	mov    %eax,-0x1c(%ebp)
  103359:	b8 00 00 00 00       	mov    $0x0,%eax
  10335e:	84 c0                	test   %al,%al
  103360:	0f 85 32 03 00 00    	jne    103698 <_adSort+0x3db>
  103366:	8b 55 e4             	mov    -0x1c(%ebp),%edx
  103369:	8b 45 e8             	mov    -0x18(%ebp),%eax
  10336c:	89 d3                	mov    %edx,%ebx
  10336e:	29 c3                	sub    %eax,%ebx
  103370:	89 d8                	mov    %ebx,%eax
  103372:	3b 45 f0             	cmp    -0x10(%ebp),%eax
  103375:	0f 86 51 02 00 00    	jbe    1035cc <_adSort+0x30f>
  10337b:	8b 45 14             	mov    0x14(%ebp),%eax
  10337e:	8b 00                	mov    (%eax),%eax
  103380:	83 c0 28             	add    $0x28,%eax
  103383:	8b 18                	mov    (%eax),%ebx
  103385:	8b 55 e4             	mov    -0x1c(%ebp),%edx
  103388:	8b 45 e8             	mov    -0x18(%ebp),%eax
  10338b:	89 d6                	mov    %edx,%esi
  10338d:	29 c6                	sub    %eax,%esi
  10338f:	89 f0                	mov    %esi,%eax
  103391:	89 c1                	mov    %eax,%ecx
  103393:	d1 e9                	shr    %ecx
  103395:	8b 55 e4             	mov    -0x1c(%ebp),%edx
  103398:	8b 45 e8             	mov    -0x18(%ebp),%eax
  10339b:	89 d6                	mov    %edx,%esi
  10339d:	29 c6                	sub    %eax,%esi
  10339f:	89 f0                	mov    %esi,%eax
  1033a1:	89 c2                	mov    %eax,%edx
  1033a3:	d1 ea                	shr    %edx
  1033a5:	89 95 b4 fe ff ff    	mov    %edx,-0x14c(%ebp)
  1033ab:	8b 85 b4 fe ff ff    	mov    -0x14c(%ebp),%eax
  1033b1:	ba 00 00 00 00       	mov    $0x0,%edx
  1033b6:	f7 75 f4             	divl   -0xc(%ebp)
  1033b9:	89 d0                	mov    %edx,%eax
  1033bb:	89 ca                	mov    %ecx,%edx
  1033bd:	29 c2                	sub    %eax,%edx
  1033bf:	89 d0                	mov    %edx,%eax
  1033c1:	03 45 e8             	add    -0x18(%ebp),%eax
  1033c4:	89 44 24 08          	mov    %eax,0x8(%esp)
  1033c8:	8b 45 e8             	mov    -0x18(%ebp),%eax
  1033cb:	89 44 24 04          	mov    %eax,0x4(%esp)
  1033cf:	8b 45 14             	mov    0x14(%ebp),%eax
  1033d2:	89 04 24             	mov    %eax,(%esp)
  1033d5:	ff d3                	call   *%ebx
  1033d7:	8b 45 f4             	mov    -0xc(%ebp),%eax
  1033da:	03 45 e8             	add    -0x18(%ebp),%eax
  1033dd:	89 45 e0             	mov    %eax,-0x20(%ebp)
  1033e0:	8b 45 f4             	mov    -0xc(%ebp),%eax
  1033e3:	f7 d8                	neg    %eax
  1033e5:	03 45 e4             	add    -0x1c(%ebp),%eax
  1033e8:	89 45 dc             	mov    %eax,-0x24(%ebp)
  1033eb:	8b 45 14             	mov    0x14(%ebp),%eax
  1033ee:	8b 00                	mov    (%eax),%eax
  1033f0:	83 c0 20             	add    $0x20,%eax
  1033f3:	8b 10                	mov    (%eax),%edx
  1033f5:	8b 45 dc             	mov    -0x24(%ebp),%eax
  1033f8:	89 44 24 08          	mov    %eax,0x8(%esp)
  1033fc:	8b 45 e0             	mov    -0x20(%ebp),%eax
  1033ff:	89 44 24 04          	mov    %eax,0x4(%esp)
  103403:	8b 45 14             	mov    0x14(%ebp),%eax
  103406:	89 04 24             	mov    %eax,(%esp)
  103409:	ff d2                	call   *%edx
  10340b:	85 c0                	test   %eax,%eax
  10340d:	7e 20                	jle    10342f <_adSort+0x172>
  10340f:	8b 45 14             	mov    0x14(%ebp),%eax
  103412:	8b 00                	mov    (%eax),%eax
  103414:	83 c0 28             	add    $0x28,%eax
  103417:	8b 10                	mov    (%eax),%edx
  103419:	8b 45 dc             	mov    -0x24(%ebp),%eax
  10341c:	89 44 24 08          	mov    %eax,0x8(%esp)
  103420:	8b 45 e0             	mov    -0x20(%ebp),%eax
  103423:	89 44 24 04          	mov    %eax,0x4(%esp)
  103427:	8b 45 14             	mov    0x14(%ebp),%eax
  10342a:	89 04 24             	mov    %eax,(%esp)
  10342d:	ff d2                	call   *%edx
  10342f:	8b 45 14             	mov    0x14(%ebp),%eax
  103432:	8b 00                	mov    (%eax),%eax
  103434:	83 c0 20             	add    $0x20,%eax
  103437:	8b 10                	mov    (%eax),%edx
  103439:	8b 45 dc             	mov    -0x24(%ebp),%eax
  10343c:	89 44 24 08          	mov    %eax,0x8(%esp)
  103440:	8b 45 e8             	mov    -0x18(%ebp),%eax
  103443:	89 44 24 04          	mov    %eax,0x4(%esp)
  103447:	8b 45 14             	mov    0x14(%ebp),%eax
  10344a:	89 04 24             	mov    %eax,(%esp)
  10344d:	ff d2                	call   *%edx
  10344f:	85 c0                	test   %eax,%eax
  103451:	7e 20                	jle    103473 <_adSort+0x1b6>
  103453:	8b 45 14             	mov    0x14(%ebp),%eax
  103456:	8b 00                	mov    (%eax),%eax
  103458:	83 c0 28             	add    $0x28,%eax
  10345b:	8b 10                	mov    (%eax),%edx
  10345d:	8b 45 dc             	mov    -0x24(%ebp),%eax
  103460:	89 44 24 08          	mov    %eax,0x8(%esp)
  103464:	8b 45 e8             	mov    -0x18(%ebp),%eax
  103467:	89 44 24 04          	mov    %eax,0x4(%esp)
  10346b:	8b 45 14             	mov    0x14(%ebp),%eax
  10346e:	89 04 24             	mov    %eax,(%esp)
  103471:	ff d2                	call   *%edx
  103473:	8b 45 14             	mov    0x14(%ebp),%eax
  103476:	8b 00                	mov    (%eax),%eax
  103478:	83 c0 20             	add    $0x20,%eax
  10347b:	8b 10                	mov    (%eax),%edx
  10347d:	8b 45 e8             	mov    -0x18(%ebp),%eax
  103480:	89 44 24 08          	mov    %eax,0x8(%esp)
  103484:	8b 45 e0             	mov    -0x20(%ebp),%eax
  103487:	89 44 24 04          	mov    %eax,0x4(%esp)
  10348b:	8b 45 14             	mov    0x14(%ebp),%eax
  10348e:	89 04 24             	mov    %eax,(%esp)
  103491:	ff d2                	call   *%edx
  103493:	85 c0                	test   %eax,%eax
  103495:	7e 20                	jle    1034b7 <_adSort+0x1fa>
  103497:	8b 45 14             	mov    0x14(%ebp),%eax
  10349a:	8b 00                	mov    (%eax),%eax
  10349c:	83 c0 28             	add    $0x28,%eax
  10349f:	8b 10                	mov    (%eax),%edx
  1034a1:	8b 45 e8             	mov    -0x18(%ebp),%eax
  1034a4:	89 44 24 08          	mov    %eax,0x8(%esp)
  1034a8:	8b 45 e0             	mov    -0x20(%ebp),%eax
  1034ab:	89 44 24 04          	mov    %eax,0x4(%esp)
  1034af:	8b 45 14             	mov    0x14(%ebp),%eax
  1034b2:	89 04 24             	mov    %eax,(%esp)
  1034b5:	ff d2                	call   *%edx
  1034b7:	b8 00 00 00 00       	mov    $0x0,%eax
  1034bc:	84 c0                	test   %al,%al
  1034be:	0f 85 91 00 00 00    	jne    103555 <_adSort+0x298>
  1034c4:	8b 45 f4             	mov    -0xc(%ebp),%eax
  1034c7:	01 45 e0             	add    %eax,-0x20(%ebp)
  1034ca:	8b 45 14             	mov    0x14(%ebp),%eax
  1034cd:	8b 00                	mov    (%eax),%eax
  1034cf:	83 c0 20             	add    $0x20,%eax
  1034d2:	8b 10                	mov    (%eax),%edx
  1034d4:	8b 45 e8             	mov    -0x18(%ebp),%eax
  1034d7:	89 44 24 08          	mov    %eax,0x8(%esp)
  1034db:	8b 45 e0             	mov    -0x20(%ebp),%eax
  1034de:	89 44 24 04          	mov    %eax,0x4(%esp)
  1034e2:	8b 45 14             	mov    0x14(%ebp),%eax
  1034e5:	89 04 24             	mov    %eax,(%esp)
  1034e8:	ff d2                	call   *%edx
  1034ea:	c1 e8 1f             	shr    $0x1f,%eax
  1034ed:	83 f0 01             	xor    $0x1,%eax
  1034f0:	84 c0                	test   %al,%al
  1034f2:	74 d0                	je     1034c4 <_adSort+0x207>
  1034f4:	8b 45 f4             	mov    -0xc(%ebp),%eax
  1034f7:	f7 d8                	neg    %eax
  1034f9:	01 45 dc             	add    %eax,-0x24(%ebp)
  1034fc:	8b 45 14             	mov    0x14(%ebp),%eax
  1034ff:	8b 00                	mov    (%eax),%eax
  103501:	83 c0 20             	add    $0x20,%eax
  103504:	8b 10                	mov    (%eax),%edx
  103506:	8b 45 e8             	mov    -0x18(%ebp),%eax
  103509:	89 44 24 08          	mov    %eax,0x8(%esp)
  10350d:	8b 45 dc             	mov    -0x24(%ebp),%eax
  103510:	89 44 24 04          	mov    %eax,0x4(%esp)
  103514:	8b 45 14             	mov    0x14(%ebp),%eax
  103517:	89 04 24             	mov    %eax,(%esp)
  10351a:	ff d2                	call   *%edx
  10351c:	85 c0                	test   %eax,%eax
  10351e:	0f 9f c0             	setg   %al
  103521:	83 f0 01             	xor    $0x1,%eax
  103524:	84 c0                	test   %al,%al
  103526:	74 cc                	je     1034f4 <_adSort+0x237>
  103528:	8b 45 e0             	mov    -0x20(%ebp),%eax
  10352b:	3b 45 dc             	cmp    -0x24(%ebp),%eax
  10352e:	77 25                	ja     103555 <_adSort+0x298>
  103530:	8b 45 14             	mov    0x14(%ebp),%eax
  103533:	8b 00                	mov    (%eax),%eax
  103535:	83 c0 28             	add    $0x28,%eax
  103538:	8b 10                	mov    (%eax),%edx
  10353a:	8b 45 dc             	mov    -0x24(%ebp),%eax
  10353d:	89 44 24 08          	mov    %eax,0x8(%esp)
  103541:	8b 45 e0             	mov    -0x20(%ebp),%eax
  103544:	89 44 24 04          	mov    %eax,0x4(%esp)
  103548:	8b 45 14             	mov    0x14(%ebp),%eax
  10354b:	89 04 24             	mov    %eax,(%esp)
  10354e:	ff d2                	call   *%edx
  103550:	e9 62 ff ff ff       	jmp    1034b7 <_adSort+0x1fa>
  103555:	8b 45 14             	mov    0x14(%ebp),%eax
  103558:	8b 00                	mov    (%eax),%eax
  10355a:	83 c0 28             	add    $0x28,%eax
  10355d:	8b 10                	mov    (%eax),%edx
  10355f:	8b 45 dc             	mov    -0x24(%ebp),%eax
  103562:	89 44 24 08          	mov    %eax,0x8(%esp)
  103566:	8b 45 e8             	mov    -0x18(%ebp),%eax
  103569:	89 44 24 04          	mov    %eax,0x4(%esp)
  10356d:	8b 45 14             	mov    0x14(%ebp),%eax
  103570:	89 04 24             	mov    %eax,(%esp)
  103573:	ff d2                	call   *%edx
  103575:	8b 55 dc             	mov    -0x24(%ebp),%edx
  103578:	8b 45 e8             	mov    -0x18(%ebp),%eax
  10357b:	89 d1                	mov    %edx,%ecx
  10357d:	29 c1                	sub    %eax,%ecx
  10357f:	89 c8                	mov    %ecx,%eax
  103581:	89 c1                	mov    %eax,%ecx
  103583:	8b 55 e4             	mov    -0x1c(%ebp),%edx
  103586:	8b 45 e0             	mov    -0x20(%ebp),%eax
  103589:	89 d3                	mov    %edx,%ebx
  10358b:	29 c3                	sub    %eax,%ebx
  10358d:	89 d8                	mov    %ebx,%eax
  10358f:	39 c1                	cmp    %eax,%ecx
  103591:	7e 19                	jle    1035ac <_adSort+0x2ef>
  103593:	8b 55 ec             	mov    -0x14(%ebp),%edx
  103596:	8b 45 e8             	mov    -0x18(%ebp),%eax
  103599:	89 02                	mov    %eax,(%edx)
  10359b:	8b 55 ec             	mov    -0x14(%ebp),%edx
  10359e:	8b 45 dc             	mov    -0x24(%ebp),%eax
  1035a1:	89 42 04             	mov    %eax,0x4(%edx)
  1035a4:	8b 45 e0             	mov    -0x20(%ebp),%eax
  1035a7:	89 45 e8             	mov    %eax,-0x18(%ebp)
  1035aa:	eb 17                	jmp    1035c3 <_adSort+0x306>
  1035ac:	8b 55 ec             	mov    -0x14(%ebp),%edx
  1035af:	8b 45 e0             	mov    -0x20(%ebp),%eax
  1035b2:	89 02                	mov    %eax,(%edx)
  1035b4:	8b 55 ec             	mov    -0x14(%ebp),%edx
  1035b7:	8b 45 e4             	mov    -0x1c(%ebp),%eax
  1035ba:	89 42 04             	mov    %eax,0x4(%edx)
  1035bd:	8b 45 dc             	mov    -0x24(%ebp),%eax
  1035c0:	89 45 e4             	mov    %eax,-0x1c(%ebp)
  1035c3:	83 45 ec 08          	addl   $0x8,-0x14(%ebp)
  1035c7:	e9 8d fd ff ff       	jmp    103359 <_adSort+0x9c>
  1035cc:	8b 45 e8             	mov    -0x18(%ebp),%eax
  1035cf:	89 45 dc             	mov    %eax,-0x24(%ebp)
  1035d2:	8b 45 f4             	mov    -0xc(%ebp),%eax
  1035d5:	03 45 e8             	add    -0x18(%ebp),%eax
  1035d8:	89 45 e0             	mov    %eax,-0x20(%ebp)
  1035db:	8b 45 e0             	mov    -0x20(%ebp),%eax
  1035de:	3b 45 e4             	cmp    -0x1c(%ebp),%eax
  1035e1:	0f 92 c0             	setb   %al
  1035e4:	83 f0 01             	xor    $0x1,%eax
  1035e7:	84 c0                	test   %al,%al
  1035e9:	75 75                	jne    103660 <_adSort+0x3a3>
  1035eb:	8b 45 14             	mov    0x14(%ebp),%eax
  1035ee:	8b 00                	mov    (%eax),%eax
  1035f0:	83 c0 20             	add    $0x20,%eax
  1035f3:	8b 10                	mov    (%eax),%edx
  1035f5:	8b 45 f4             	mov    -0xc(%ebp),%eax
  1035f8:	03 45 dc             	add    -0x24(%ebp),%eax
  1035fb:	89 44 24 08          	mov    %eax,0x8(%esp)
  1035ff:	8b 45 dc             	mov    -0x24(%ebp),%eax
  103602:	89 44 24 04          	mov    %eax,0x4(%esp)
  103606:	8b 45 14             	mov    0x14(%ebp),%eax
  103609:	89 04 24             	mov    %eax,(%esp)
  10360c:	ff d2                	call   *%edx
  10360e:	85 c0                	test   %eax,%eax
  103610:	0f 9f c0             	setg   %al
  103613:	83 f0 01             	xor    $0x1,%eax
  103616:	84 c0                	test   %al,%al
  103618:	75 35                	jne    10364f <_adSort+0x392>
  10361a:	8b 45 14             	mov    0x14(%ebp),%eax
  10361d:	8b 00                	mov    (%eax),%eax
  10361f:	83 c0 28             	add    $0x28,%eax
  103622:	8b 10                	mov    (%eax),%edx
  103624:	8b 45 f4             	mov    -0xc(%ebp),%eax
  103627:	03 45 dc             	add    -0x24(%ebp),%eax
  10362a:	89 44 24 08          	mov    %eax,0x8(%esp)
  10362e:	8b 45 dc             	mov    -0x24(%ebp),%eax
  103631:	89 44 24 04          	mov    %eax,0x4(%esp)
  103635:	8b 45 14             	mov    0x14(%ebp),%eax
  103638:	89 04 24             	mov    %eax,(%esp)
  10363b:	ff d2                	call   *%edx
  10363d:	8b 45 dc             	mov    -0x24(%ebp),%eax
  103640:	3b 45 e8             	cmp    -0x18(%ebp),%eax
  103643:	74 0a                	je     10364f <_adSort+0x392>
  103645:	8b 45 f4             	mov    -0xc(%ebp),%eax
  103648:	f7 d8                	neg    %eax
  10364a:	01 45 dc             	add    %eax,-0x24(%ebp)
  10364d:	eb 9c                	jmp    1035eb <_adSort+0x32e>
  10364f:	8b 45 e0             	mov    -0x20(%ebp),%eax
  103652:	89 45 dc             	mov    %eax,-0x24(%ebp)
  103655:	8b 45 f4             	mov    -0xc(%ebp),%eax
  103658:	01 45 e0             	add    %eax,-0x20(%ebp)
  10365b:	e9 7b ff ff ff       	jmp    1035db <_adSort+0x31e>
  103660:	8d 85 dc fe ff ff    	lea    -0x124(%ebp),%eax
  103666:	39 45 ec             	cmp    %eax,-0x14(%ebp)
  103669:	74 1a                	je     103685 <_adSort+0x3c8>
  10366b:	83 6d ec 08          	subl   $0x8,-0x14(%ebp)
  10366f:	8b 45 ec             	mov    -0x14(%ebp),%eax
  103672:	8b 00                	mov    (%eax),%eax
  103674:	89 45 e8             	mov    %eax,-0x18(%ebp)
  103677:	8b 45 ec             	mov    -0x14(%ebp),%eax
  10367a:	8b 40 04             	mov    0x4(%eax),%eax
  10367d:	89 45 e4             	mov    %eax,-0x1c(%ebp)
  103680:	e9 d4 fc ff ff       	jmp    103359 <_adSort+0x9c>
  103685:	8b 45 0c             	mov    0xc(%ebp),%eax
  103688:	8b 55 10             	mov    0x10(%ebp),%edx
  10368b:	8b 75 08             	mov    0x8(%ebp),%esi
  10368e:	89 06                	mov    %eax,(%esi)
  103690:	89 56 04             	mov    %edx,0x4(%esi)
  103693:	8b 45 08             	mov    0x8(%ebp),%eax
  103696:	eb 5c                	jmp    1036f4 <_adSort+0x437>
  103698:	c7 85 c0 fe ff ff 19 	movl   $0x19,-0x140(%ebp)
  10369f:	00 00 00 
  1036a2:	c7 85 c4 fe ff ff a0 	movl   $0x105ca0,-0x13c(%ebp)
  1036a9:	5c 10 00 
  1036ac:	c7 85 c8 fe ff ff 19 	movl   $0x19,-0x138(%ebp)
  1036b3:	00 00 00 
  1036b6:	c7 85 cc fe ff ff c4 	movl   $0x105dc4,-0x134(%ebp)
  1036bd:	5d 10 00 
  1036c0:	c7 44 24 10 07 03 00 	movl   $0x307,0x10(%esp)
  1036c7:	00 
  1036c8:	8b 85 c0 fe ff ff    	mov    -0x140(%ebp),%eax
  1036ce:	8b 95 c4 fe ff ff    	mov    -0x13c(%ebp),%edx
  1036d4:	89 44 24 08          	mov    %eax,0x8(%esp)
  1036d8:	89 54 24 0c          	mov    %edx,0xc(%esp)
  1036dc:	8b 95 c8 fe ff ff    	mov    -0x138(%ebp),%edx
  1036e2:	8b 8d cc fe ff ff    	mov    -0x134(%ebp),%ecx
  1036e8:	89 14 24             	mov    %edx,(%esp)
  1036eb:	89 4c 24 04          	mov    %ecx,0x4(%esp)
  1036ef:	e8 a3 f1 ff ff       	call   102897 <_d_assert_msg>
  1036f4:	81 c4 60 01 00 00    	add    $0x160,%esp
  1036fa:	5b                   	pop    %ebx
  1036fb:	5e                   	pop    %esi
  1036fc:	5d                   	pop    %ebp
  1036fd:	c2 04 00             	ret    $0x4

00103700 <_d_arraycast>:
  103700:	55                   	push   %ebp
  103701:	89 e5                	mov    %esp,%ebp
  103703:	83 ec 48             	sub    $0x48,%esp
  103706:	8b 45 14             	mov    0x14(%ebp),%eax
  103709:	89 45 fc             	mov    %eax,-0x4(%ebp)
  10370c:	8b 45 fc             	mov    -0x4(%ebp),%eax
  10370f:	0f af 45 10          	imul   0x10(%ebp),%eax
  103713:	89 45 f8             	mov    %eax,-0x8(%ebp)
  103716:	8b 45 f8             	mov    -0x8(%ebp),%eax
  103719:	89 45 d4             	mov    %eax,-0x2c(%ebp)
  10371c:	8b 45 d4             	mov    -0x2c(%ebp),%eax
  10371f:	ba 00 00 00 00       	mov    $0x0,%edx
  103724:	f7 75 0c             	divl   0xc(%ebp)
  103727:	89 d0                	mov    %edx,%eax
  103729:	85 c0                	test   %eax,%eax
  10372b:	74 44                	je     103771 <_d_arraycast+0x71>
  10372d:	c7 45 e0 19 00 00 00 	movl   $0x19,-0x20(%ebp)
  103734:	c7 45 e4 a0 5c 10 00 	movl   $0x105ca0,-0x1c(%ebp)
  10373b:	c7 45 e8 17 00 00 00 	movl   $0x17,-0x18(%ebp)
  103742:	c7 45 ec de 5d 10 00 	movl   $0x105dde,-0x14(%ebp)
  103749:	c7 44 24 10 0e 03 00 	movl   $0x30e,0x10(%esp)
  103750:	00 
  103751:	8b 55 e0             	mov    -0x20(%ebp),%edx
  103754:	8b 4d e4             	mov    -0x1c(%ebp),%ecx
  103757:	89 54 24 08          	mov    %edx,0x8(%esp)
  10375b:	89 4c 24 0c          	mov    %ecx,0xc(%esp)
  10375f:	8b 45 e8             	mov    -0x18(%ebp),%eax
  103762:	8b 55 ec             	mov    -0x14(%ebp),%edx
  103765:	89 04 24             	mov    %eax,(%esp)
  103768:	89 54 24 04          	mov    %edx,0x4(%esp)
  10376c:	e8 26 f1 ff ff       	call   102897 <_d_assert_msg>
  103771:	8b 45 f8             	mov    -0x8(%ebp),%eax
  103774:	ba 00 00 00 00       	mov    $0x0,%edx
  103779:	f7 75 0c             	divl   0xc(%ebp)
  10377c:	89 45 fc             	mov    %eax,-0x4(%ebp)
  10377f:	8d 55 14             	lea    0x14(%ebp),%edx
  103782:	8b 45 fc             	mov    -0x4(%ebp),%eax
  103785:	89 02                	mov    %eax,(%edx)
  103787:	8b 45 14             	mov    0x14(%ebp),%eax
  10378a:	8b 55 18             	mov    0x18(%ebp),%edx
  10378d:	8b 4d 08             	mov    0x8(%ebp),%ecx
  103790:	89 01                	mov    %eax,(%ecx)
  103792:	89 51 04             	mov    %edx,0x4(%ecx)
  103795:	8b 45 08             	mov    0x8(%ebp),%eax
  103798:	c9                   	leave  
  103799:	c2 04 00             	ret    $0x4

0010379c <_d_arraycopy>:
  10379c:	55                   	push   %ebp
  10379d:	89 e5                	mov    %esp,%ebp
  10379f:	83 ec 38             	sub    $0x38,%esp
  1037a2:	8b 55 18             	mov    0x18(%ebp),%edx
  1037a5:	8b 45 10             	mov    0x10(%ebp),%eax
  1037a8:	39 c2                	cmp    %eax,%edx
  1037aa:	74 49                	je     1037f5 <_d_arraycopy+0x59>
  1037ac:	c7 45 e0 19 00 00 00 	movl   $0x19,-0x20(%ebp)
  1037b3:	c7 45 e4 a0 5c 10 00 	movl   $0x105ca0,-0x1c(%ebp)
  1037ba:	c7 45 e8 22 00 00 00 	movl   $0x22,-0x18(%ebp)
  1037c1:	c7 45 ec f8 5d 10 00 	movl   $0x105df8,-0x14(%ebp)
  1037c8:	c7 44 24 10 17 03 00 	movl   $0x317,0x10(%esp)
  1037cf:	00 
  1037d0:	8b 45 e0             	mov    -0x20(%ebp),%eax
  1037d3:	8b 55 e4             	mov    -0x1c(%ebp),%edx
  1037d6:	89 44 24 08          	mov    %eax,0x8(%esp)
  1037da:	89 54 24 0c          	mov    %edx,0xc(%esp)
  1037de:	8b 55 e8             	mov    -0x18(%ebp),%edx
  1037e1:	8b 4d ec             	mov    -0x14(%ebp),%ecx
  1037e4:	89 14 24             	mov    %edx,(%esp)
  1037e7:	89 4c 24 04          	mov    %ecx,0x4(%esp)
  1037eb:	e8 a7 f0 ff ff       	call   102897 <_d_assert_msg>
  1037f0:	e9 89 00 00 00       	jmp    10387e <_d_arraycopy+0xe2>
  1037f5:	8b 55 1c             	mov    0x1c(%ebp),%edx
  1037f8:	8b 45 18             	mov    0x18(%ebp),%eax
  1037fb:	0f af 45 0c          	imul   0xc(%ebp),%eax
  1037ff:	01 c2                	add    %eax,%edx
  103801:	8b 45 14             	mov    0x14(%ebp),%eax
  103804:	39 c2                	cmp    %eax,%edx
  103806:	76 13                	jbe    10381b <_d_arraycopy+0x7f>
  103808:	8b 55 14             	mov    0x14(%ebp),%edx
  10380b:	8b 45 10             	mov    0x10(%ebp),%eax
  10380e:	0f af 45 0c          	imul   0xc(%ebp),%eax
  103812:	01 c2                	add    %eax,%edx
  103814:	8b 45 1c             	mov    0x1c(%ebp),%eax
  103817:	39 c2                	cmp    %eax,%edx
  103819:	77 1f                	ja     10383a <_d_arraycopy+0x9e>
  10381b:	8b 45 18             	mov    0x18(%ebp),%eax
  10381e:	0f af 45 0c          	imul   0xc(%ebp),%eax
  103822:	8b 55 14             	mov    0x14(%ebp),%edx
  103825:	8b 4d 1c             	mov    0x1c(%ebp),%ecx
  103828:	89 44 24 08          	mov    %eax,0x8(%esp)
  10382c:	89 54 24 04          	mov    %edx,0x4(%esp)
  103830:	89 0c 24             	mov    %ecx,(%esp)
  103833:	e8 b1 03 00 00       	call   103be9 <memcpy>
  103838:	eb 44                	jmp    10387e <_d_arraycopy+0xe2>
  10383a:	c7 45 f0 19 00 00 00 	movl   $0x19,-0x10(%ebp)
  103841:	c7 45 f4 a0 5c 10 00 	movl   $0x105ca0,-0xc(%ebp)
  103848:	c7 45 f8 16 00 00 00 	movl   $0x16,-0x8(%ebp)
  10384f:	c7 45 fc 1b 5e 10 00 	movl   $0x105e1b,-0x4(%ebp)
  103856:	c7 44 24 10 1b 03 00 	movl   $0x31b,0x10(%esp)
  10385d:	00 
  10385e:	8b 45 f0             	mov    -0x10(%ebp),%eax
  103861:	8b 55 f4             	mov    -0xc(%ebp),%edx
  103864:	89 44 24 08          	mov    %eax,0x8(%esp)
  103868:	89 54 24 0c          	mov    %edx,0xc(%esp)
  10386c:	8b 55 f8             	mov    -0x8(%ebp),%edx
  10386f:	8b 4d fc             	mov    -0x4(%ebp),%ecx
  103872:	89 14 24             	mov    %edx,(%esp)
  103875:	89 4c 24 04          	mov    %ecx,0x4(%esp)
  103879:	e8 19 f0 ff ff       	call   102897 <_d_assert_msg>
  10387e:	8b 45 18             	mov    0x18(%ebp),%eax
  103881:	8b 55 1c             	mov    0x1c(%ebp),%edx
  103884:	8b 4d 08             	mov    0x8(%ebp),%ecx
  103887:	89 01                	mov    %eax,(%ecx)
  103889:	89 51 04             	mov    %edx,0x4(%ecx)
  10388c:	8b 45 08             	mov    0x8(%ebp),%eax
  10388f:	c9                   	leave  
  103890:	c2 04 00             	ret    $0x4

00103893 <_d_array_slice_copy>:
  103893:	55                   	push   %ebp
  103894:	89 e5                	mov    %esp,%ebp
  103896:	83 ec 38             	sub    $0x38,%esp
  103899:	8b 45 0c             	mov    0xc(%ebp),%eax
  10389c:	3b 45 14             	cmp    0x14(%ebp),%eax
  10389f:	74 46                	je     1038e7 <_d_array_slice_copy+0x54>
  1038a1:	c7 45 e0 19 00 00 00 	movl   $0x19,-0x20(%ebp)
  1038a8:	c7 45 e4 a0 5c 10 00 	movl   $0x105ca0,-0x1c(%ebp)
  1038af:	c7 45 e8 22 00 00 00 	movl   $0x22,-0x18(%ebp)
  1038b6:	c7 45 ec f8 5d 10 00 	movl   $0x105df8,-0x14(%ebp)
  1038bd:	c7 44 24 10 22 03 00 	movl   $0x322,0x10(%esp)
  1038c4:	00 
  1038c5:	8b 45 e0             	mov    -0x20(%ebp),%eax
  1038c8:	8b 55 e4             	mov    -0x1c(%ebp),%edx
  1038cb:	89 44 24 08          	mov    %eax,0x8(%esp)
  1038cf:	89 54 24 0c          	mov    %edx,0xc(%esp)
  1038d3:	8b 45 e8             	mov    -0x18(%ebp),%eax
  1038d6:	8b 55 ec             	mov    -0x14(%ebp),%edx
  1038d9:	89 04 24             	mov    %eax,(%esp)
  1038dc:	89 54 24 04          	mov    %edx,0x4(%esp)
  1038e0:	e8 b2 ef ff ff       	call   102897 <_d_assert_msg>
  1038e5:	eb 75                	jmp    10395c <_d_array_slice_copy+0xc9>
  1038e7:	8b 45 0c             	mov    0xc(%ebp),%eax
  1038ea:	03 45 08             	add    0x8(%ebp),%eax
  1038ed:	3b 45 10             	cmp    0x10(%ebp),%eax
  1038f0:	76 0b                	jbe    1038fd <_d_array_slice_copy+0x6a>
  1038f2:	8b 45 14             	mov    0x14(%ebp),%eax
  1038f5:	03 45 10             	add    0x10(%ebp),%eax
  1038f8:	3b 45 08             	cmp    0x8(%ebp),%eax
  1038fb:	77 1b                	ja     103918 <_d_array_slice_copy+0x85>
  1038fd:	8b 45 0c             	mov    0xc(%ebp),%eax
  103900:	89 44 24 08          	mov    %eax,0x8(%esp)
  103904:	8b 45 10             	mov    0x10(%ebp),%eax
  103907:	89 44 24 04          	mov    %eax,0x4(%esp)
  10390b:	8b 45 08             	mov    0x8(%ebp),%eax
  10390e:	89 04 24             	mov    %eax,(%esp)
  103911:	e8 d3 02 00 00       	call   103be9 <memcpy>
  103916:	eb 44                	jmp    10395c <_d_array_slice_copy+0xc9>
  103918:	c7 45 f0 19 00 00 00 	movl   $0x19,-0x10(%ebp)
  10391f:	c7 45 f4 a0 5c 10 00 	movl   $0x105ca0,-0xc(%ebp)
  103926:	c7 45 f8 16 00 00 00 	movl   $0x16,-0x8(%ebp)
  10392d:	c7 45 fc 1b 5e 10 00 	movl   $0x105e1b,-0x4(%ebp)
  103934:	c7 44 24 10 26 03 00 	movl   $0x326,0x10(%esp)
  10393b:	00 
  10393c:	8b 45 f0             	mov    -0x10(%ebp),%eax
  10393f:	8b 55 f4             	mov    -0xc(%ebp),%edx
  103942:	89 44 24 08          	mov    %eax,0x8(%esp)
  103946:	89 54 24 0c          	mov    %edx,0xc(%esp)
  10394a:	8b 45 f8             	mov    -0x8(%ebp),%eax
  10394d:	8b 55 fc             	mov    -0x4(%ebp),%edx
  103950:	89 04 24             	mov    %eax,(%esp)
  103953:	89 54 24 04          	mov    %edx,0x4(%esp)
  103957:	e8 3b ef ff ff       	call   102897 <_d_assert_msg>
  10395c:	c9                   	leave  
  10395d:	c3                   	ret    
	...

00103960 <_D8runtimes6mindrt4util4itoaFAaalZAa>:
  103960:	55                   	push   %ebp
  103961:	89 e5                	mov    %esp,%ebp
  103963:	53                   	push   %ebx
  103964:	81 ec a4 00 00 00    	sub    $0xa4,%esp
  10396a:	8b 45 18             	mov    0x18(%ebp),%eax
  10396d:	89 45 d0             	mov    %eax,-0x30(%ebp)
  103970:	8b 45 1c             	mov    0x1c(%ebp),%eax
  103973:	89 45 d4             	mov    %eax,-0x2c(%ebp)
  103976:	8b 45 0c             	mov    0xc(%ebp),%eax
  103979:	83 e8 01             	sub    $0x1,%eax
  10397c:	89 45 ec             	mov    %eax,-0x14(%ebp)
  10397f:	c7 45 e8 00 00 00 00 	movl   $0x0,-0x18(%ebp)
  103986:	8b 45 d0             	mov    -0x30(%ebp),%eax
  103989:	8b 55 d4             	mov    -0x2c(%ebp),%edx
  10398c:	89 45 e0             	mov    %eax,-0x20(%ebp)
  10398f:	89 55 e4             	mov    %edx,-0x1c(%ebp)
  103992:	c6 45 df 00          	movb   $0x0,-0x21(%ebp)
  103996:	c7 45 d8 0a 00 00 00 	movl   $0xa,-0x28(%ebp)
  10399d:	0f b6 45 14          	movzbl 0x14(%ebp),%eax
  1039a1:	83 f8 64             	cmp    $0x64,%eax
  1039a4:	75 1f                	jne    1039c5 <_D8runtimes6mindrt4util4itoaFAaalZAa+0x65>
  1039a6:	83 7d d4 00          	cmpl   $0x0,-0x2c(%ebp)
  1039aa:	79 19                	jns    1039c5 <_D8runtimes6mindrt4util4itoaFAaalZAa+0x65>
  1039ac:	c6 45 df 01          	movb   $0x1,-0x21(%ebp)
  1039b0:	8b 45 d0             	mov    -0x30(%ebp),%eax
  1039b3:	8b 55 d4             	mov    -0x2c(%ebp),%edx
  1039b6:	f7 d8                	neg    %eax
  1039b8:	83 d2 00             	adc    $0x0,%edx
  1039bb:	f7 da                	neg    %edx
  1039bd:	89 45 e0             	mov    %eax,-0x20(%ebp)
  1039c0:	89 55 e4             	mov    %edx,-0x1c(%ebp)
  1039c3:	eb 10                	jmp    1039d5 <_D8runtimes6mindrt4util4itoaFAaalZAa+0x75>
  1039c5:	0f b6 45 14          	movzbl 0x14(%ebp),%eax
  1039c9:	83 f8 78             	cmp    $0x78,%eax
  1039cc:	75 07                	jne    1039d5 <_D8runtimes6mindrt4util4itoaFAaalZAa+0x75>
  1039ce:	c7 45 d8 10 00 00 00 	movl   $0x10,-0x28(%ebp)
  1039d5:	8b 45 d8             	mov    -0x28(%ebp),%eax
  1039d8:	89 c2                	mov    %eax,%edx
  1039da:	c1 fa 1f             	sar    $0x1f,%edx
  1039dd:	8b 4d e0             	mov    -0x20(%ebp),%ecx
  1039e0:	8b 5d e4             	mov    -0x1c(%ebp),%ebx
  1039e3:	89 44 24 08          	mov    %eax,0x8(%esp)
  1039e7:	89 54 24 0c          	mov    %edx,0xc(%esp)
  1039eb:	89 0c 24             	mov    %ecx,(%esp)
  1039ee:	89 5c 24 04          	mov    %ebx,0x4(%esp)
  1039f2:	e8 c9 06 00 00       	call   1040c0 <__umoddi3>
  1039f7:	89 45 f0             	mov    %eax,-0x10(%ebp)
  1039fa:	8b 45 10             	mov    0x10(%ebp),%eax
  1039fd:	89 85 6c ff ff ff    	mov    %eax,-0x94(%ebp)
  103a03:	8b 55 ec             	mov    -0x14(%ebp),%edx
  103a06:	89 95 74 ff ff ff    	mov    %edx,-0x8c(%ebp)
  103a0c:	8b 45 0c             	mov    0xc(%ebp),%eax
  103a0f:	39 85 74 ff ff ff    	cmp    %eax,-0x8c(%ebp)
  103a15:	0f 92 c0             	setb   %al
  103a18:	83 6d ec 01          	subl   $0x1,-0x14(%ebp)
  103a1c:	84 c0                	test   %al,%al
  103a1e:	74 0e                	je     103a2e <_D8runtimes6mindrt4util4itoaFAaalZAa+0xce>
  103a20:	8b 8d 74 ff ff ff    	mov    -0x8c(%ebp),%ecx
  103a26:	89 8d 70 ff ff ff    	mov    %ecx,-0x90(%ebp)
  103a2c:	eb 34                	jmp    103a62 <_D8runtimes6mindrt4util4itoaFAaalZAa+0x102>
  103a2e:	c7 85 78 ff ff ff 16 	movl   $0x16,-0x88(%ebp)
  103a35:	00 00 00 
  103a38:	c7 85 7c ff ff ff 32 	movl   $0x105e32,-0x84(%ebp)
  103a3f:	5e 10 00 
  103a42:	c7 44 24 08 2f 00 00 	movl   $0x2f,0x8(%esp)
  103a49:	00 
  103a4a:	8b 85 78 ff ff ff    	mov    -0x88(%ebp),%eax
  103a50:	8b 95 7c ff ff ff    	mov    -0x84(%ebp),%edx
  103a56:	89 04 24             	mov    %eax,(%esp)
  103a59:	89 54 24 04          	mov    %edx,0x4(%esp)
  103a5d:	e8 64 ee ff ff       	call   1028c6 <_d_array_bounds>
  103a62:	8b 95 6c ff ff ff    	mov    -0x94(%ebp),%edx
  103a68:	03 95 70 ff ff ff    	add    -0x90(%ebp),%edx
  103a6e:	89 55 84             	mov    %edx,-0x7c(%ebp)
  103a71:	83 7d f0 0a          	cmpl   $0xa,-0x10(%ebp)
  103a75:	7d 0b                	jge    103a82 <_D8runtimes6mindrt4util4itoaFAaalZAa+0x122>
  103a77:	8b 45 f0             	mov    -0x10(%ebp),%eax
  103a7a:	83 c0 30             	add    $0x30,%eax
  103a7d:	88 45 8b             	mov    %al,-0x75(%ebp)
  103a80:	eb 09                	jmp    103a8b <_D8runtimes6mindrt4util4itoaFAaalZAa+0x12b>
  103a82:	8b 45 f0             	mov    -0x10(%ebp),%eax
  103a85:	83 c0 57             	add    $0x57,%eax
  103a88:	88 45 8b             	mov    %al,-0x75(%ebp)
  103a8b:	0f b6 4d 8b          	movzbl -0x75(%ebp),%ecx
  103a8f:	8b 45 84             	mov    -0x7c(%ebp),%eax
  103a92:	88 08                	mov    %cl,(%eax)
  103a94:	8b 45 d8             	mov    -0x28(%ebp),%eax
  103a97:	89 c2                	mov    %eax,%edx
  103a99:	c1 fa 1f             	sar    $0x1f,%edx
  103a9c:	89 44 24 08          	mov    %eax,0x8(%esp)
  103aa0:	89 54 24 0c          	mov    %edx,0xc(%esp)
  103aa4:	8b 45 e0             	mov    -0x20(%ebp),%eax
  103aa7:	8b 55 e4             	mov    -0x1c(%ebp),%edx
  103aaa:	89 04 24             	mov    %eax,(%esp)
  103aad:	89 54 24 04          	mov    %edx,0x4(%esp)
  103ab1:	e8 47 06 00 00       	call   1040fd <__udivdi3>
  103ab6:	89 45 e0             	mov    %eax,-0x20(%ebp)
  103ab9:	89 55 e4             	mov    %edx,-0x1c(%ebp)
  103abc:	8b 55 e4             	mov    -0x1c(%ebp),%edx
  103abf:	8b 45 e0             	mov    -0x20(%ebp),%eax
  103ac2:	09 d0                	or     %edx,%eax
  103ac4:	85 c0                	test   %eax,%eax
  103ac6:	0f 95 c0             	setne  %al
  103ac9:	83 f0 01             	xor    $0x1,%eax
  103acc:	84 c0                	test   %al,%al
  103ace:	0f 84 01 ff ff ff    	je     1039d5 <_D8runtimes6mindrt4util4itoaFAaalZAa+0x75>
  103ad4:	80 7d df 00          	cmpb   $0x0,-0x21(%ebp)
  103ad8:	74 56                	je     103b30 <_D8runtimes6mindrt4util4itoaFAaalZAa+0x1d0>
  103ada:	8b 55 10             	mov    0x10(%ebp),%edx
  103add:	89 55 8c             	mov    %edx,-0x74(%ebp)
  103ae0:	8b 4d ec             	mov    -0x14(%ebp),%ecx
  103ae3:	89 4d 94             	mov    %ecx,-0x6c(%ebp)
  103ae6:	8b 45 0c             	mov    0xc(%ebp),%eax
  103ae9:	39 45 94             	cmp    %eax,-0x6c(%ebp)
  103aec:	0f 92 c0             	setb   %al
  103aef:	83 6d ec 01          	subl   $0x1,-0x14(%ebp)
  103af3:	84 c0                	test   %al,%al
  103af5:	74 08                	je     103aff <_D8runtimes6mindrt4util4itoaFAaalZAa+0x19f>
  103af7:	8b 45 94             	mov    -0x6c(%ebp),%eax
  103afa:	89 45 90             	mov    %eax,-0x70(%ebp)
  103afd:	eb 28                	jmp    103b27 <_D8runtimes6mindrt4util4itoaFAaalZAa+0x1c7>
  103aff:	c7 45 98 16 00 00 00 	movl   $0x16,-0x68(%ebp)
  103b06:	c7 45 9c 32 5e 10 00 	movl   $0x105e32,-0x64(%ebp)
  103b0d:	c7 44 24 08 34 00 00 	movl   $0x34,0x8(%esp)
  103b14:	00 
  103b15:	8b 55 98             	mov    -0x68(%ebp),%edx
  103b18:	8b 4d 9c             	mov    -0x64(%ebp),%ecx
  103b1b:	89 14 24             	mov    %edx,(%esp)
  103b1e:	89 4c 24 04          	mov    %ecx,0x4(%esp)
  103b22:	e8 9f ed ff ff       	call   1028c6 <_d_array_bounds>
  103b27:	8b 45 8c             	mov    -0x74(%ebp),%eax
  103b2a:	03 45 90             	add    -0x70(%ebp),%eax
  103b2d:	c6 00 2d             	movb   $0x2d,(%eax)
  103b30:	8b 45 0c             	mov    0xc(%ebp),%eax
  103b33:	89 45 f4             	mov    %eax,-0xc(%ebp)
  103b36:	8b 45 0c             	mov    0xc(%ebp),%eax
  103b39:	39 45 f4             	cmp    %eax,-0xc(%ebp)
  103b3c:	77 08                	ja     103b46 <_D8runtimes6mindrt4util4itoaFAaalZAa+0x1e6>
  103b3e:	8b 4d f4             	mov    -0xc(%ebp),%ecx
  103b41:	89 4d ac             	mov    %ecx,-0x54(%ebp)
  103b44:	eb 28                	jmp    103b6e <_D8runtimes6mindrt4util4itoaFAaalZAa+0x20e>
  103b46:	c7 45 b0 16 00 00 00 	movl   $0x16,-0x50(%ebp)
  103b4d:	c7 45 b4 32 5e 10 00 	movl   $0x105e32,-0x4c(%ebp)
  103b54:	c7 44 24 08 36 00 00 	movl   $0x36,0x8(%esp)
  103b5b:	00 
  103b5c:	8b 45 b0             	mov    -0x50(%ebp),%eax
  103b5f:	8b 55 b4             	mov    -0x4c(%ebp),%edx
  103b62:	89 04 24             	mov    %eax,(%esp)
  103b65:	89 54 24 04          	mov    %edx,0x4(%esp)
  103b69:	e8 58 ed ff ff       	call   1028c6 <_d_array_bounds>
  103b6e:	8b 45 ec             	mov    -0x14(%ebp),%eax
  103b71:	83 c0 01             	add    $0x1,%eax
  103b74:	89 45 b8             	mov    %eax,-0x48(%ebp)
  103b77:	8b 55 ac             	mov    -0x54(%ebp),%edx
  103b7a:	2b 55 b8             	sub    -0x48(%ebp),%edx
  103b7d:	89 55 bc             	mov    %edx,-0x44(%ebp)
  103b80:	8b 4d 10             	mov    0x10(%ebp),%ecx
  103b83:	89 4d c0             	mov    %ecx,-0x40(%ebp)
  103b86:	8b 45 0c             	mov    0xc(%ebp),%eax
  103b89:	39 45 b8             	cmp    %eax,-0x48(%ebp)
  103b8c:	77 08                	ja     103b96 <_D8runtimes6mindrt4util4itoaFAaalZAa+0x236>
  103b8e:	8b 45 b8             	mov    -0x48(%ebp),%eax
  103b91:	89 45 c4             	mov    %eax,-0x3c(%ebp)
  103b94:	eb 28                	jmp    103bbe <_D8runtimes6mindrt4util4itoaFAaalZAa+0x25e>
  103b96:	c7 45 c8 16 00 00 00 	movl   $0x16,-0x38(%ebp)
  103b9d:	c7 45 cc 32 5e 10 00 	movl   $0x105e32,-0x34(%ebp)
  103ba4:	c7 44 24 08 36 00 00 	movl   $0x36,0x8(%esp)
  103bab:	00 
  103bac:	8b 55 c8             	mov    -0x38(%ebp),%edx
  103baf:	8b 4d cc             	mov    -0x34(%ebp),%ecx
  103bb2:	89 14 24             	mov    %edx,(%esp)
  103bb5:	89 4c 24 04          	mov    %ecx,0x4(%esp)
  103bb9:	e8 08 ed ff ff       	call   1028c6 <_d_array_bounds>
  103bbe:	8b 45 c0             	mov    -0x40(%ebp),%eax
  103bc1:	03 45 c4             	add    -0x3c(%ebp),%eax
  103bc4:	8b 4d bc             	mov    -0x44(%ebp),%ecx
  103bc7:	89 4d a0             	mov    %ecx,-0x60(%ebp)
  103bca:	89 45 a4             	mov    %eax,-0x5c(%ebp)
  103bcd:	8b 45 a0             	mov    -0x60(%ebp),%eax
  103bd0:	8b 55 a4             	mov    -0x5c(%ebp),%edx
  103bd3:	8b 4d 08             	mov    0x8(%ebp),%ecx
  103bd6:	89 01                	mov    %eax,(%ecx)
  103bd8:	89 51 04             	mov    %edx,0x4(%ecx)
  103bdb:	8b 45 08             	mov    0x8(%ebp),%eax
  103bde:	81 c4 a4 00 00 00    	add    $0xa4,%esp
  103be4:	5b                   	pop    %ebx
  103be5:	5d                   	pop    %ebp
  103be6:	c2 04 00             	ret    $0x4

00103be9 <memcpy>:
  103be9:	55                   	push   %ebp
  103bea:	89 e5                	mov    %esp,%ebp
  103bec:	83 ec 10             	sub    $0x10,%esp
  103bef:	8b 45 08             	mov    0x8(%ebp),%eax
  103bf2:	89 45 f8             	mov    %eax,-0x8(%ebp)
  103bf5:	8b 45 0c             	mov    0xc(%ebp),%eax
  103bf8:	89 45 f4             	mov    %eax,-0xc(%ebp)
  103bfb:	8b 45 10             	mov    0x10(%ebp),%eax
  103bfe:	89 45 fc             	mov    %eax,-0x4(%ebp)
  103c01:	83 7d 10 00          	cmpl   $0x0,0x10(%ebp)
  103c05:	0f 95 c0             	setne  %al
  103c08:	83 f0 01             	xor    $0x1,%eax
  103c0b:	84 c0                	test   %al,%al
  103c0d:	75 21                	jne    103c30 <memcpy+0x47>
  103c0f:	8b 45 f4             	mov    -0xc(%ebp),%eax
  103c12:	0f b6 10             	movzbl (%eax),%edx
  103c15:	8b 45 f8             	mov    -0x8(%ebp),%eax
  103c18:	88 10                	mov    %dl,(%eax)
  103c1a:	83 6d 10 01          	subl   $0x1,0x10(%ebp)
  103c1e:	b8 01 00 00 00       	mov    $0x1,%eax
  103c23:	01 45 f8             	add    %eax,-0x8(%ebp)
  103c26:	b8 01 00 00 00       	mov    $0x1,%eax
  103c2b:	01 45 f4             	add    %eax,-0xc(%ebp)
  103c2e:	eb d1                	jmp    103c01 <memcpy+0x18>
  103c30:	8b 45 08             	mov    0x8(%ebp),%eax
  103c33:	c9                   	leave  
  103c34:	c3                   	ret    

00103c35 <memmove>:
  103c35:	55                   	push   %ebp
  103c36:	89 e5                	mov    %esp,%ebp
  103c38:	83 ec 10             	sub    $0x10,%esp
  103c3b:	8b 45 08             	mov    0x8(%ebp),%eax
  103c3e:	89 45 f8             	mov    %eax,-0x8(%ebp)
  103c41:	8b 45 0c             	mov    0xc(%ebp),%eax
  103c44:	89 45 f4             	mov    %eax,-0xc(%ebp)
  103c47:	8b 45 10             	mov    0x10(%ebp),%eax
  103c4a:	89 45 fc             	mov    %eax,-0x4(%ebp)
  103c4d:	83 7d 10 00          	cmpl   $0x0,0x10(%ebp)
  103c51:	0f 95 c0             	setne  %al
  103c54:	83 f0 01             	xor    $0x1,%eax
  103c57:	84 c0                	test   %al,%al
  103c59:	75 21                	jne    103c7c <memmove+0x47>
  103c5b:	8b 45 f4             	mov    -0xc(%ebp),%eax
  103c5e:	0f b6 10             	movzbl (%eax),%edx
  103c61:	8b 45 f8             	mov    -0x8(%ebp),%eax
  103c64:	88 10                	mov    %dl,(%eax)
  103c66:	83 6d 10 01          	subl   $0x1,0x10(%ebp)
  103c6a:	b8 01 00 00 00       	mov    $0x1,%eax
  103c6f:	01 45 f8             	add    %eax,-0x8(%ebp)
  103c72:	b8 01 00 00 00       	mov    $0x1,%eax
  103c77:	01 45 f4             	add    %eax,-0xc(%ebp)
  103c7a:	eb d1                	jmp    103c4d <memmove+0x18>
  103c7c:	8b 45 08             	mov    0x8(%ebp),%eax
  103c7f:	c9                   	leave  
  103c80:	c3                   	ret    

00103c81 <memcmp>:
  103c81:	55                   	push   %ebp
  103c82:	89 e5                	mov    %esp,%ebp
  103c84:	83 ec 14             	sub    $0x14,%esp
  103c87:	8b 45 08             	mov    0x8(%ebp),%eax
  103c8a:	89 45 f8             	mov    %eax,-0x8(%ebp)
  103c8d:	8b 45 0c             	mov    0xc(%ebp),%eax
  103c90:	89 45 f4             	mov    %eax,-0xc(%ebp)
  103c93:	c7 45 fc 00 00 00 00 	movl   $0x0,-0x4(%ebp)
  103c9a:	8b 45 fc             	mov    -0x4(%ebp),%eax
  103c9d:	3b 45 10             	cmp    0x10(%ebp),%eax
  103ca0:	0f 92 c0             	setb   %al
  103ca3:	83 f0 01             	xor    $0x1,%eax
  103ca6:	84 c0                	test   %al,%al
  103ca8:	75 3f                	jne    103ce9 <memcmp+0x68>
  103caa:	8b 45 f8             	mov    -0x8(%ebp),%eax
  103cad:	0f b6 00             	movzbl (%eax),%eax
  103cb0:	0f b6 d0             	movzbl %al,%edx
  103cb3:	8b 45 f4             	mov    -0xc(%ebp),%eax
  103cb6:	0f b6 00             	movzbl (%eax),%eax
  103cb9:	0f b6 c0             	movzbl %al,%eax
  103cbc:	39 c2                	cmp    %eax,%edx
  103cbe:	74 1b                	je     103cdb <memcmp+0x5a>
  103cc0:	8b 45 f8             	mov    -0x8(%ebp),%eax
  103cc3:	0f b6 00             	movzbl (%eax),%eax
  103cc6:	0f b6 d0             	movzbl %al,%edx
  103cc9:	8b 45 f4             	mov    -0xc(%ebp),%eax
  103ccc:	0f b6 00             	movzbl (%eax),%eax
  103ccf:	0f b6 c0             	movzbl %al,%eax
  103cd2:	89 d1                	mov    %edx,%ecx
  103cd4:	29 c1                	sub    %eax,%ecx
  103cd6:	89 4d ec             	mov    %ecx,-0x14(%ebp)
  103cd9:	eb 15                	jmp    103cf0 <memcmp+0x6f>
  103cdb:	83 45 f8 01          	addl   $0x1,-0x8(%ebp)
  103cdf:	83 45 f4 01          	addl   $0x1,-0xc(%ebp)
  103ce3:	83 45 fc 01          	addl   $0x1,-0x4(%ebp)
  103ce7:	eb b1                	jmp    103c9a <memcmp+0x19>
  103ce9:	c7 45 ec 00 00 00 00 	movl   $0x0,-0x14(%ebp)
  103cf0:	8b 45 ec             	mov    -0x14(%ebp),%eax
  103cf3:	c9                   	leave  
  103cf4:	c3                   	ret    

00103cf5 <memset>:
  103cf5:	55                   	push   %ebp
  103cf6:	89 e5                	mov    %esp,%ebp
  103cf8:	83 ec 10             	sub    $0x10,%esp
  103cfb:	8b 45 08             	mov    0x8(%ebp),%eax
  103cfe:	89 45 f8             	mov    %eax,-0x8(%ebp)
  103d01:	c7 45 fc 00 00 00 00 	movl   $0x0,-0x4(%ebp)
  103d08:	8b 45 fc             	mov    -0x4(%ebp),%eax
  103d0b:	3b 45 10             	cmp    0x10(%ebp),%eax
  103d0e:	0f 92 c0             	setb   %al
  103d11:	83 f0 01             	xor    $0x1,%eax
  103d14:	84 c0                	test   %al,%al
  103d16:	75 13                	jne    103d2b <memset+0x36>
  103d18:	8b 45 fc             	mov    -0x4(%ebp),%eax
  103d1b:	89 c2                	mov    %eax,%edx
  103d1d:	03 55 f8             	add    -0x8(%ebp),%edx
  103d20:	8b 45 0c             	mov    0xc(%ebp),%eax
  103d23:	88 02                	mov    %al,(%edx)
  103d25:	83 45 fc 01          	addl   $0x1,-0x4(%ebp)
  103d29:	eb dd                	jmp    103d08 <memset+0x13>
  103d2b:	c9                   	leave  
  103d2c:	c3                   	ret    

00103d2d <_D8runtimes6mindrt4util6strlenFPaZk>:
  103d2d:	55                   	push   %ebp
  103d2e:	89 e5                	mov    %esp,%ebp
  103d30:	83 ec 10             	sub    $0x10,%esp
  103d33:	c7 45 fc 00 00 00 00 	movl   $0x0,-0x4(%ebp)
  103d3a:	8b 45 08             	mov    0x8(%ebp),%eax
  103d3d:	0f b6 00             	movzbl (%eax),%eax
  103d40:	0f b6 c0             	movzbl %al,%eax
  103d43:	85 c0                	test   %eax,%eax
  103d45:	0f 95 c0             	setne  %al
  103d48:	83 f0 01             	xor    $0x1,%eax
  103d4b:	84 c0                	test   %al,%al
  103d4d:	75 0e                	jne    103d5d <_D8runtimes6mindrt4util6strlenFPaZk+0x30>
  103d4f:	83 45 fc 01          	addl   $0x1,-0x4(%ebp)
  103d53:	b8 01 00 00 00       	mov    $0x1,%eax
  103d58:	01 45 08             	add    %eax,0x8(%ebp)
  103d5b:	eb dd                	jmp    103d3a <_D8runtimes6mindrt4util6strlenFPaZk+0xd>
  103d5d:	8b 45 fc             	mov    -0x4(%ebp),%eax
  103d60:	c9                   	leave  
  103d61:	c3                   	ret    

00103d62 <_D8runtimes6mindrt4util8toStringFPaZAa>:
  103d62:	55                   	push   %ebp
  103d63:	89 e5                	mov    %esp,%ebp
  103d65:	53                   	push   %ebx
  103d66:	83 ec 04             	sub    $0x4,%esp
  103d69:	8b 5d 08             	mov    0x8(%ebp),%ebx
  103d6c:	8b 45 0c             	mov    0xc(%ebp),%eax
  103d6f:	89 04 24             	mov    %eax,(%esp)
  103d72:	e8 b6 ff ff ff       	call   103d2d <_D8runtimes6mindrt4util6strlenFPaZk>
  103d77:	89 03                	mov    %eax,(%ebx)
  103d79:	8b 45 0c             	mov    0xc(%ebp),%eax
  103d7c:	89 43 04             	mov    %eax,0x4(%ebx)
  103d7f:	89 d8                	mov    %ebx,%eax
  103d81:	83 c4 04             	add    $0x4,%esp
  103d84:	5b                   	pop    %ebx
  103d85:	5d                   	pop    %ebp
  103d86:	c2 04 00             	ret    $0x4

00103d89 <_D8runtimes6mindrt4util5isnanFeZi>:
  103d89:	55                   	push   %ebp
  103d8a:	89 e5                	mov    %esp,%ebp
  103d8c:	53                   	push   %ebx
  103d8d:	83 ec 14             	sub    $0x14,%esp
  103d90:	8d 45 08             	lea    0x8(%ebp),%eax
  103d93:	89 45 f8             	mov    %eax,-0x8(%ebp)
  103d96:	8d 45 08             	lea    0x8(%ebp),%eax
  103d99:	89 45 f4             	mov    %eax,-0xc(%ebp)
  103d9c:	8b 45 f8             	mov    -0x8(%ebp),%eax
  103d9f:	83 c0 08             	add    $0x8,%eax
  103da2:	0f b7 00             	movzwl (%eax),%eax
  103da5:	0f b7 c0             	movzwl %ax,%eax
  103da8:	25 ff 7f 00 00       	and    $0x7fff,%eax
  103dad:	3d ff 7f 00 00       	cmp    $0x7fff,%eax
  103db2:	75 21                	jne    103dd5 <_D8runtimes6mindrt4util5isnanFeZi+0x4c>
  103db4:	8b 45 f4             	mov    -0xc(%ebp),%eax
  103db7:	8b 08                	mov    (%eax),%ecx
  103db9:	8b 58 04             	mov    0x4(%eax),%ebx
  103dbc:	89 c8                	mov    %ecx,%eax
  103dbe:	80 e4 ff             	and    $0xff,%ah
  103dc1:	89 da                	mov    %ebx,%edx
  103dc3:	81 e2 ff ff ff 7f    	and    $0x7fffffff,%edx
  103dc9:	09 d0                	or     %edx,%eax
  103dcb:	85 c0                	test   %eax,%eax
  103dcd:	74 06                	je     103dd5 <_D8runtimes6mindrt4util5isnanFeZi+0x4c>
  103dcf:	c6 45 eb 01          	movb   $0x1,-0x15(%ebp)
  103dd3:	eb 04                	jmp    103dd9 <_D8runtimes6mindrt4util5isnanFeZi+0x50>
  103dd5:	c6 45 eb 00          	movb   $0x0,-0x15(%ebp)
  103dd9:	0f b6 45 eb          	movzbl -0x15(%ebp),%eax
  103ddd:	83 c4 14             	add    $0x14,%esp
  103de0:	5b                   	pop    %ebx
  103de1:	5d                   	pop    %ebp
  103de2:	c3                   	ret    
	...

00103de4 <abort>:
  103de4:	55                   	push   %ebp
  103de5:	89 e5                	mov    %esp,%ebp
  103de7:	53                   	push   %ebx
  103de8:	83 ec 14             	sub    $0x14,%esp
  103deb:	b9 18 00 00 00       	mov    $0x18,%ecx
  103df0:	bb 4c 5e 10 00       	mov    $0x105e4c,%ebx
  103df5:	b8 2d 00 00 00       	mov    $0x2d,%eax
  103dfa:	ba 68 5e 10 00       	mov    $0x105e68,%edx
  103dff:	c7 44 24 10 14 00 00 	movl   $0x14,0x10(%esp)
  103e06:	00 
  103e07:	89 4c 24 08          	mov    %ecx,0x8(%esp)
  103e0b:	89 5c 24 0c          	mov    %ebx,0xc(%esp)
  103e0f:	89 04 24             	mov    %eax,(%esp)
  103e12:	89 54 24 04          	mov    %edx,0x4(%esp)
  103e16:	e8 7c ea ff ff       	call   102897 <_d_assert_msg>
  103e1b:	83 c4 14             	add    $0x14,%esp
  103e1e:	5b                   	pop    %ebx
  103e1f:	5d                   	pop    %ebp
  103e20:	c3                   	ret    

00103e21 <rt_isHalting>:
  103e21:	55                   	push   %ebp
  103e22:	89 e5                	mov    %esp,%ebp
  103e24:	53                   	push   %ebx
  103e25:	83 ec 24             	sub    $0x24,%esp
  103e28:	b9 18 00 00 00       	mov    $0x18,%ecx
  103e2d:	bb 4c 5e 10 00       	mov    $0x105e4c,%ebx
  103e32:	b8 34 00 00 00       	mov    $0x34,%eax
  103e37:	ba 98 5e 10 00       	mov    $0x105e98,%edx
  103e3c:	c7 44 24 10 15 00 00 	movl   $0x15,0x10(%esp)
  103e43:	00 
  103e44:	89 4c 24 08          	mov    %ecx,0x8(%esp)
  103e48:	89 5c 24 0c          	mov    %ebx,0xc(%esp)
  103e4c:	89 04 24             	mov    %eax,(%esp)
  103e4f:	89 54 24 04          	mov    %edx,0x4(%esp)
  103e53:	e8 3f ea ff ff       	call   102897 <_d_assert_msg>
  103e58:	83 c4 24             	add    $0x24,%esp
  103e5b:	5b                   	pop    %ebx
  103e5c:	5d                   	pop    %ebp
  103e5d:	c3                   	ret    

00103e5e <runModuleUnitTests>:
  103e5e:	55                   	push   %ebp
  103e5f:	89 e5                	mov    %esp,%ebp
  103e61:	53                   	push   %ebx
  103e62:	83 ec 24             	sub    $0x24,%esp
  103e65:	b9 18 00 00 00       	mov    $0x18,%ecx
  103e6a:	bb 4c 5e 10 00       	mov    $0x105e4c,%ebx
  103e6f:	b8 3a 00 00 00       	mov    $0x3a,%eax
  103e74:	ba d0 5e 10 00       	mov    $0x105ed0,%edx
  103e79:	c7 44 24 10 16 00 00 	movl   $0x16,0x10(%esp)
  103e80:	00 
  103e81:	89 4c 24 08          	mov    %ecx,0x8(%esp)
  103e85:	89 5c 24 0c          	mov    %ebx,0xc(%esp)
  103e89:	89 04 24             	mov    %eax,(%esp)
  103e8c:	89 54 24 04          	mov    %edx,0x4(%esp)
  103e90:	e8 02 ea ff ff       	call   102897 <_d_assert_msg>
  103e95:	83 c4 24             	add    $0x24,%esp
  103e98:	5b                   	pop    %ebx
  103e99:	5d                   	pop    %ebp
  103e9a:	c3                   	ret    

00103e9b <_d_monitordelete>:
  103e9b:	55                   	push   %ebp
  103e9c:	89 e5                	mov    %esp,%ebp
  103e9e:	53                   	push   %ebx
  103e9f:	83 ec 14             	sub    $0x14,%esp
  103ea2:	b9 18 00 00 00       	mov    $0x18,%ecx
  103ea7:	bb 4c 5e 10 00       	mov    $0x105e4c,%ebx
  103eac:	b8 51 00 00 00       	mov    $0x51,%eax
  103eb1:	ba 0c 5f 10 00       	mov    $0x105f0c,%edx
  103eb6:	c7 44 24 10 17 00 00 	movl   $0x17,0x10(%esp)
  103ebd:	00 
  103ebe:	89 4c 24 08          	mov    %ecx,0x8(%esp)
  103ec2:	89 5c 24 0c          	mov    %ebx,0xc(%esp)
  103ec6:	89 04 24             	mov    %eax,(%esp)
  103ec9:	89 54 24 04          	mov    %edx,0x4(%esp)
  103ecd:	e8 c5 e9 ff ff       	call   102897 <_d_assert_msg>
  103ed2:	83 c4 14             	add    $0x14,%esp
  103ed5:	5b                   	pop    %ebx
  103ed6:	5d                   	pop    %ebp
  103ed7:	c3                   	ret    

00103ed8 <alloca>:
  103ed8:	55                   	push   %ebp
  103ed9:	89 e5                	mov    %esp,%ebp
  103edb:	53                   	push   %ebx
  103edc:	83 ec 24             	sub    $0x24,%esp
  103edf:	b9 18 00 00 00       	mov    $0x18,%ecx
  103ee4:	bb 4c 5e 10 00       	mov    $0x105e4c,%ebx
  103ee9:	b8 34 00 00 00       	mov    $0x34,%eax
  103eee:	ba 60 5f 10 00       	mov    $0x105f60,%edx
  103ef3:	c7 44 24 10 18 00 00 	movl   $0x18,0x10(%esp)
  103efa:	00 
  103efb:	89 4c 24 08          	mov    %ecx,0x8(%esp)
  103eff:	89 5c 24 0c          	mov    %ebx,0xc(%esp)
  103f03:	89 04 24             	mov    %eax,(%esp)
  103f06:	89 54 24 04          	mov    %edx,0x4(%esp)
  103f0a:	e8 88 e9 ff ff       	call   102897 <_d_assert_msg>
  103f0f:	83 c4 24             	add    $0x24,%esp
  103f12:	5b                   	pop    %ebx
  103f13:	5d                   	pop    %ebp
  103f14:	c3                   	ret    

00103f15 <_D9invariant12_d_invariantFC6ObjectZv>:
  103f15:	55                   	push   %ebp
  103f16:	89 e5                	mov    %esp,%ebp
  103f18:	53                   	push   %ebx
  103f19:	83 ec 14             	sub    $0x14,%esp
  103f1c:	b9 18 00 00 00       	mov    $0x18,%ecx
  103f21:	bb 4c 5e 10 00       	mov    $0x105e4c,%ebx
  103f26:	b8 4d 00 00 00       	mov    $0x4d,%eax
  103f2b:	ba 98 5f 10 00       	mov    $0x105f98,%edx
  103f30:	c7 44 24 10 19 00 00 	movl   $0x19,0x10(%esp)
  103f37:	00 
  103f38:	89 4c 24 08          	mov    %ecx,0x8(%esp)
  103f3c:	89 5c 24 0c          	mov    %ebx,0xc(%esp)
  103f40:	89 04 24             	mov    %eax,(%esp)
  103f43:	89 54 24 04          	mov    %edx,0x4(%esp)
  103f47:	e8 4b e9 ff ff       	call   102897 <_d_assert_msg>
  103f4c:	83 c4 14             	add    $0x14,%esp
  103f4f:	5b                   	pop    %ebx
  103f50:	5d                   	pop    %ebp
  103f51:	c3                   	ret    

00103f52 <_D15TypeInfo_Struct6__vtblZ>:
  103f52:	55                   	push   %ebp
  103f53:	89 e5                	mov    %esp,%ebp
  103f55:	53                   	push   %ebx
  103f56:	83 ec 14             	sub    $0x14,%esp
  103f59:	b9 18 00 00 00       	mov    $0x18,%ecx
  103f5e:	bb 4c 5e 10 00       	mov    $0x105e4c,%ebx
  103f63:	b8 43 00 00 00       	mov    $0x43,%eax
  103f68:	ba e8 5f 10 00       	mov    $0x105fe8,%edx
  103f6d:	c7 44 24 10 1a 00 00 	movl   $0x1a,0x10(%esp)
  103f74:	00 
  103f75:	89 4c 24 08          	mov    %ecx,0x8(%esp)
  103f79:	89 5c 24 0c          	mov    %ebx,0xc(%esp)
  103f7d:	89 04 24             	mov    %eax,(%esp)
  103f80:	89 54 24 04          	mov    %edx,0x4(%esp)
  103f84:	e8 0e e9 ff ff       	call   102897 <_d_assert_msg>
  103f89:	83 c4 14             	add    $0x14,%esp
  103f8c:	5b                   	pop    %ebx
  103f8d:	5d                   	pop    %ebp
  103f8e:	c3                   	ret    

00103f8f <_D17TypeInfo_Delegate6__vtblZ>:
  103f8f:	55                   	push   %ebp
  103f90:	89 e5                	mov    %esp,%ebp
  103f92:	53                   	push   %ebx
  103f93:	83 ec 14             	sub    $0x14,%esp
  103f96:	b9 18 00 00 00       	mov    $0x18,%ecx
  103f9b:	bb 4c 5e 10 00       	mov    $0x105e4c,%ebx
  103fa0:	b8 45 00 00 00       	mov    $0x45,%eax
  103fa5:	ba 2c 60 10 00       	mov    $0x10602c,%edx
  103faa:	c7 44 24 10 1b 00 00 	movl   $0x1b,0x10(%esp)
  103fb1:	00 
  103fb2:	89 4c 24 08          	mov    %ecx,0x8(%esp)
  103fb6:	89 5c 24 0c          	mov    %ebx,0xc(%esp)
  103fba:	89 04 24             	mov    %eax,(%esp)
  103fbd:	89 54 24 04          	mov    %edx,0x4(%esp)
  103fc1:	e8 d1 e8 ff ff       	call   102897 <_d_assert_msg>
  103fc6:	83 c4 14             	add    $0x14,%esp
  103fc9:	5b                   	pop    %ebx
  103fca:	5d                   	pop    %ebp
  103fcb:	c3                   	ret    

00103fcc <_D16TypeInfo_Typedef6__vtblZ>:
  103fcc:	55                   	push   %ebp
  103fcd:	89 e5                	mov    %esp,%ebp
  103fcf:	53                   	push   %ebx
  103fd0:	83 ec 14             	sub    $0x14,%esp
  103fd3:	b9 18 00 00 00       	mov    $0x18,%ecx
  103fd8:	bb 4c 5e 10 00       	mov    $0x105e4c,%ebx
  103fdd:	b8 44 00 00 00       	mov    $0x44,%eax
  103fe2:	ba 74 60 10 00       	mov    $0x106074,%edx
  103fe7:	c7 44 24 10 1c 00 00 	movl   $0x1c,0x10(%esp)
  103fee:	00 
  103fef:	89 4c 24 08          	mov    %ecx,0x8(%esp)
  103ff3:	89 5c 24 0c          	mov    %ebx,0xc(%esp)
  103ff7:	89 04 24             	mov    %eax,(%esp)
  103ffa:	89 54 24 04          	mov    %edx,0x4(%esp)
  103ffe:	e8 94 e8 ff ff       	call   102897 <_d_assert_msg>
  104003:	83 c4 14             	add    $0x14,%esp
  104006:	5b                   	pop    %ebx
  104007:	5d                   	pop    %ebp
  104008:	c3                   	ret    

00104009 <_D10TypeInfo_i6__initZ>:
  104009:	55                   	push   %ebp
  10400a:	89 e5                	mov    %esp,%ebp
  10400c:	53                   	push   %ebx
  10400d:	83 ec 14             	sub    $0x14,%esp
  104010:	b9 18 00 00 00       	mov    $0x18,%ecx
  104015:	bb 4c 5e 10 00       	mov    $0x105e4c,%ebx
  10401a:	b8 3e 00 00 00       	mov    $0x3e,%eax
  10401f:	ba bc 60 10 00       	mov    $0x1060bc,%edx
  104024:	c7 44 24 10 1d 00 00 	movl   $0x1d,0x10(%esp)
  10402b:	00 
  10402c:	89 4c 24 08          	mov    %ecx,0x8(%esp)
  104030:	89 5c 24 0c          	mov    %ebx,0xc(%esp)
  104034:	89 04 24             	mov    %eax,(%esp)
  104037:	89 54 24 04          	mov    %edx,0x4(%esp)
  10403b:	e8 57 e8 ff ff       	call   102897 <_d_assert_msg>
  104040:	83 c4 14             	add    $0x14,%esp
  104043:	5b                   	pop    %ebx
  104044:	5d                   	pop    %ebp
  104045:	c3                   	ret    

00104046 <_D13TypeInfo_Enum6__vtblZ>:
  104046:	55                   	push   %ebp
  104047:	89 e5                	mov    %esp,%ebp
  104049:	53                   	push   %ebx
  10404a:	83 ec 14             	sub    $0x14,%esp
  10404d:	b9 18 00 00 00       	mov    $0x18,%ecx
  104052:	bb 4c 5e 10 00       	mov    $0x105e4c,%ebx
  104057:	b8 41 00 00 00       	mov    $0x41,%eax
  10405c:	ba fc 60 10 00       	mov    $0x1060fc,%edx
  104061:	c7 44 24 10 1e 00 00 	movl   $0x1e,0x10(%esp)
  104068:	00 
  104069:	89 4c 24 08          	mov    %ecx,0x8(%esp)
  10406d:	89 5c 24 0c          	mov    %ebx,0xc(%esp)
  104071:	89 04 24             	mov    %eax,(%esp)
  104074:	89 54 24 04          	mov    %edx,0x4(%esp)
  104078:	e8 1a e8 ff ff       	call   102897 <_d_assert_msg>
  10407d:	83 c4 14             	add    $0x14,%esp
  104080:	5b                   	pop    %ebx
  104081:	5d                   	pop    %ebp
  104082:	c3                   	ret    

00104083 <_D10TypeInfo_k6__initZ>:
  104083:	55                   	push   %ebp
  104084:	89 e5                	mov    %esp,%ebp
  104086:	53                   	push   %ebx
  104087:	83 ec 14             	sub    $0x14,%esp
  10408a:	b9 18 00 00 00       	mov    $0x18,%ecx
  10408f:	bb 4c 5e 10 00       	mov    $0x105e4c,%ebx
  104094:	b8 3e 00 00 00       	mov    $0x3e,%eax
  104099:	ba 40 61 10 00       	mov    $0x106140,%edx
  10409e:	c7 44 24 10 1f 00 00 	movl   $0x1f,0x10(%esp)
  1040a5:	00 
  1040a6:	89 4c 24 08          	mov    %ecx,0x8(%esp)
  1040aa:	89 5c 24 0c          	mov    %ebx,0xc(%esp)
  1040ae:	89 04 24             	mov    %eax,(%esp)
  1040b1:	89 54 24 04          	mov    %edx,0x4(%esp)
  1040b5:	e8 dd e7 ff ff       	call   102897 <_d_assert_msg>
  1040ba:	83 c4 14             	add    $0x14,%esp
  1040bd:	5b                   	pop    %ebx
  1040be:	5d                   	pop    %ebp
  1040bf:	c3                   	ret    

001040c0 <__umoddi3>:
  1040c0:	55                   	push   %ebp
  1040c1:	89 e5                	mov    %esp,%ebp
  1040c3:	53                   	push   %ebx
  1040c4:	83 ec 14             	sub    $0x14,%esp
  1040c7:	b9 18 00 00 00       	mov    $0x18,%ecx
  1040cc:	bb 4c 5e 10 00       	mov    $0x105e4c,%ebx
  1040d1:	b8 31 00 00 00       	mov    $0x31,%eax
  1040d6:	ba 80 61 10 00       	mov    $0x106180,%edx
  1040db:	c7 44 24 10 20 00 00 	movl   $0x20,0x10(%esp)
  1040e2:	00 
  1040e3:	89 4c 24 08          	mov    %ecx,0x8(%esp)
  1040e7:	89 5c 24 0c          	mov    %ebx,0xc(%esp)
  1040eb:	89 04 24             	mov    %eax,(%esp)
  1040ee:	89 54 24 04          	mov    %edx,0x4(%esp)
  1040f2:	e8 a0 e7 ff ff       	call   102897 <_d_assert_msg>
  1040f7:	83 c4 14             	add    $0x14,%esp
  1040fa:	5b                   	pop    %ebx
  1040fb:	5d                   	pop    %ebp
  1040fc:	c3                   	ret    

001040fd <__udivdi3>:
  1040fd:	55                   	push   %ebp
  1040fe:	89 e5                	mov    %esp,%ebp
  104100:	53                   	push   %ebx
  104101:	83 ec 14             	sub    $0x14,%esp
  104104:	b9 18 00 00 00       	mov    $0x18,%ecx
  104109:	bb 4c 5e 10 00       	mov    $0x105e4c,%ebx
  10410e:	b8 31 00 00 00       	mov    $0x31,%eax
  104113:	ba b4 61 10 00       	mov    $0x1061b4,%edx
  104118:	c7 44 24 10 21 00 00 	movl   $0x21,0x10(%esp)
  10411f:	00 
  104120:	89 4c 24 08          	mov    %ecx,0x8(%esp)
  104124:	89 5c 24 0c          	mov    %ebx,0xc(%esp)
  104128:	89 04 24             	mov    %eax,(%esp)
  10412b:	89 54 24 04          	mov    %edx,0x4(%esp)
  10412f:	e8 63 e7 ff ff       	call   102897 <_d_assert_msg>
  104134:	83 c4 14             	add    $0x14,%esp
  104137:	5b                   	pop    %ebx
  104138:	5d                   	pop    %ebp
  104139:	c3                   	ret    

0010413a <_D10TypeInfo_v6__initZ>:
  10413a:	55                   	push   %ebp
  10413b:	89 e5                	mov    %esp,%ebp
  10413d:	53                   	push   %ebx
  10413e:	83 ec 14             	sub    $0x14,%esp
  104141:	b9 18 00 00 00       	mov    $0x18,%ecx
  104146:	bb 4c 5e 10 00       	mov    $0x105e4c,%ebx
  10414b:	b8 3e 00 00 00       	mov    $0x3e,%eax
  104150:	ba e8 61 10 00       	mov    $0x1061e8,%edx
  104155:	c7 44 24 10 22 00 00 	movl   $0x22,0x10(%esp)
  10415c:	00 
  10415d:	89 4c 24 08          	mov    %ecx,0x8(%esp)
  104161:	89 5c 24 0c          	mov    %ebx,0xc(%esp)
  104165:	89 04 24             	mov    %eax,(%esp)
  104168:	89 54 24 04          	mov    %edx,0x4(%esp)
  10416c:	e8 26 e7 ff ff       	call   102897 <_d_assert_msg>
  104171:	83 c4 14             	add    $0x14,%esp
  104174:	5b                   	pop    %ebx
  104175:	5d                   	pop    %ebp
  104176:	c3                   	ret    

00104177 <_D16TypeInfo_Pointer6__vtblZ>:
  104177:	55                   	push   %ebp
  104178:	89 e5                	mov    %esp,%ebp
  10417a:	53                   	push   %ebx
  10417b:	83 ec 14             	sub    $0x14,%esp
  10417e:	b9 18 00 00 00       	mov    $0x18,%ecx
  104183:	bb 4c 5e 10 00       	mov    $0x105e4c,%ebx
  104188:	b8 44 00 00 00       	mov    $0x44,%eax
  10418d:	ba 28 62 10 00       	mov    $0x106228,%edx
  104192:	c7 44 24 10 23 00 00 	movl   $0x23,0x10(%esp)
  104199:	00 
  10419a:	89 4c 24 08          	mov    %ecx,0x8(%esp)
  10419e:	89 5c 24 0c          	mov    %ebx,0xc(%esp)
  1041a2:	89 04 24             	mov    %eax,(%esp)
  1041a5:	89 54 24 04          	mov    %edx,0x4(%esp)
  1041a9:	e8 e9 e6 ff ff       	call   102897 <_d_assert_msg>
  1041ae:	83 c4 14             	add    $0x14,%esp
  1041b1:	5b                   	pop    %ebx
  1041b2:	5d                   	pop    %ebp
  1041b3:	c3                   	ret    

001041b4 <_D17TypeInfo_Function6__vtblZ>:
  1041b4:	55                   	push   %ebp
  1041b5:	89 e5                	mov    %esp,%ebp
  1041b7:	53                   	push   %ebx
  1041b8:	83 ec 14             	sub    $0x14,%esp
  1041bb:	b9 18 00 00 00       	mov    $0x18,%ecx
  1041c0:	bb 4c 5e 10 00       	mov    $0x105e4c,%ebx
  1041c5:	b8 45 00 00 00       	mov    $0x45,%eax
  1041ca:	ba 70 62 10 00       	mov    $0x106270,%edx
  1041cf:	c7 44 24 10 24 00 00 	movl   $0x24,0x10(%esp)
  1041d6:	00 
  1041d7:	89 4c 24 08          	mov    %ecx,0x8(%esp)
  1041db:	89 5c 24 0c          	mov    %ebx,0xc(%esp)
  1041df:	89 04 24             	mov    %eax,(%esp)
  1041e2:	89 54 24 04          	mov    %edx,0x4(%esp)
  1041e6:	e8 ac e6 ff ff       	call   102897 <_d_assert_msg>
  1041eb:	83 c4 14             	add    $0x14,%esp
  1041ee:	5b                   	pop    %ebx
  1041ef:	5d                   	pop    %ebp
  1041f0:	c3                   	ret    

001041f1 <_d_allocclass>:
  1041f1:	55                   	push   %ebp
  1041f2:	89 e5                	mov    %esp,%ebp
  1041f4:	53                   	push   %ebx
  1041f5:	83 ec 24             	sub    $0x24,%esp
  1041f8:	b9 18 00 00 00       	mov    $0x18,%ecx
  1041fd:	bb 4c 5e 10 00       	mov    $0x105e4c,%ebx
  104202:	b8 43 00 00 00       	mov    $0x43,%eax
  104207:	ba b8 62 10 00       	mov    $0x1062b8,%edx
  10420c:	c7 44 24 10 2a 00 00 	movl   $0x2a,0x10(%esp)
  104213:	00 
  104214:	89 4c 24 08          	mov    %ecx,0x8(%esp)
  104218:	89 5c 24 0c          	mov    %ebx,0xc(%esp)
  10421c:	89 04 24             	mov    %eax,(%esp)
  10421f:	89 54 24 04          	mov    %edx,0x4(%esp)
  104223:	e8 6f e6 ff ff       	call   102897 <_d_assert_msg>
  104228:	83 c4 24             	add    $0x24,%esp
  10422b:	5b                   	pop    %ebx
  10422c:	5d                   	pop    %ebp
  10422d:	c3                   	ret    

0010422e <_d_newclass>:
  10422e:	55                   	push   %ebp
  10422f:	89 e5                	mov    %esp,%ebp
  104231:	53                   	push   %ebx
  104232:	83 ec 24             	sub    $0x24,%esp
  104235:	b9 18 00 00 00       	mov    $0x18,%ecx
  10423a:	bb 4c 5e 10 00       	mov    $0x105e4c,%ebx
  10423f:	b8 41 00 00 00       	mov    $0x41,%eax
  104244:	ba fc 62 10 00       	mov    $0x1062fc,%edx
  104249:	c7 44 24 10 2b 00 00 	movl   $0x2b,0x10(%esp)
  104250:	00 
  104251:	89 4c 24 08          	mov    %ecx,0x8(%esp)
  104255:	89 5c 24 0c          	mov    %ebx,0xc(%esp)
  104259:	89 04 24             	mov    %eax,(%esp)
  10425c:	89 54 24 04          	mov    %edx,0x4(%esp)
  104260:	e8 32 e6 ff ff       	call   102897 <_d_assert_msg>
  104265:	83 c4 24             	add    $0x24,%esp
  104268:	5b                   	pop    %ebx
  104269:	5d                   	pop    %ebp
  10426a:	c3                   	ret    

0010426b <_d_delinterface>:
  10426b:	55                   	push   %ebp
  10426c:	89 e5                	mov    %esp,%ebp
  10426e:	53                   	push   %ebx
  10426f:	83 ec 14             	sub    $0x14,%esp
  104272:	b9 18 00 00 00       	mov    $0x18,%ecx
  104277:	bb 4c 5e 10 00       	mov    $0x105e4c,%ebx
  10427c:	b8 3f 00 00 00       	mov    $0x3f,%eax
  104281:	ba 40 63 10 00       	mov    $0x106340,%edx
  104286:	c7 44 24 10 2c 00 00 	movl   $0x2c,0x10(%esp)
  10428d:	00 
  10428e:	89 4c 24 08          	mov    %ecx,0x8(%esp)
  104292:	89 5c 24 0c          	mov    %ebx,0xc(%esp)
  104296:	89 04 24             	mov    %eax,(%esp)
  104299:	89 54 24 04          	mov    %edx,0x4(%esp)
  10429d:	e8 f5 e5 ff ff       	call   102897 <_d_assert_msg>
  1042a2:	83 c4 14             	add    $0x14,%esp
  1042a5:	5b                   	pop    %ebx
  1042a6:	5d                   	pop    %ebp
  1042a7:	c3                   	ret    

001042a8 <_d_delclass>:
  1042a8:	55                   	push   %ebp
  1042a9:	89 e5                	mov    %esp,%ebp
  1042ab:	53                   	push   %ebx
  1042ac:	83 ec 14             	sub    $0x14,%esp
  1042af:	b9 18 00 00 00       	mov    $0x18,%ecx
  1042b4:	bb 4c 5e 10 00       	mov    $0x105e4c,%ebx
  1042b9:	b8 3c 00 00 00       	mov    $0x3c,%eax
  1042be:	ba 80 63 10 00       	mov    $0x106380,%edx
  1042c3:	c7 44 24 10 2d 00 00 	movl   $0x2d,0x10(%esp)
  1042ca:	00 
  1042cb:	89 4c 24 08          	mov    %ecx,0x8(%esp)
  1042cf:	89 5c 24 0c          	mov    %ebx,0xc(%esp)
  1042d3:	89 04 24             	mov    %eax,(%esp)
  1042d6:	89 54 24 04          	mov    %edx,0x4(%esp)
  1042da:	e8 b8 e5 ff ff       	call   102897 <_d_assert_msg>
  1042df:	83 c4 14             	add    $0x14,%esp
  1042e2:	5b                   	pop    %ebx
  1042e3:	5d                   	pop    %ebp
  1042e4:	c3                   	ret    

001042e5 <_d_newarrayT>:
  1042e5:	55                   	push   %ebp
  1042e6:	89 e5                	mov    %esp,%ebp
  1042e8:	53                   	push   %ebx
  1042e9:	83 ec 14             	sub    $0x14,%esp
  1042ec:	b9 18 00 00 00       	mov    $0x18,%ecx
  1042f1:	bb 4c 5e 10 00       	mov    $0x105e4c,%ebx
  1042f6:	b8 4f 00 00 00       	mov    $0x4f,%eax
  1042fb:	ba c0 63 10 00       	mov    $0x1063c0,%edx
  104300:	c7 44 24 10 2e 00 00 	movl   $0x2e,0x10(%esp)
  104307:	00 
  104308:	89 4c 24 08          	mov    %ecx,0x8(%esp)
  10430c:	89 5c 24 0c          	mov    %ebx,0xc(%esp)
  104310:	89 04 24             	mov    %eax,(%esp)
  104313:	89 54 24 04          	mov    %edx,0x4(%esp)
  104317:	e8 7b e5 ff ff       	call   102897 <_d_assert_msg>
  10431c:	83 c4 14             	add    $0x14,%esp
  10431f:	5b                   	pop    %ebx
  104320:	5d                   	pop    %ebp
  104321:	c2 04 00             	ret    $0x4

00104324 <_d_newarrayiT>:
  104324:	55                   	push   %ebp
  104325:	89 e5                	mov    %esp,%ebp
  104327:	53                   	push   %ebx
  104328:	83 ec 14             	sub    $0x14,%esp
  10432b:	b9 18 00 00 00       	mov    $0x18,%ecx
  104330:	bb 4c 5e 10 00       	mov    $0x105e4c,%ebx
  104335:	b8 50 00 00 00       	mov    $0x50,%eax
  10433a:	ba 10 64 10 00       	mov    $0x106410,%edx
  10433f:	c7 44 24 10 2f 00 00 	movl   $0x2f,0x10(%esp)
  104346:	00 
  104347:	89 4c 24 08          	mov    %ecx,0x8(%esp)
  10434b:	89 5c 24 0c          	mov    %ebx,0xc(%esp)
  10434f:	89 04 24             	mov    %eax,(%esp)
  104352:	89 54 24 04          	mov    %edx,0x4(%esp)
  104356:	e8 3c e5 ff ff       	call   102897 <_d_assert_msg>
  10435b:	83 c4 14             	add    $0x14,%esp
  10435e:	5b                   	pop    %ebx
  10435f:	5d                   	pop    %ebp
  104360:	c2 04 00             	ret    $0x4

00104363 <_d_newarrayvT>:
  104363:	55                   	push   %ebp
  104364:	89 e5                	mov    %esp,%ebp
  104366:	53                   	push   %ebx
  104367:	83 ec 14             	sub    $0x14,%esp
  10436a:	b9 18 00 00 00       	mov    $0x18,%ecx
  10436f:	bb 4c 5e 10 00       	mov    $0x105e4c,%ebx
  104374:	b8 50 00 00 00       	mov    $0x50,%eax
  104379:	ba 64 64 10 00       	mov    $0x106464,%edx
  10437e:	c7 44 24 10 30 00 00 	movl   $0x30,0x10(%esp)
  104385:	00 
  104386:	89 4c 24 08          	mov    %ecx,0x8(%esp)
  10438a:	89 5c 24 0c          	mov    %ebx,0xc(%esp)
  10438e:	89 04 24             	mov    %eax,(%esp)
  104391:	89 54 24 04          	mov    %edx,0x4(%esp)
  104395:	e8 fd e4 ff ff       	call   102897 <_d_assert_msg>
  10439a:	83 c4 14             	add    $0x14,%esp
  10439d:	5b                   	pop    %ebx
  10439e:	5d                   	pop    %ebp
  10439f:	c2 04 00             	ret    $0x4

001043a2 <_d_newarraymTp>:
  1043a2:	55                   	push   %ebp
  1043a3:	89 e5                	mov    %esp,%ebp
  1043a5:	53                   	push   %ebx
  1043a6:	83 ec 14             	sub    $0x14,%esp
  1043a9:	b9 18 00 00 00       	mov    $0x18,%ecx
  1043ae:	bb 4c 5e 10 00       	mov    $0x105e4c,%ebx
  1043b3:	b8 5c 00 00 00       	mov    $0x5c,%eax
  1043b8:	ba b8 64 10 00       	mov    $0x1064b8,%edx
  1043bd:	c7 44 24 10 31 00 00 	movl   $0x31,0x10(%esp)
  1043c4:	00 
  1043c5:	89 4c 24 08          	mov    %ecx,0x8(%esp)
  1043c9:	89 5c 24 0c          	mov    %ebx,0xc(%esp)
  1043cd:	89 04 24             	mov    %eax,(%esp)
  1043d0:	89 54 24 04          	mov    %edx,0x4(%esp)
  1043d4:	e8 be e4 ff ff       	call   102897 <_d_assert_msg>
  1043d9:	83 c4 14             	add    $0x14,%esp
  1043dc:	5b                   	pop    %ebx
  1043dd:	5d                   	pop    %ebp
  1043de:	c2 04 00             	ret    $0x4

001043e1 <_d_newarraymiTp>:
  1043e1:	55                   	push   %ebp
  1043e2:	89 e5                	mov    %esp,%ebp
  1043e4:	53                   	push   %ebx
  1043e5:	83 ec 14             	sub    $0x14,%esp
  1043e8:	b9 18 00 00 00       	mov    $0x18,%ecx
  1043ed:	bb 4c 5e 10 00       	mov    $0x105e4c,%ebx
  1043f2:	b8 5d 00 00 00       	mov    $0x5d,%eax
  1043f7:	ba 18 65 10 00       	mov    $0x106518,%edx
  1043fc:	c7 44 24 10 32 00 00 	movl   $0x32,0x10(%esp)
  104403:	00 
  104404:	89 4c 24 08          	mov    %ecx,0x8(%esp)
  104408:	89 5c 24 0c          	mov    %ebx,0xc(%esp)
  10440c:	89 04 24             	mov    %eax,(%esp)
  10440f:	89 54 24 04          	mov    %edx,0x4(%esp)
  104413:	e8 7f e4 ff ff       	call   102897 <_d_assert_msg>
  104418:	83 c4 14             	add    $0x14,%esp
  10441b:	5b                   	pop    %ebx
  10441c:	5d                   	pop    %ebp
  10441d:	c2 04 00             	ret    $0x4

00104420 <_d_delarray>:
  104420:	55                   	push   %ebp
  104421:	89 e5                	mov    %esp,%ebp
  104423:	53                   	push   %ebx
  104424:	83 ec 14             	sub    $0x14,%esp
  104427:	b9 18 00 00 00       	mov    $0x18,%ecx
  10442c:	bb 4c 5e 10 00       	mov    $0x105e4c,%ebx
  104431:	b8 3b 00 00 00       	mov    $0x3b,%eax
  104436:	ba 78 65 10 00       	mov    $0x106578,%edx
  10443b:	c7 44 24 10 33 00 00 	movl   $0x33,0x10(%esp)
  104442:	00 
  104443:	89 4c 24 08          	mov    %ecx,0x8(%esp)
  104447:	89 5c 24 0c          	mov    %ebx,0xc(%esp)
  10444b:	89 04 24             	mov    %eax,(%esp)
  10444e:	89 54 24 04          	mov    %edx,0x4(%esp)
  104452:	e8 40 e4 ff ff       	call   102897 <_d_assert_msg>
  104457:	83 c4 14             	add    $0x14,%esp
  10445a:	5b                   	pop    %ebx
  10445b:	5d                   	pop    %ebp
  10445c:	c3                   	ret    

0010445d <_d_delmemory>:
  10445d:	55                   	push   %ebp
  10445e:	89 e5                	mov    %esp,%ebp
  104460:	53                   	push   %ebx
  104461:	83 ec 14             	sub    $0x14,%esp
  104464:	b9 18 00 00 00       	mov    $0x18,%ecx
  104469:	bb 4c 5e 10 00       	mov    $0x105e4c,%ebx
  10446e:	b8 3c 00 00 00       	mov    $0x3c,%eax
  104473:	ba b4 65 10 00       	mov    $0x1065b4,%edx
  104478:	c7 44 24 10 34 00 00 	movl   $0x34,0x10(%esp)
  10447f:	00 
  104480:	89 4c 24 08          	mov    %ecx,0x8(%esp)
  104484:	89 5c 24 0c          	mov    %ebx,0xc(%esp)
  104488:	89 04 24             	mov    %eax,(%esp)
  10448b:	89 54 24 04          	mov    %edx,0x4(%esp)
  10448f:	e8 03 e4 ff ff       	call   102897 <_d_assert_msg>
  104494:	83 c4 14             	add    $0x14,%esp
  104497:	5b                   	pop    %ebx
  104498:	5d                   	pop    %ebp
  104499:	c3                   	ret    

0010449a <_d_callfinalizer>:
  10449a:	55                   	push   %ebp
  10449b:	89 e5                	mov    %esp,%ebp
  10449d:	53                   	push   %ebx
  10449e:	83 ec 14             	sub    $0x14,%esp
  1044a1:	b9 18 00 00 00       	mov    $0x18,%ecx
  1044a6:	bb 4c 5e 10 00       	mov    $0x105e4c,%ebx
  1044ab:	b8 3f 00 00 00       	mov    $0x3f,%eax
  1044b0:	ba f4 65 10 00       	mov    $0x1065f4,%edx
  1044b5:	c7 44 24 10 35 00 00 	movl   $0x35,0x10(%esp)
  1044bc:	00 
  1044bd:	89 4c 24 08          	mov    %ecx,0x8(%esp)
  1044c1:	89 5c 24 0c          	mov    %ebx,0xc(%esp)
  1044c5:	89 04 24             	mov    %eax,(%esp)
  1044c8:	89 54 24 04          	mov    %edx,0x4(%esp)
  1044cc:	e8 c6 e3 ff ff       	call   102897 <_d_assert_msg>
  1044d1:	83 c4 14             	add    $0x14,%esp
  1044d4:	5b                   	pop    %ebx
  1044d5:	5d                   	pop    %ebp
  1044d6:	c3                   	ret    

001044d7 <rt_finalize>:
  1044d7:	55                   	push   %ebp
  1044d8:	89 e5                	mov    %esp,%ebp
  1044da:	53                   	push   %ebx
  1044db:	83 ec 14             	sub    $0x14,%esp
  1044de:	b9 18 00 00 00       	mov    $0x18,%ecx
  1044e3:	bb 4c 5e 10 00       	mov    $0x105e4c,%ebx
  1044e8:	b8 4b 00 00 00       	mov    $0x4b,%eax
  1044ed:	ba 34 66 10 00       	mov    $0x106634,%edx
  1044f2:	c7 44 24 10 36 00 00 	movl   $0x36,0x10(%esp)
  1044f9:	00 
  1044fa:	89 4c 24 08          	mov    %ecx,0x8(%esp)
  1044fe:	89 5c 24 0c          	mov    %ebx,0xc(%esp)
  104502:	89 04 24             	mov    %eax,(%esp)
  104505:	89 54 24 04          	mov    %edx,0x4(%esp)
  104509:	e8 89 e3 ff ff       	call   102897 <_d_assert_msg>
  10450e:	83 c4 14             	add    $0x14,%esp
  104511:	5b                   	pop    %ebx
  104512:	5d                   	pop    %ebp
  104513:	c3                   	ret    

00104514 <_d_arraysetlengthT>:
  104514:	55                   	push   %ebp
  104515:	89 e5                	mov    %esp,%ebp
  104517:	53                   	push   %ebx
  104518:	83 ec 14             	sub    $0x14,%esp
  10451b:	b9 18 00 00 00       	mov    $0x18,%ecx
  104520:	bb 4c 5e 10 00       	mov    $0x105e4c,%ebx
  104525:	b8 63 00 00 00       	mov    $0x63,%eax
  10452a:	ba 80 66 10 00       	mov    $0x106680,%edx
  10452f:	c7 44 24 10 37 00 00 	movl   $0x37,0x10(%esp)
  104536:	00 
  104537:	89 4c 24 08          	mov    %ecx,0x8(%esp)
  10453b:	89 5c 24 0c          	mov    %ebx,0xc(%esp)
  10453f:	89 04 24             	mov    %eax,(%esp)
  104542:	89 54 24 04          	mov    %edx,0x4(%esp)
  104546:	e8 4c e3 ff ff       	call   102897 <_d_assert_msg>
  10454b:	83 c4 14             	add    $0x14,%esp
  10454e:	5b                   	pop    %ebx
  10454f:	5d                   	pop    %ebp
  104550:	c2 04 00             	ret    $0x4

00104553 <_d_arraysetlengthiT>:
  104553:	55                   	push   %ebp
  104554:	89 e5                	mov    %esp,%ebp
  104556:	53                   	push   %ebx
  104557:	83 ec 14             	sub    $0x14,%esp
  10455a:	b9 18 00 00 00       	mov    $0x18,%ecx
  10455f:	bb 4c 5e 10 00       	mov    $0x105e4c,%ebx
  104564:	b8 64 00 00 00       	mov    $0x64,%eax
  104569:	ba e4 66 10 00       	mov    $0x1066e4,%edx
  10456e:	c7 44 24 10 38 00 00 	movl   $0x38,0x10(%esp)
  104575:	00 
  104576:	89 4c 24 08          	mov    %ecx,0x8(%esp)
  10457a:	89 5c 24 0c          	mov    %ebx,0xc(%esp)
  10457e:	89 04 24             	mov    %eax,(%esp)
  104581:	89 54 24 04          	mov    %edx,0x4(%esp)
  104585:	e8 0d e3 ff ff       	call   102897 <_d_assert_msg>
  10458a:	83 c4 14             	add    $0x14,%esp
  10458d:	5b                   	pop    %ebx
  10458e:	5d                   	pop    %ebp
  10458f:	c2 04 00             	ret    $0x4

00104592 <_d_arrayappendT>:
  104592:	55                   	push   %ebp
  104593:	89 e5                	mov    %esp,%ebp
  104595:	53                   	push   %ebx
  104596:	83 ec 14             	sub    $0x14,%esp
  104599:	b9 18 00 00 00       	mov    $0x18,%ecx
  10459e:	bb 4c 5e 10 00       	mov    $0x105e4c,%ebx
  1045a3:	b8 58 00 00 00       	mov    $0x58,%eax
  1045a8:	ba 4c 67 10 00       	mov    $0x10674c,%edx
  1045ad:	c7 44 24 10 39 00 00 	movl   $0x39,0x10(%esp)
  1045b4:	00 
  1045b5:	89 4c 24 08          	mov    %ecx,0x8(%esp)
  1045b9:	89 5c 24 0c          	mov    %ebx,0xc(%esp)
  1045bd:	89 04 24             	mov    %eax,(%esp)
  1045c0:	89 54 24 04          	mov    %edx,0x4(%esp)
  1045c4:	e8 ce e2 ff ff       	call   102897 <_d_assert_msg>
  1045c9:	83 c4 14             	add    $0x14,%esp
  1045cc:	5b                   	pop    %ebx
  1045cd:	5d                   	pop    %ebp
  1045ce:	c2 04 00             	ret    $0x4

001045d1 <_d_arrayappendcTp>:
  1045d1:	55                   	push   %ebp
  1045d2:	89 e5                	mov    %esp,%ebp
  1045d4:	53                   	push   %ebx
  1045d5:	83 ec 14             	sub    $0x14,%esp
  1045d8:	b9 18 00 00 00       	mov    $0x18,%ecx
  1045dd:	bb 4c 5e 10 00       	mov    $0x105e4c,%ebx
  1045e2:	b8 62 00 00 00       	mov    $0x62,%eax
  1045e7:	ba a8 67 10 00       	mov    $0x1067a8,%edx
  1045ec:	c7 44 24 10 3a 00 00 	movl   $0x3a,0x10(%esp)
  1045f3:	00 
  1045f4:	89 4c 24 08          	mov    %ecx,0x8(%esp)
  1045f8:	89 5c 24 0c          	mov    %ebx,0xc(%esp)
  1045fc:	89 04 24             	mov    %eax,(%esp)
  1045ff:	89 54 24 04          	mov    %edx,0x4(%esp)
  104603:	e8 8f e2 ff ff       	call   102897 <_d_assert_msg>
  104608:	83 c4 14             	add    $0x14,%esp
  10460b:	5b                   	pop    %ebx
  10460c:	5d                   	pop    %ebp
  10460d:	c2 04 00             	ret    $0x4

00104610 <_d_arraycatT>:
  104610:	55                   	push   %ebp
  104611:	89 e5                	mov    %esp,%ebp
  104613:	53                   	push   %ebx
  104614:	83 ec 14             	sub    $0x14,%esp
  104617:	b9 18 00 00 00       	mov    $0x18,%ecx
  10461c:	bb 4c 5e 10 00       	mov    $0x105e4c,%ebx
  104621:	b8 55 00 00 00       	mov    $0x55,%eax
  104626:	ba 0c 68 10 00       	mov    $0x10680c,%edx
  10462b:	c7 44 24 10 3b 00 00 	movl   $0x3b,0x10(%esp)
  104632:	00 
  104633:	89 4c 24 08          	mov    %ecx,0x8(%esp)
  104637:	89 5c 24 0c          	mov    %ebx,0xc(%esp)
  10463b:	89 04 24             	mov    %eax,(%esp)
  10463e:	89 54 24 04          	mov    %edx,0x4(%esp)
  104642:	e8 50 e2 ff ff       	call   102897 <_d_assert_msg>
  104647:	83 c4 14             	add    $0x14,%esp
  10464a:	5b                   	pop    %ebx
  10464b:	5d                   	pop    %ebp
  10464c:	c2 04 00             	ret    $0x4

0010464f <_d_arraycatnT>:
  10464f:	55                   	push   %ebp
  104650:	89 e5                	mov    %esp,%ebp
  104652:	53                   	push   %ebx
  104653:	83 ec 14             	sub    $0x14,%esp
  104656:	b9 18 00 00 00       	mov    $0x18,%ecx
  10465b:	bb 4c 5e 10 00       	mov    $0x105e4c,%ebx
  104660:	b8 4f 00 00 00       	mov    $0x4f,%eax
  104665:	ba 64 68 10 00       	mov    $0x106864,%edx
  10466a:	c7 44 24 10 3c 00 00 	movl   $0x3c,0x10(%esp)
  104671:	00 
  104672:	89 4c 24 08          	mov    %ecx,0x8(%esp)
  104676:	89 5c 24 0c          	mov    %ebx,0xc(%esp)
  10467a:	89 04 24             	mov    %eax,(%esp)
  10467d:	89 54 24 04          	mov    %edx,0x4(%esp)
  104681:	e8 11 e2 ff ff       	call   102897 <_d_assert_msg>
  104686:	83 c4 14             	add    $0x14,%esp
  104689:	5b                   	pop    %ebx
  10468a:	5d                   	pop    %ebp
  10468b:	c2 04 00             	ret    $0x4

0010468e <_adDupT>:
  10468e:	55                   	push   %ebp
  10468f:	89 e5                	mov    %esp,%ebp
  104691:	53                   	push   %ebx
  104692:	83 ec 14             	sub    $0x14,%esp
  104695:	b9 18 00 00 00       	mov    $0x18,%ecx
  10469a:	bb 4c 5e 10 00       	mov    $0x105e4c,%ebx
  10469f:	b8 44 00 00 00       	mov    $0x44,%eax
  1046a4:	ba b4 68 10 00       	mov    $0x1068b4,%edx
  1046a9:	c7 44 24 10 3d 00 00 	movl   $0x3d,0x10(%esp)
  1046b0:	00 
  1046b1:	89 4c 24 08          	mov    %ecx,0x8(%esp)
  1046b5:	89 5c 24 0c          	mov    %ebx,0xc(%esp)
  1046b9:	89 04 24             	mov    %eax,(%esp)
  1046bc:	89 54 24 04          	mov    %edx,0x4(%esp)
  1046c0:	e8 d2 e1 ff ff       	call   102897 <_d_assert_msg>
  1046c5:	83 c4 14             	add    $0x14,%esp
  1046c8:	5b                   	pop    %ebx
  1046c9:	5d                   	pop    %ebp
  1046ca:	c2 04 00             	ret    $0x4

001046cd <gc_init>:
  1046cd:	55                   	push   %ebp
  1046ce:	89 e5                	mov    %esp,%ebp
  1046d0:	53                   	push   %ebx
  1046d1:	83 ec 14             	sub    $0x14,%esp
  1046d4:	b9 18 00 00 00       	mov    $0x18,%ecx
  1046d9:	bb 4c 5e 10 00       	mov    $0x105e4c,%ebx
  1046de:	b8 2f 00 00 00       	mov    $0x2f,%eax
  1046e3:	ba fc 68 10 00       	mov    $0x1068fc,%edx
  1046e8:	c7 44 24 10 43 00 00 	movl   $0x43,0x10(%esp)
  1046ef:	00 
  1046f0:	89 4c 24 08          	mov    %ecx,0x8(%esp)
  1046f4:	89 5c 24 0c          	mov    %ebx,0xc(%esp)
  1046f8:	89 04 24             	mov    %eax,(%esp)
  1046fb:	89 54 24 04          	mov    %edx,0x4(%esp)
  1046ff:	e8 93 e1 ff ff       	call   102897 <_d_assert_msg>
  104704:	83 c4 14             	add    $0x14,%esp
  104707:	5b                   	pop    %ebx
  104708:	5d                   	pop    %ebp
  104709:	c3                   	ret    

0010470a <gc_term>:
  10470a:	55                   	push   %ebp
  10470b:	89 e5                	mov    %esp,%ebp
  10470d:	53                   	push   %ebx
  10470e:	83 ec 14             	sub    $0x14,%esp
  104711:	b9 18 00 00 00       	mov    $0x18,%ecx
  104716:	bb 4c 5e 10 00       	mov    $0x105e4c,%ebx
  10471b:	b8 2f 00 00 00       	mov    $0x2f,%eax
  104720:	ba 2c 69 10 00       	mov    $0x10692c,%edx
  104725:	c7 44 24 10 44 00 00 	movl   $0x44,0x10(%esp)
  10472c:	00 
  10472d:	89 4c 24 08          	mov    %ecx,0x8(%esp)
  104731:	89 5c 24 0c          	mov    %ebx,0xc(%esp)
  104735:	89 04 24             	mov    %eax,(%esp)
  104738:	89 54 24 04          	mov    %edx,0x4(%esp)
  10473c:	e8 56 e1 ff ff       	call   102897 <_d_assert_msg>
  104741:	83 c4 14             	add    $0x14,%esp
  104744:	5b                   	pop    %ebx
  104745:	5d                   	pop    %ebp
  104746:	c3                   	ret    

00104747 <gc_enable>:
  104747:	55                   	push   %ebp
  104748:	89 e5                	mov    %esp,%ebp
  10474a:	53                   	push   %ebx
  10474b:	83 ec 14             	sub    $0x14,%esp
  10474e:	b9 18 00 00 00       	mov    $0x18,%ecx
  104753:	bb 4c 5e 10 00       	mov    $0x105e4c,%ebx
  104758:	b8 31 00 00 00       	mov    $0x31,%eax
  10475d:	ba 5c 69 10 00       	mov    $0x10695c,%edx
  104762:	c7 44 24 10 45 00 00 	movl   $0x45,0x10(%esp)
  104769:	00 
  10476a:	89 4c 24 08          	mov    %ecx,0x8(%esp)
  10476e:	89 5c 24 0c          	mov    %ebx,0xc(%esp)
  104772:	89 04 24             	mov    %eax,(%esp)
  104775:	89 54 24 04          	mov    %edx,0x4(%esp)
  104779:	e8 19 e1 ff ff       	call   102897 <_d_assert_msg>
  10477e:	83 c4 14             	add    $0x14,%esp
  104781:	5b                   	pop    %ebx
  104782:	5d                   	pop    %ebp
  104783:	c3                   	ret    

00104784 <gc_disable>:
  104784:	55                   	push   %ebp
  104785:	89 e5                	mov    %esp,%ebp
  104787:	53                   	push   %ebx
  104788:	83 ec 14             	sub    $0x14,%esp
  10478b:	b9 18 00 00 00       	mov    $0x18,%ecx
  104790:	bb 4c 5e 10 00       	mov    $0x105e4c,%ebx
  104795:	b8 32 00 00 00       	mov    $0x32,%eax
  10479a:	ba 90 69 10 00       	mov    $0x106990,%edx
  10479f:	c7 44 24 10 46 00 00 	movl   $0x46,0x10(%esp)
  1047a6:	00 
  1047a7:	89 4c 24 08          	mov    %ecx,0x8(%esp)
  1047ab:	89 5c 24 0c          	mov    %ebx,0xc(%esp)
  1047af:	89 04 24             	mov    %eax,(%esp)
  1047b2:	89 54 24 04          	mov    %edx,0x4(%esp)
  1047b6:	e8 dc e0 ff ff       	call   102897 <_d_assert_msg>
  1047bb:	83 c4 14             	add    $0x14,%esp
  1047be:	5b                   	pop    %ebx
  1047bf:	5d                   	pop    %ebp
  1047c0:	c3                   	ret    

001047c1 <gc_collect>:
  1047c1:	55                   	push   %ebp
  1047c2:	89 e5                	mov    %esp,%ebp
  1047c4:	53                   	push   %ebx
  1047c5:	83 ec 14             	sub    $0x14,%esp
  1047c8:	b9 18 00 00 00       	mov    $0x18,%ecx
  1047cd:	bb 4c 5e 10 00       	mov    $0x105e4c,%ebx
  1047d2:	b8 32 00 00 00       	mov    $0x32,%eax
  1047d7:	ba c4 69 10 00       	mov    $0x1069c4,%edx
  1047dc:	c7 44 24 10 47 00 00 	movl   $0x47,0x10(%esp)
  1047e3:	00 
  1047e4:	89 4c 24 08          	mov    %ecx,0x8(%esp)
  1047e8:	89 5c 24 0c          	mov    %ebx,0xc(%esp)
  1047ec:	89 04 24             	mov    %eax,(%esp)
  1047ef:	89 54 24 04          	mov    %edx,0x4(%esp)
  1047f3:	e8 9f e0 ff ff       	call   102897 <_d_assert_msg>
  1047f8:	83 c4 14             	add    $0x14,%esp
  1047fb:	5b                   	pop    %ebx
  1047fc:	5d                   	pop    %ebp
  1047fd:	c3                   	ret    

001047fe <gc_getAttr>:
  1047fe:	55                   	push   %ebp
  1047ff:	89 e5                	mov    %esp,%ebp
  104801:	53                   	push   %ebx
  104802:	83 ec 24             	sub    $0x24,%esp
  104805:	b9 18 00 00 00       	mov    $0x18,%ecx
  10480a:	bb 4c 5e 10 00       	mov    $0x105e4c,%ebx
  10480f:	b8 3b 00 00 00       	mov    $0x3b,%eax
  104814:	ba f8 69 10 00       	mov    $0x1069f8,%edx
  104819:	c7 44 24 10 48 00 00 	movl   $0x48,0x10(%esp)
  104820:	00 
  104821:	89 4c 24 08          	mov    %ecx,0x8(%esp)
  104825:	89 5c 24 0c          	mov    %ebx,0xc(%esp)
  104829:	89 04 24             	mov    %eax,(%esp)
  10482c:	89 54 24 04          	mov    %edx,0x4(%esp)
  104830:	e8 62 e0 ff ff       	call   102897 <_d_assert_msg>
  104835:	83 c4 24             	add    $0x24,%esp
  104838:	5b                   	pop    %ebx
  104839:	5d                   	pop    %ebp
  10483a:	c3                   	ret    

0010483b <gc_setAttr>:
  10483b:	55                   	push   %ebp
  10483c:	89 e5                	mov    %esp,%ebp
  10483e:	53                   	push   %ebx
  10483f:	83 ec 24             	sub    $0x24,%esp
  104842:	b9 18 00 00 00       	mov    $0x18,%ecx
  104847:	bb 4c 5e 10 00       	mov    $0x105e4c,%ebx
  10484c:	b8 43 00 00 00       	mov    $0x43,%eax
  104851:	ba 34 6a 10 00       	mov    $0x106a34,%edx
  104856:	c7 44 24 10 49 00 00 	movl   $0x49,0x10(%esp)
  10485d:	00 
  10485e:	89 4c 24 08          	mov    %ecx,0x8(%esp)
  104862:	89 5c 24 0c          	mov    %ebx,0xc(%esp)
  104866:	89 04 24             	mov    %eax,(%esp)
  104869:	89 54 24 04          	mov    %edx,0x4(%esp)
  10486d:	e8 25 e0 ff ff       	call   102897 <_d_assert_msg>
  104872:	83 c4 24             	add    $0x24,%esp
  104875:	5b                   	pop    %ebx
  104876:	5d                   	pop    %ebp
  104877:	c3                   	ret    

00104878 <gc_clrAttr>:
  104878:	55                   	push   %ebp
  104879:	89 e5                	mov    %esp,%ebp
  10487b:	53                   	push   %ebx
  10487c:	83 ec 24             	sub    $0x24,%esp
  10487f:	b9 18 00 00 00       	mov    $0x18,%ecx
  104884:	bb 4c 5e 10 00       	mov    $0x105e4c,%ebx
  104889:	b8 43 00 00 00       	mov    $0x43,%eax
  10488e:	ba 78 6a 10 00       	mov    $0x106a78,%edx
  104893:	c7 44 24 10 4a 00 00 	movl   $0x4a,0x10(%esp)
  10489a:	00 
  10489b:	89 4c 24 08          	mov    %ecx,0x8(%esp)
  10489f:	89 5c 24 0c          	mov    %ebx,0xc(%esp)
  1048a3:	89 04 24             	mov    %eax,(%esp)
  1048a6:	89 54 24 04          	mov    %edx,0x4(%esp)
  1048aa:	e8 e8 df ff ff       	call   102897 <_d_assert_msg>
  1048af:	83 c4 24             	add    $0x24,%esp
  1048b2:	5b                   	pop    %ebx
  1048b3:	5d                   	pop    %ebp
  1048b4:	c3                   	ret    

001048b5 <gc_malloc>:
  1048b5:	55                   	push   %ebp
  1048b6:	89 e5                	mov    %esp,%ebp
  1048b8:	53                   	push   %ebx
  1048b9:	83 ec 24             	sub    $0x24,%esp
  1048bc:	b9 18 00 00 00       	mov    $0x18,%ecx
  1048c1:	bb 4c 5e 10 00       	mov    $0x105e4c,%ebx
  1048c6:	b8 4a 00 00 00       	mov    $0x4a,%eax
  1048cb:	ba bc 6a 10 00       	mov    $0x106abc,%edx
  1048d0:	c7 44 24 10 4b 00 00 	movl   $0x4b,0x10(%esp)
  1048d7:	00 
  1048d8:	89 4c 24 08          	mov    %ecx,0x8(%esp)
  1048dc:	89 5c 24 0c          	mov    %ebx,0xc(%esp)
  1048e0:	89 04 24             	mov    %eax,(%esp)
  1048e3:	89 54 24 04          	mov    %edx,0x4(%esp)
  1048e7:	e8 ab df ff ff       	call   102897 <_d_assert_msg>
  1048ec:	83 c4 24             	add    $0x24,%esp
  1048ef:	5b                   	pop    %ebx
  1048f0:	5d                   	pop    %ebp
  1048f1:	c3                   	ret    

001048f2 <gc_calloc>:
  1048f2:	55                   	push   %ebp
  1048f3:	89 e5                	mov    %esp,%ebp
  1048f5:	53                   	push   %ebx
  1048f6:	83 ec 24             	sub    $0x24,%esp
  1048f9:	b9 18 00 00 00       	mov    $0x18,%ecx
  1048fe:	bb 4c 5e 10 00       	mov    $0x105e4c,%ebx
  104903:	b8 4a 00 00 00       	mov    $0x4a,%eax
  104908:	ba 08 6b 10 00       	mov    $0x106b08,%edx
  10490d:	c7 44 24 10 4c 00 00 	movl   $0x4c,0x10(%esp)
  104914:	00 
  104915:	89 4c 24 08          	mov    %ecx,0x8(%esp)
  104919:	89 5c 24 0c          	mov    %ebx,0xc(%esp)
  10491d:	89 04 24             	mov    %eax,(%esp)
  104920:	89 54 24 04          	mov    %edx,0x4(%esp)
  104924:	e8 6e df ff ff       	call   102897 <_d_assert_msg>
  104929:	83 c4 24             	add    $0x24,%esp
  10492c:	5b                   	pop    %ebx
  10492d:	5d                   	pop    %ebp
  10492e:	c3                   	ret    

0010492f <gc_realloc>:
  10492f:	55                   	push   %ebp
  104930:	89 e5                	mov    %esp,%ebp
  104932:	53                   	push   %ebx
  104933:	83 ec 24             	sub    $0x24,%esp
  104936:	b9 18 00 00 00       	mov    $0x18,%ecx
  10493b:	bb 4c 5e 10 00       	mov    $0x105e4c,%ebx
  104940:	b8 54 00 00 00       	mov    $0x54,%eax
  104945:	ba 54 6b 10 00       	mov    $0x106b54,%edx
  10494a:	c7 44 24 10 4d 00 00 	movl   $0x4d,0x10(%esp)
  104951:	00 
  104952:	89 4c 24 08          	mov    %ecx,0x8(%esp)
  104956:	89 5c 24 0c          	mov    %ebx,0xc(%esp)
  10495a:	89 04 24             	mov    %eax,(%esp)
  10495d:	89 54 24 04          	mov    %edx,0x4(%esp)
  104961:	e8 31 df ff ff       	call   102897 <_d_assert_msg>
  104966:	83 c4 24             	add    $0x24,%esp
  104969:	5b                   	pop    %ebx
  10496a:	5d                   	pop    %ebp
  10496b:	c3                   	ret    

0010496c <gc_extend>:
  10496c:	55                   	push   %ebp
  10496d:	89 e5                	mov    %esp,%ebp
  10496f:	53                   	push   %ebx
  104970:	83 ec 24             	sub    $0x24,%esp
  104973:	b9 18 00 00 00       	mov    $0x18,%ecx
  104978:	bb 4c 5e 10 00       	mov    $0x105e4c,%ebx
  10497d:	b8 52 00 00 00       	mov    $0x52,%eax
  104982:	ba ac 6b 10 00       	mov    $0x106bac,%edx
  104987:	c7 44 24 10 4e 00 00 	movl   $0x4e,0x10(%esp)
  10498e:	00 
  10498f:	89 4c 24 08          	mov    %ecx,0x8(%esp)
  104993:	89 5c 24 0c          	mov    %ebx,0xc(%esp)
  104997:	89 04 24             	mov    %eax,(%esp)
  10499a:	89 54 24 04          	mov    %edx,0x4(%esp)
  10499e:	e8 f4 de ff ff       	call   102897 <_d_assert_msg>
  1049a3:	83 c4 24             	add    $0x24,%esp
  1049a6:	5b                   	pop    %ebx
  1049a7:	5d                   	pop    %ebp
  1049a8:	c3                   	ret    

001049a9 <gc_free>:
  1049a9:	55                   	push   %ebp
  1049aa:	89 e5                	mov    %esp,%ebp
  1049ac:	53                   	push   %ebx
  1049ad:	83 ec 14             	sub    $0x14,%esp
  1049b0:	b9 18 00 00 00       	mov    $0x18,%ecx
  1049b5:	bb 4c 5e 10 00       	mov    $0x105e4c,%ebx
  1049ba:	b8 38 00 00 00       	mov    $0x38,%eax
  1049bf:	ba 00 6c 10 00       	mov    $0x106c00,%edx
  1049c4:	c7 44 24 10 4f 00 00 	movl   $0x4f,0x10(%esp)
  1049cb:	00 
  1049cc:	89 4c 24 08          	mov    %ecx,0x8(%esp)
  1049d0:	89 5c 24 0c          	mov    %ebx,0xc(%esp)
  1049d4:	89 04 24             	mov    %eax,(%esp)
  1049d7:	89 54 24 04          	mov    %edx,0x4(%esp)
  1049db:	e8 b7 de ff ff       	call   102897 <_d_assert_msg>
  1049e0:	83 c4 14             	add    $0x14,%esp
  1049e3:	5b                   	pop    %ebx
  1049e4:	5d                   	pop    %ebp
  1049e5:	c3                   	ret    

001049e6 <gc_sizeOf>:
  1049e6:	55                   	push   %ebp
  1049e7:	89 e5                	mov    %esp,%ebp
  1049e9:	53                   	push   %ebx
  1049ea:	83 ec 24             	sub    $0x24,%esp
  1049ed:	b9 18 00 00 00       	mov    $0x18,%ecx
  1049f2:	bb 4c 5e 10 00       	mov    $0x105e4c,%ebx
  1049f7:	b8 3c 00 00 00       	mov    $0x3c,%eax
  1049fc:	ba 3c 6c 10 00       	mov    $0x106c3c,%edx
  104a01:	c7 44 24 10 50 00 00 	movl   $0x50,0x10(%esp)
  104a08:	00 
  104a09:	89 4c 24 08          	mov    %ecx,0x8(%esp)
  104a0d:	89 5c 24 0c          	mov    %ebx,0xc(%esp)
  104a11:	89 04 24             	mov    %eax,(%esp)
  104a14:	89 54 24 04          	mov    %edx,0x4(%esp)
  104a18:	e8 7a de ff ff       	call   102897 <_d_assert_msg>
  104a1d:	83 c4 24             	add    $0x24,%esp
  104a20:	5b                   	pop    %ebx
  104a21:	5d                   	pop    %ebp
  104a22:	c3                   	ret    

00104a23 <gc_addRoot>:
  104a23:	55                   	push   %ebp
  104a24:	89 e5                	mov    %esp,%ebp
  104a26:	53                   	push   %ebx
  104a27:	83 ec 14             	sub    $0x14,%esp
  104a2a:	b9 18 00 00 00       	mov    $0x18,%ecx
  104a2f:	bb 4c 5e 10 00       	mov    $0x105e4c,%ebx
  104a34:	b8 3b 00 00 00       	mov    $0x3b,%eax
  104a39:	ba 7c 6c 10 00       	mov    $0x106c7c,%edx
  104a3e:	c7 44 24 10 51 00 00 	movl   $0x51,0x10(%esp)
  104a45:	00 
  104a46:	89 4c 24 08          	mov    %ecx,0x8(%esp)
  104a4a:	89 5c 24 0c          	mov    %ebx,0xc(%esp)
  104a4e:	89 04 24             	mov    %eax,(%esp)
  104a51:	89 54 24 04          	mov    %edx,0x4(%esp)
  104a55:	e8 3d de ff ff       	call   102897 <_d_assert_msg>
  104a5a:	83 c4 14             	add    $0x14,%esp
  104a5d:	5b                   	pop    %ebx
  104a5e:	5d                   	pop    %ebp
  104a5f:	c3                   	ret    

00104a60 <gc_addRange>:
  104a60:	55                   	push   %ebp
  104a61:	89 e5                	mov    %esp,%ebp
  104a63:	53                   	push   %ebx
  104a64:	83 ec 14             	sub    $0x14,%esp
  104a67:	b9 18 00 00 00       	mov    $0x18,%ecx
  104a6c:	bb 4c 5e 10 00       	mov    $0x105e4c,%ebx
  104a71:	b8 47 00 00 00       	mov    $0x47,%eax
  104a76:	ba b8 6c 10 00       	mov    $0x106cb8,%edx
  104a7b:	c7 44 24 10 52 00 00 	movl   $0x52,0x10(%esp)
  104a82:	00 
  104a83:	89 4c 24 08          	mov    %ecx,0x8(%esp)
  104a87:	89 5c 24 0c          	mov    %ebx,0xc(%esp)
  104a8b:	89 04 24             	mov    %eax,(%esp)
  104a8e:	89 54 24 04          	mov    %edx,0x4(%esp)
  104a92:	e8 00 de ff ff       	call   102897 <_d_assert_msg>
  104a97:	83 c4 14             	add    $0x14,%esp
  104a9a:	5b                   	pop    %ebx
  104a9b:	5d                   	pop    %ebp
  104a9c:	c3                   	ret    

00104a9d <gc_removeRoot>:
  104a9d:	55                   	push   %ebp
  104a9e:	89 e5                	mov    %esp,%ebp
  104aa0:	53                   	push   %ebx
  104aa1:	83 ec 14             	sub    $0x14,%esp
  104aa4:	b9 18 00 00 00       	mov    $0x18,%ecx
  104aa9:	bb 4c 5e 10 00       	mov    $0x105e4c,%ebx
  104aae:	b8 3e 00 00 00       	mov    $0x3e,%eax
  104ab3:	ba 00 6d 10 00       	mov    $0x106d00,%edx
  104ab8:	c7 44 24 10 53 00 00 	movl   $0x53,0x10(%esp)
  104abf:	00 
  104ac0:	89 4c 24 08          	mov    %ecx,0x8(%esp)
  104ac4:	89 5c 24 0c          	mov    %ebx,0xc(%esp)
  104ac8:	89 04 24             	mov    %eax,(%esp)
  104acb:	89 54 24 04          	mov    %edx,0x4(%esp)
  104acf:	e8 c3 dd ff ff       	call   102897 <_d_assert_msg>
  104ad4:	83 c4 14             	add    $0x14,%esp
  104ad7:	5b                   	pop    %ebx
  104ad8:	5d                   	pop    %ebp
  104ad9:	c3                   	ret    

00104ada <gc_removeRange>:
  104ada:	55                   	push   %ebp
  104adb:	89 e5                	mov    %esp,%ebp
  104add:	53                   	push   %ebx
  104ade:	83 ec 14             	sub    $0x14,%esp
  104ae1:	b9 18 00 00 00       	mov    $0x18,%ecx
  104ae6:	bb 4c 5e 10 00       	mov    $0x105e4c,%ebx
  104aeb:	b8 3f 00 00 00       	mov    $0x3f,%eax
  104af0:	ba 40 6d 10 00       	mov    $0x106d40,%edx
  104af5:	c7 44 24 10 54 00 00 	movl   $0x54,0x10(%esp)
  104afc:	00 
  104afd:	89 4c 24 08          	mov    %ecx,0x8(%esp)
  104b01:	89 5c 24 0c          	mov    %ebx,0xc(%esp)
  104b05:	89 04 24             	mov    %eax,(%esp)
  104b08:	89 54 24 04          	mov    %edx,0x4(%esp)
  104b0c:	e8 86 dd ff ff       	call   102897 <_d_assert_msg>
  104b11:	83 c4 14             	add    $0x14,%esp
  104b14:	5b                   	pop    %ebx
  104b15:	5d                   	pop    %ebp
  104b16:	c3                   	ret    

00104b17 <onCollectResource>:
  104b17:	55                   	push   %ebp
  104b18:	89 e5                	mov    %esp,%ebp
  104b1a:	53                   	push   %ebx
  104b1b:	83 ec 24             	sub    $0x24,%esp
  104b1e:	b9 18 00 00 00       	mov    $0x18,%ecx
  104b23:	bb 4c 5e 10 00       	mov    $0x105e4c,%ebx
  104b28:	b8 45 00 00 00       	mov    $0x45,%eax
  104b2d:	ba 80 6d 10 00       	mov    $0x106d80,%edx
  104b32:	c7 44 24 10 55 00 00 	movl   $0x55,0x10(%esp)
  104b39:	00 
  104b3a:	89 4c 24 08          	mov    %ecx,0x8(%esp)
  104b3e:	89 5c 24 0c          	mov    %ebx,0xc(%esp)
  104b42:	89 04 24             	mov    %eax,(%esp)
  104b45:	89 54 24 04          	mov    %edx,0x4(%esp)
  104b49:	e8 49 dd ff ff       	call   102897 <_d_assert_msg>
  104b4e:	83 c4 24             	add    $0x24,%esp
  104b51:	5b                   	pop    %ebx
  104b52:	5d                   	pop    %ebp
  104b53:	c3                   	ret    

00104b54 <onFinalizeError>:
  104b54:	55                   	push   %ebp
  104b55:	89 e5                	mov    %esp,%ebp
  104b57:	53                   	push   %ebx
  104b58:	83 ec 14             	sub    $0x14,%esp
  104b5b:	b9 18 00 00 00       	mov    $0x18,%ecx
  104b60:	bb 4c 5e 10 00       	mov    $0x105e4c,%ebx
  104b65:	b8 55 00 00 00       	mov    $0x55,%eax
  104b6a:	ba c8 6d 10 00       	mov    $0x106dc8,%edx
  104b6f:	c7 44 24 10 5b 00 00 	movl   $0x5b,0x10(%esp)
  104b76:	00 
  104b77:	89 4c 24 08          	mov    %ecx,0x8(%esp)
  104b7b:	89 5c 24 0c          	mov    %ebx,0xc(%esp)
  104b7f:	89 04 24             	mov    %eax,(%esp)
  104b82:	89 54 24 04          	mov    %edx,0x4(%esp)
  104b86:	e8 0c dd ff ff       	call   102897 <_d_assert_msg>
  104b8b:	83 c4 14             	add    $0x14,%esp
  104b8e:	5b                   	pop    %ebx
  104b8f:	5d                   	pop    %ebp
  104b90:	c3                   	ret    

00104b91 <onUnicodeError>:
  104b91:	55                   	push   %ebp
  104b92:	89 e5                	mov    %esp,%ebp
  104b94:	53                   	push   %ebx
  104b95:	83 ec 14             	sub    $0x14,%esp
  104b98:	b9 18 00 00 00       	mov    $0x18,%ecx
  104b9d:	bb 4c 5e 10 00       	mov    $0x105e4c,%ebx
  104ba2:	b8 4e 00 00 00       	mov    $0x4e,%eax
  104ba7:	ba 20 6e 10 00       	mov    $0x106e20,%edx
  104bac:	c7 44 24 10 5d 00 00 	movl   $0x5d,0x10(%esp)
  104bb3:	00 
  104bb4:	89 4c 24 08          	mov    %ecx,0x8(%esp)
  104bb8:	89 5c 24 0c          	mov    %ebx,0xc(%esp)
  104bbc:	89 04 24             	mov    %eax,(%esp)
  104bbf:	89 54 24 04          	mov    %edx,0x4(%esp)
  104bc3:	e8 cf dc ff ff       	call   102897 <_d_assert_msg>
  104bc8:	83 c4 14             	add    $0x14,%esp
  104bcb:	5b                   	pop    %ebx
  104bcc:	5d                   	pop    %ebp
  104bcd:	c3                   	ret    

00104bce <_d_throw_exception>:
  104bce:	55                   	push   %ebp
  104bcf:	89 e5                	mov    %esp,%ebp
  104bd1:	53                   	push   %ebx
  104bd2:	83 ec 14             	sub    $0x14,%esp
  104bd5:	b9 18 00 00 00       	mov    $0x18,%ecx
  104bda:	bb 4c 5e 10 00       	mov    $0x105e4c,%ebx
  104bdf:	b8 42 00 00 00       	mov    $0x42,%eax
  104be4:	ba 70 6e 10 00       	mov    $0x106e70,%edx
  104be9:	c7 44 24 10 5e 00 00 	movl   $0x5e,0x10(%esp)
  104bf0:	00 
  104bf1:	89 4c 24 08          	mov    %ecx,0x8(%esp)
  104bf5:	89 5c 24 0c          	mov    %ebx,0xc(%esp)
  104bf9:	89 04 24             	mov    %eax,(%esp)
  104bfc:	89 54 24 04          	mov    %edx,0x4(%esp)
  104c00:	e8 92 dc ff ff       	call   102897 <_d_assert_msg>
  104c05:	83 c4 14             	add    $0x14,%esp
  104c08:	5b                   	pop    %ebx
  104c09:	5d                   	pop    %ebp
  104c0a:	c3                   	ret    

00104c0b <_gdc_cleanupException>:
  104c0b:	55                   	push   %ebp
  104c0c:	89 e5                	mov    %esp,%ebp
  104c0e:	53                   	push   %ebx
  104c0f:	83 ec 14             	sub    $0x14,%esp
  104c12:	b9 18 00 00 00       	mov    $0x18,%ecx
  104c17:	bb 4c 5e 10 00       	mov    $0x105e4c,%ebx
  104c1c:	b8 3d 00 00 00       	mov    $0x3d,%eax
  104c21:	ba b4 6e 10 00       	mov    $0x106eb4,%edx
  104c26:	c7 44 24 10 64 00 00 	movl   $0x64,0x10(%esp)
  104c2d:	00 
  104c2e:	89 4c 24 08          	mov    %ecx,0x8(%esp)
  104c32:	89 5c 24 0c          	mov    %ebx,0xc(%esp)
  104c36:	89 04 24             	mov    %eax,(%esp)
  104c39:	89 54 24 04          	mov    %edx,0x4(%esp)
  104c3d:	e8 55 dc ff ff       	call   102897 <_d_assert_msg>
  104c42:	83 c4 14             	add    $0x14,%esp
  104c45:	5b                   	pop    %ebx
  104c46:	5d                   	pop    %ebp
  104c47:	c3                   	ret    

00104c48 <_d_throw>:
  104c48:	55                   	push   %ebp
  104c49:	89 e5                	mov    %esp,%ebp
  104c4b:	53                   	push   %ebx
  104c4c:	83 ec 14             	sub    $0x14,%esp
  104c4f:	b9 18 00 00 00       	mov    $0x18,%ecx
  104c54:	bb 4c 5e 10 00       	mov    $0x105e4c,%ebx
  104c59:	b8 3a 00 00 00       	mov    $0x3a,%eax
  104c5e:	ba f4 6e 10 00       	mov    $0x106ef4,%edx
  104c63:	c7 44 24 10 65 00 00 	movl   $0x65,0x10(%esp)
  104c6a:	00 
  104c6b:	89 4c 24 08          	mov    %ecx,0x8(%esp)
  104c6f:	89 5c 24 0c          	mov    %ebx,0xc(%esp)
  104c73:	89 04 24             	mov    %eax,(%esp)
  104c76:	89 54 24 04          	mov    %edx,0x4(%esp)
  104c7a:	e8 18 dc ff ff       	call   102897 <_d_assert_msg>
  104c7f:	83 c4 14             	add    $0x14,%esp
  104c82:	5b                   	pop    %ebx
  104c83:	5d                   	pop    %ebp
  104c84:	c3                   	ret    

00104c85 <__gdc_personality_v0>:
  104c85:	55                   	push   %ebp
  104c86:	89 e5                	mov    %esp,%ebp
  104c88:	53                   	push   %ebx
  104c89:	83 ec 24             	sub    $0x24,%esp
  104c8c:	b9 18 00 00 00       	mov    $0x18,%ecx
  104c91:	bb 4c 5e 10 00       	mov    $0x105e4c,%ebx
  104c96:	b8 3b 00 00 00       	mov    $0x3b,%eax
  104c9b:	ba 30 6f 10 00       	mov    $0x106f30,%edx
  104ca0:	c7 44 24 10 66 00 00 	movl   $0x66,0x10(%esp)
  104ca7:	00 
  104ca8:	89 4c 24 08          	mov    %ecx,0x8(%esp)
  104cac:	89 5c 24 0c          	mov    %ebx,0xc(%esp)
  104cb0:	89 04 24             	mov    %eax,(%esp)
  104cb3:	89 54 24 04          	mov    %edx,0x4(%esp)
  104cb7:	e8 db db ff ff       	call   102897 <_d_assert_msg>
  104cbc:	83 c4 24             	add    $0x24,%esp
  104cbf:	5b                   	pop    %ebx
  104cc0:	5d                   	pop    %ebp
  104cc1:	c3                   	ret    

00104cc2 <_Unwind_RaiseException>:
  104cc2:	55                   	push   %ebp
  104cc3:	89 e5                	mov    %esp,%ebp
  104cc5:	53                   	push   %ebx
  104cc6:	83 ec 14             	sub    $0x14,%esp
  104cc9:	b9 18 00 00 00       	mov    $0x18,%ecx
  104cce:	bb 4c 5e 10 00       	mov    $0x105e4c,%ebx
  104cd3:	b8 3f 00 00 00       	mov    $0x3f,%eax
  104cd8:	ba 6c 6f 10 00       	mov    $0x106f6c,%edx
  104cdd:	c7 44 24 10 67 00 00 	movl   $0x67,0x10(%esp)
  104ce4:	00 
  104ce5:	89 4c 24 08          	mov    %ecx,0x8(%esp)
  104ce9:	89 5c 24 0c          	mov    %ebx,0xc(%esp)
  104ced:	89 04 24             	mov    %eax,(%esp)
  104cf0:	89 54 24 04          	mov    %edx,0x4(%esp)
  104cf4:	e8 9e db ff ff       	call   102897 <_d_assert_msg>
  104cf9:	83 c4 14             	add    $0x14,%esp
  104cfc:	5b                   	pop    %ebx
  104cfd:	5d                   	pop    %ebp
  104cfe:	c3                   	ret    

00104cff <_Unwind_ForcedUnwind>:
  104cff:	55                   	push   %ebp
  104d00:	89 e5                	mov    %esp,%ebp
  104d02:	53                   	push   %ebx
  104d03:	83 ec 14             	sub    $0x14,%esp
  104d06:	b9 18 00 00 00       	mov    $0x18,%ecx
  104d0b:	bb 4c 5e 10 00       	mov    $0x105e4c,%ebx
  104d10:	b8 3d 00 00 00       	mov    $0x3d,%eax
  104d15:	ba ac 6f 10 00       	mov    $0x106fac,%edx
  104d1a:	c7 44 24 10 68 00 00 	movl   $0x68,0x10(%esp)
  104d21:	00 
  104d22:	89 4c 24 08          	mov    %ecx,0x8(%esp)
  104d26:	89 5c 24 0c          	mov    %ebx,0xc(%esp)
  104d2a:	89 04 24             	mov    %eax,(%esp)
  104d2d:	89 54 24 04          	mov    %edx,0x4(%esp)
  104d31:	e8 61 db ff ff       	call   102897 <_d_assert_msg>
  104d36:	83 c4 14             	add    $0x14,%esp
  104d39:	5b                   	pop    %ebx
  104d3a:	5d                   	pop    %ebp
  104d3b:	c3                   	ret    

00104d3c <_Unwind_DeleteException>:
  104d3c:	55                   	push   %ebp
  104d3d:	89 e5                	mov    %esp,%ebp
  104d3f:	53                   	push   %ebx
  104d40:	83 ec 14             	sub    $0x14,%esp
  104d43:	b9 18 00 00 00       	mov    $0x18,%ecx
  104d48:	bb 4c 5e 10 00       	mov    $0x105e4c,%ebx
  104d4d:	b8 40 00 00 00       	mov    $0x40,%eax
  104d52:	ba ec 6f 10 00       	mov    $0x106fec,%edx
  104d57:	c7 44 24 10 69 00 00 	movl   $0x69,0x10(%esp)
  104d5e:	00 
  104d5f:	89 4c 24 08          	mov    %ecx,0x8(%esp)
  104d63:	89 5c 24 0c          	mov    %ebx,0xc(%esp)
  104d67:	89 04 24             	mov    %eax,(%esp)
  104d6a:	89 54 24 04          	mov    %edx,0x4(%esp)
  104d6e:	e8 24 db ff ff       	call   102897 <_d_assert_msg>
  104d73:	83 c4 14             	add    $0x14,%esp
  104d76:	5b                   	pop    %ebx
  104d77:	5d                   	pop    %ebp
  104d78:	c3                   	ret    

00104d79 <_Unwind_Resume>:
  104d79:	55                   	push   %ebp
  104d7a:	89 e5                	mov    %esp,%ebp
  104d7c:	53                   	push   %ebx
  104d7d:	83 ec 14             	sub    $0x14,%esp
  104d80:	b9 18 00 00 00       	mov    $0x18,%ecx
  104d85:	bb 4c 5e 10 00       	mov    $0x105e4c,%ebx
  104d8a:	b8 36 00 00 00       	mov    $0x36,%eax
  104d8f:	ba 30 70 10 00       	mov    $0x107030,%edx
  104d94:	c7 44 24 10 6a 00 00 	movl   $0x6a,0x10(%esp)
  104d9b:	00 
  104d9c:	89 4c 24 08          	mov    %ecx,0x8(%esp)
  104da0:	89 5c 24 0c          	mov    %ebx,0xc(%esp)
  104da4:	89 04 24             	mov    %eax,(%esp)
  104da7:	89 54 24 04          	mov    %edx,0x4(%esp)
  104dab:	e8 e7 da ff ff       	call   102897 <_d_assert_msg>
  104db0:	83 c4 14             	add    $0x14,%esp
  104db3:	5b                   	pop    %ebx
  104db4:	5d                   	pop    %ebp
  104db5:	c3                   	ret    

00104db6 <_Unwind_Resume_or_Rethrow>:
  104db6:	55                   	push   %ebp
  104db7:	89 e5                	mov    %esp,%ebp
  104db9:	53                   	push   %ebx
  104dba:	83 ec 14             	sub    $0x14,%esp
  104dbd:	b9 18 00 00 00       	mov    $0x18,%ecx
  104dc2:	bb 4c 5e 10 00       	mov    $0x105e4c,%ebx
  104dc7:	b8 42 00 00 00       	mov    $0x42,%eax
  104dcc:	ba 68 70 10 00       	mov    $0x107068,%edx
  104dd1:	c7 44 24 10 6b 00 00 	movl   $0x6b,0x10(%esp)
  104dd8:	00 
  104dd9:	89 4c 24 08          	mov    %ecx,0x8(%esp)
  104ddd:	89 5c 24 0c          	mov    %ebx,0xc(%esp)
  104de1:	89 04 24             	mov    %eax,(%esp)
  104de4:	89 54 24 04          	mov    %edx,0x4(%esp)
  104de8:	e8 aa da ff ff       	call   102897 <_d_assert_msg>
  104ded:	83 c4 14             	add    $0x14,%esp
  104df0:	5b                   	pop    %ebx
  104df1:	5d                   	pop    %ebp
  104df2:	c3                   	ret    

00104df3 <_Unwind_Backtrace>:
  104df3:	55                   	push   %ebp
  104df4:	89 e5                	mov    %esp,%ebp
  104df6:	53                   	push   %ebx
  104df7:	83 ec 14             	sub    $0x14,%esp
  104dfa:	b9 18 00 00 00       	mov    $0x18,%ecx
  104dff:	bb 4c 5e 10 00       	mov    $0x105e4c,%ebx
  104e04:	b8 3a 00 00 00       	mov    $0x3a,%eax
  104e09:	ba ac 70 10 00       	mov    $0x1070ac,%edx
  104e0e:	c7 44 24 10 6c 00 00 	movl   $0x6c,0x10(%esp)
  104e15:	00 
  104e16:	89 4c 24 08          	mov    %ecx,0x8(%esp)
  104e1a:	89 5c 24 0c          	mov    %ebx,0xc(%esp)
  104e1e:	89 04 24             	mov    %eax,(%esp)
  104e21:	89 54 24 04          	mov    %edx,0x4(%esp)
  104e25:	e8 6d da ff ff       	call   102897 <_d_assert_msg>
  104e2a:	83 c4 14             	add    $0x14,%esp
  104e2d:	5b                   	pop    %ebx
  104e2e:	5d                   	pop    %ebp
  104e2f:	c3                   	ret    

00104e30 <_Unwind_GetGR>:
  104e30:	55                   	push   %ebp
  104e31:	89 e5                	mov    %esp,%ebp
  104e33:	53                   	push   %ebx
  104e34:	83 ec 14             	sub    $0x14,%esp
  104e37:	b9 18 00 00 00       	mov    $0x18,%ecx
  104e3c:	bb 4c 5e 10 00       	mov    $0x105e4c,%ebx
  104e41:	b8 36 00 00 00       	mov    $0x36,%eax
  104e46:	ba e8 70 10 00       	mov    $0x1070e8,%edx
  104e4b:	c7 44 24 10 6d 00 00 	movl   $0x6d,0x10(%esp)
  104e52:	00 
  104e53:	89 4c 24 08          	mov    %ecx,0x8(%esp)
  104e57:	89 5c 24 0c          	mov    %ebx,0xc(%esp)
  104e5b:	89 04 24             	mov    %eax,(%esp)
  104e5e:	89 54 24 04          	mov    %edx,0x4(%esp)
  104e62:	e8 30 da ff ff       	call   102897 <_d_assert_msg>
  104e67:	83 c4 14             	add    $0x14,%esp
  104e6a:	5b                   	pop    %ebx
  104e6b:	5d                   	pop    %ebp
  104e6c:	c3                   	ret    

00104e6d <_Unwind_SetGR>:
  104e6d:	55                   	push   %ebp
  104e6e:	89 e5                	mov    %esp,%ebp
  104e70:	53                   	push   %ebx
  104e71:	83 ec 14             	sub    $0x14,%esp
  104e74:	b9 18 00 00 00       	mov    $0x18,%ecx
  104e79:	bb 4c 5e 10 00       	mov    $0x105e4c,%ebx
  104e7e:	b8 36 00 00 00       	mov    $0x36,%eax
  104e83:	ba 20 71 10 00       	mov    $0x107120,%edx
  104e88:	c7 44 24 10 6e 00 00 	movl   $0x6e,0x10(%esp)
  104e8f:	00 
  104e90:	89 4c 24 08          	mov    %ecx,0x8(%esp)
  104e94:	89 5c 24 0c          	mov    %ebx,0xc(%esp)
  104e98:	89 04 24             	mov    %eax,(%esp)
  104e9b:	89 54 24 04          	mov    %edx,0x4(%esp)
  104e9f:	e8 f3 d9 ff ff       	call   102897 <_d_assert_msg>
  104ea4:	83 c4 14             	add    $0x14,%esp
  104ea7:	5b                   	pop    %ebx
  104ea8:	5d                   	pop    %ebp
  104ea9:	c3                   	ret    

00104eaa <_Unwind_GetIP>:
  104eaa:	55                   	push   %ebp
  104eab:	89 e5                	mov    %esp,%ebp
  104ead:	53                   	push   %ebx
  104eae:	83 ec 14             	sub    $0x14,%esp
  104eb1:	b9 18 00 00 00       	mov    $0x18,%ecx
  104eb6:	bb 4c 5e 10 00       	mov    $0x105e4c,%ebx
  104ebb:	b8 36 00 00 00       	mov    $0x36,%eax
  104ec0:	ba 58 71 10 00       	mov    $0x107158,%edx
  104ec5:	c7 44 24 10 6f 00 00 	movl   $0x6f,0x10(%esp)
  104ecc:	00 
  104ecd:	89 4c 24 08          	mov    %ecx,0x8(%esp)
  104ed1:	89 5c 24 0c          	mov    %ebx,0xc(%esp)
  104ed5:	89 04 24             	mov    %eax,(%esp)
  104ed8:	89 54 24 04          	mov    %edx,0x4(%esp)
  104edc:	e8 b6 d9 ff ff       	call   102897 <_d_assert_msg>
  104ee1:	83 c4 14             	add    $0x14,%esp
  104ee4:	5b                   	pop    %ebx
  104ee5:	5d                   	pop    %ebp
  104ee6:	c3                   	ret    

00104ee7 <_Unwind_SetIP>:
  104ee7:	55                   	push   %ebp
  104ee8:	89 e5                	mov    %esp,%ebp
  104eea:	53                   	push   %ebx
  104eeb:	83 ec 14             	sub    $0x14,%esp
  104eee:	b9 18 00 00 00       	mov    $0x18,%ecx
  104ef3:	bb 4c 5e 10 00       	mov    $0x105e4c,%ebx
  104ef8:	b8 36 00 00 00       	mov    $0x36,%eax
  104efd:	ba 90 71 10 00       	mov    $0x107190,%edx
  104f02:	c7 44 24 10 70 00 00 	movl   $0x70,0x10(%esp)
  104f09:	00 
  104f0a:	89 4c 24 08          	mov    %ecx,0x8(%esp)
  104f0e:	89 5c 24 0c          	mov    %ebx,0xc(%esp)
  104f12:	89 04 24             	mov    %eax,(%esp)
  104f15:	89 54 24 04          	mov    %edx,0x4(%esp)
  104f19:	e8 79 d9 ff ff       	call   102897 <_d_assert_msg>
  104f1e:	83 c4 14             	add    $0x14,%esp
  104f21:	5b                   	pop    %ebx
  104f22:	5d                   	pop    %ebp
  104f23:	c3                   	ret    

00104f24 <_Unwind_GetCFA>:
  104f24:	55                   	push   %ebp
  104f25:	89 e5                	mov    %esp,%ebp
  104f27:	53                   	push   %ebx
  104f28:	83 ec 14             	sub    $0x14,%esp
  104f2b:	b9 18 00 00 00       	mov    $0x18,%ecx
  104f30:	bb 4c 5e 10 00       	mov    $0x105e4c,%ebx
  104f35:	b8 37 00 00 00       	mov    $0x37,%eax
  104f3a:	ba c8 71 10 00       	mov    $0x1071c8,%edx
  104f3f:	c7 44 24 10 71 00 00 	movl   $0x71,0x10(%esp)
  104f46:	00 
  104f47:	89 4c 24 08          	mov    %ecx,0x8(%esp)
  104f4b:	89 5c 24 0c          	mov    %ebx,0xc(%esp)
  104f4f:	89 04 24             	mov    %eax,(%esp)
  104f52:	89 54 24 04          	mov    %edx,0x4(%esp)
  104f56:	e8 3c d9 ff ff       	call   102897 <_d_assert_msg>
  104f5b:	83 c4 14             	add    $0x14,%esp
  104f5e:	5b                   	pop    %ebx
  104f5f:	5d                   	pop    %ebp
  104f60:	c3                   	ret    

00104f61 <_Unwind_GetLanguageSpecificData>:
  104f61:	55                   	push   %ebp
  104f62:	89 e5                	mov    %esp,%ebp
  104f64:	53                   	push   %ebx
  104f65:	83 ec 24             	sub    $0x24,%esp
  104f68:	b9 18 00 00 00       	mov    $0x18,%ecx
  104f6d:	bb 4c 5e 10 00       	mov    $0x105e4c,%ebx
  104f72:	b8 49 00 00 00       	mov    $0x49,%eax
  104f77:	ba 00 72 10 00       	mov    $0x107200,%edx
  104f7c:	c7 44 24 10 72 00 00 	movl   $0x72,0x10(%esp)
  104f83:	00 
  104f84:	89 4c 24 08          	mov    %ecx,0x8(%esp)
  104f88:	89 5c 24 0c          	mov    %ebx,0xc(%esp)
  104f8c:	89 04 24             	mov    %eax,(%esp)
  104f8f:	89 54 24 04          	mov    %edx,0x4(%esp)
  104f93:	e8 ff d8 ff ff       	call   102897 <_d_assert_msg>
  104f98:	83 c4 24             	add    $0x24,%esp
  104f9b:	5b                   	pop    %ebx
  104f9c:	5d                   	pop    %ebp
  104f9d:	c3                   	ret    

00104f9e <_Unwind_GetRegionStart>:
  104f9e:	55                   	push   %ebp
  104f9f:	89 e5                	mov    %esp,%ebp
  104fa1:	53                   	push   %ebx
  104fa2:	83 ec 14             	sub    $0x14,%esp
  104fa5:	b9 18 00 00 00       	mov    $0x18,%ecx
  104faa:	bb 4c 5e 10 00       	mov    $0x105e4c,%ebx
  104faf:	b8 3f 00 00 00       	mov    $0x3f,%eax
  104fb4:	ba 4c 72 10 00       	mov    $0x10724c,%edx
  104fb9:	c7 44 24 10 73 00 00 	movl   $0x73,0x10(%esp)
  104fc0:	00 
  104fc1:	89 4c 24 08          	mov    %ecx,0x8(%esp)
  104fc5:	89 5c 24 0c          	mov    %ebx,0xc(%esp)
  104fc9:	89 04 24             	mov    %eax,(%esp)
  104fcc:	89 54 24 04          	mov    %edx,0x4(%esp)
  104fd0:	e8 c2 d8 ff ff       	call   102897 <_d_assert_msg>
  104fd5:	83 c4 14             	add    $0x14,%esp
  104fd8:	5b                   	pop    %ebx
  104fd9:	5d                   	pop    %ebp
  104fda:	c3                   	ret    

00104fdb <_Unwind_SjLj_RaiseException>:
  104fdb:	55                   	push   %ebp
  104fdc:	89 e5                	mov    %esp,%ebp
  104fde:	53                   	push   %ebx
  104fdf:	83 ec 14             	sub    $0x14,%esp
  104fe2:	b9 18 00 00 00       	mov    $0x18,%ecx
  104fe7:	bb 4c 5e 10 00       	mov    $0x105e4c,%ebx
  104fec:	b8 43 00 00 00       	mov    $0x43,%eax
  104ff1:	ba 8c 72 10 00       	mov    $0x10728c,%edx
  104ff6:	c7 44 24 10 74 00 00 	movl   $0x74,0x10(%esp)
  104ffd:	00 
  104ffe:	89 4c 24 08          	mov    %ecx,0x8(%esp)
  105002:	89 5c 24 0c          	mov    %ebx,0xc(%esp)
  105006:	89 04 24             	mov    %eax,(%esp)
  105009:	89 54 24 04          	mov    %edx,0x4(%esp)
  10500d:	e8 85 d8 ff ff       	call   102897 <_d_assert_msg>
  105012:	83 c4 14             	add    $0x14,%esp
  105015:	5b                   	pop    %ebx
  105016:	5d                   	pop    %ebp
  105017:	c3                   	ret    

00105018 <_Unwind_SjLj_ForcedUnwind>:
  105018:	55                   	push   %ebp
  105019:	89 e5                	mov    %esp,%ebp
  10501b:	53                   	push   %ebx
  10501c:	83 ec 14             	sub    $0x14,%esp
  10501f:	b9 18 00 00 00       	mov    $0x18,%ecx
  105024:	bb 4c 5e 10 00       	mov    $0x105e4c,%ebx
  105029:	b8 41 00 00 00       	mov    $0x41,%eax
  10502e:	ba d0 72 10 00       	mov    $0x1072d0,%edx
  105033:	c7 44 24 10 75 00 00 	movl   $0x75,0x10(%esp)
  10503a:	00 
  10503b:	89 4c 24 08          	mov    %ecx,0x8(%esp)
  10503f:	89 5c 24 0c          	mov    %ebx,0xc(%esp)
  105043:	89 04 24             	mov    %eax,(%esp)
  105046:	89 54 24 04          	mov    %edx,0x4(%esp)
  10504a:	e8 48 d8 ff ff       	call   102897 <_d_assert_msg>
  10504f:	83 c4 14             	add    $0x14,%esp
  105052:	5b                   	pop    %ebx
  105053:	5d                   	pop    %ebp
  105054:	c3                   	ret    

00105055 <_Unwind_SjLj_Resume>:
  105055:	55                   	push   %ebp
  105056:	89 e5                	mov    %esp,%ebp
  105058:	53                   	push   %ebx
  105059:	83 ec 14             	sub    $0x14,%esp
  10505c:	b9 18 00 00 00       	mov    $0x18,%ecx
  105061:	bb 4c 5e 10 00       	mov    $0x105e4c,%ebx
  105066:	b8 3c 00 00 00       	mov    $0x3c,%eax
  10506b:	ba 14 73 10 00       	mov    $0x107314,%edx
  105070:	c7 44 24 10 76 00 00 	movl   $0x76,0x10(%esp)
  105077:	00 
  105078:	89 4c 24 08          	mov    %ecx,0x8(%esp)
  10507c:	89 5c 24 0c          	mov    %ebx,0xc(%esp)
  105080:	89 04 24             	mov    %eax,(%esp)
  105083:	89 54 24 04          	mov    %edx,0x4(%esp)
  105087:	e8 0b d8 ff ff       	call   102897 <_d_assert_msg>
  10508c:	83 c4 14             	add    $0x14,%esp
  10508f:	5b                   	pop    %ebx
  105090:	5d                   	pop    %ebp
  105091:	c3                   	ret    

00105092 <_Unwind_GetDataRelBase>:
  105092:	55                   	push   %ebp
  105093:	89 e5                	mov    %esp,%ebp
  105095:	53                   	push   %ebx
  105096:	83 ec 14             	sub    $0x14,%esp
  105099:	b9 18 00 00 00       	mov    $0x18,%ecx
  10509e:	bb 4c 5e 10 00       	mov    $0x105e4c,%ebx
  1050a3:	b8 3f 00 00 00       	mov    $0x3f,%eax
  1050a8:	ba 54 73 10 00       	mov    $0x107354,%edx
  1050ad:	c7 44 24 10 77 00 00 	movl   $0x77,0x10(%esp)
  1050b4:	00 
  1050b5:	89 4c 24 08          	mov    %ecx,0x8(%esp)
  1050b9:	89 5c 24 0c          	mov    %ebx,0xc(%esp)
  1050bd:	89 04 24             	mov    %eax,(%esp)
  1050c0:	89 54 24 04          	mov    %edx,0x4(%esp)
  1050c4:	e8 ce d7 ff ff       	call   102897 <_d_assert_msg>
  1050c9:	83 c4 14             	add    $0x14,%esp
  1050cc:	5b                   	pop    %ebx
  1050cd:	5d                   	pop    %ebp
  1050ce:	c3                   	ret    

001050cf <_Unwind_GetTextRelBase>:
  1050cf:	55                   	push   %ebp
  1050d0:	89 e5                	mov    %esp,%ebp
  1050d2:	53                   	push   %ebx
  1050d3:	83 ec 14             	sub    $0x14,%esp
  1050d6:	b9 18 00 00 00       	mov    $0x18,%ecx
  1050db:	bb 4c 5e 10 00       	mov    $0x105e4c,%ebx
  1050e0:	b8 3f 00 00 00       	mov    $0x3f,%eax
  1050e5:	ba 94 73 10 00       	mov    $0x107394,%edx
  1050ea:	c7 44 24 10 78 00 00 	movl   $0x78,0x10(%esp)
  1050f1:	00 
  1050f2:	89 4c 24 08          	mov    %ecx,0x8(%esp)
  1050f6:	89 5c 24 0c          	mov    %ebx,0xc(%esp)
  1050fa:	89 04 24             	mov    %eax,(%esp)
  1050fd:	89 54 24 04          	mov    %edx,0x4(%esp)
  105101:	e8 91 d7 ff ff       	call   102897 <_d_assert_msg>
  105106:	83 c4 14             	add    $0x14,%esp
  105109:	5b                   	pop    %ebx
  10510a:	5d                   	pop    %ebp
  10510b:	c3                   	ret    

0010510c <size_of_encoded_value>:
  10510c:	55                   	push   %ebp
  10510d:	89 e5                	mov    %esp,%ebp
  10510f:	53                   	push   %ebx
  105110:	83 ec 24             	sub    $0x24,%esp
  105113:	b9 18 00 00 00       	mov    $0x18,%ecx
  105118:	bb 4c 5e 10 00       	mov    $0x105e4c,%ebx
  10511d:	b8 4c 00 00 00       	mov    $0x4c,%eax
  105122:	ba d4 73 10 00       	mov    $0x1073d4,%edx
  105127:	c7 44 24 10 79 00 00 	movl   $0x79,0x10(%esp)
  10512e:	00 
  10512f:	89 4c 24 08          	mov    %ecx,0x8(%esp)
  105133:	89 5c 24 0c          	mov    %ebx,0xc(%esp)
  105137:	89 04 24             	mov    %eax,(%esp)
  10513a:	89 54 24 04          	mov    %edx,0x4(%esp)
  10513e:	e8 54 d7 ff ff       	call   102897 <_d_assert_msg>
  105143:	83 c4 24             	add    $0x24,%esp
  105146:	5b                   	pop    %ebx
  105147:	5d                   	pop    %ebp
  105148:	c3                   	ret    

00105149 <base_of_encoded_value>:
  105149:	55                   	push   %ebp
  10514a:	89 e5                	mov    %esp,%ebp
  10514c:	53                   	push   %ebx
  10514d:	83 ec 14             	sub    $0x14,%esp
  105150:	b9 18 00 00 00       	mov    $0x18,%ecx
  105155:	bb 4c 5e 10 00       	mov    $0x105e4c,%ebx
  10515a:	b8 3e 00 00 00       	mov    $0x3e,%eax
  10515f:	ba 24 74 10 00       	mov    $0x107424,%edx
  105164:	c7 44 24 10 7a 00 00 	movl   $0x7a,0x10(%esp)
  10516b:	00 
  10516c:	89 4c 24 08          	mov    %ecx,0x8(%esp)
  105170:	89 5c 24 0c          	mov    %ebx,0xc(%esp)
  105174:	89 04 24             	mov    %eax,(%esp)
  105177:	89 54 24 04          	mov    %edx,0x4(%esp)
  10517b:	e8 17 d7 ff ff       	call   102897 <_d_assert_msg>
  105180:	83 c4 14             	add    $0x14,%esp
  105183:	5b                   	pop    %ebx
  105184:	5d                   	pop    %ebp
  105185:	c3                   	ret    

00105186 <read_uleb128>:
  105186:	55                   	push   %ebp
  105187:	89 e5                	mov    %esp,%ebp
  105189:	53                   	push   %ebx
  10518a:	83 ec 14             	sub    $0x14,%esp
  10518d:	b9 18 00 00 00       	mov    $0x18,%ecx
  105192:	bb 4c 5e 10 00       	mov    $0x105e4c,%ebx
  105197:	b8 34 00 00 00       	mov    $0x34,%eax
  10519c:	ba 64 74 10 00       	mov    $0x107464,%edx
  1051a1:	c7 44 24 10 7b 00 00 	movl   $0x7b,0x10(%esp)
  1051a8:	00 
  1051a9:	89 4c 24 08          	mov    %ecx,0x8(%esp)
  1051ad:	89 5c 24 0c          	mov    %ebx,0xc(%esp)
  1051b1:	89 04 24             	mov    %eax,(%esp)
  1051b4:	89 54 24 04          	mov    %edx,0x4(%esp)
  1051b8:	e8 da d6 ff ff       	call   102897 <_d_assert_msg>
  1051bd:	83 c4 14             	add    $0x14,%esp
  1051c0:	5b                   	pop    %ebx
  1051c1:	5d                   	pop    %ebp
  1051c2:	c3                   	ret    

001051c3 <read_sleb128>:
  1051c3:	55                   	push   %ebp
  1051c4:	89 e5                	mov    %esp,%ebp
  1051c6:	53                   	push   %ebx
  1051c7:	83 ec 14             	sub    $0x14,%esp
  1051ca:	b9 18 00 00 00       	mov    $0x18,%ecx
  1051cf:	bb 4c 5e 10 00       	mov    $0x105e4c,%ebx
  1051d4:	b8 34 00 00 00       	mov    $0x34,%eax
  1051d9:	ba 9c 74 10 00       	mov    $0x10749c,%edx
  1051de:	c7 44 24 10 7c 00 00 	movl   $0x7c,0x10(%esp)
  1051e5:	00 
  1051e6:	89 4c 24 08          	mov    %ecx,0x8(%esp)
  1051ea:	89 5c 24 0c          	mov    %ebx,0xc(%esp)
  1051ee:	89 04 24             	mov    %eax,(%esp)
  1051f1:	89 54 24 04          	mov    %edx,0x4(%esp)
  1051f5:	e8 9d d6 ff ff       	call   102897 <_d_assert_msg>
  1051fa:	83 c4 14             	add    $0x14,%esp
  1051fd:	5b                   	pop    %ebx
  1051fe:	5d                   	pop    %ebp
  1051ff:	c3                   	ret    

00105200 <read_encoded_value_with_base>:
  105200:	55                   	push   %ebp
  105201:	89 e5                	mov    %esp,%ebp
  105203:	53                   	push   %ebx
  105204:	83 ec 14             	sub    $0x14,%esp
  105207:	b9 18 00 00 00       	mov    $0x18,%ecx
  10520c:	bb 4c 5e 10 00       	mov    $0x105e4c,%ebx
  105211:	b8 44 00 00 00       	mov    $0x44,%eax
  105216:	ba d4 74 10 00       	mov    $0x1074d4,%edx
  10521b:	c7 44 24 10 7d 00 00 	movl   $0x7d,0x10(%esp)
  105222:	00 
  105223:	89 4c 24 08          	mov    %ecx,0x8(%esp)
  105227:	89 5c 24 0c          	mov    %ebx,0xc(%esp)
  10522b:	89 04 24             	mov    %eax,(%esp)
  10522e:	89 54 24 04          	mov    %edx,0x4(%esp)
  105232:	e8 60 d6 ff ff       	call   102897 <_d_assert_msg>
  105237:	83 c4 14             	add    $0x14,%esp
  10523a:	5b                   	pop    %ebx
  10523b:	5d                   	pop    %ebp
  10523c:	c3                   	ret    

0010523d <read_encoded_value>:
  10523d:	55                   	push   %ebp
  10523e:	89 e5                	mov    %esp,%ebp
  105240:	53                   	push   %ebx
  105241:	83 ec 14             	sub    $0x14,%esp
  105244:	b9 18 00 00 00       	mov    $0x18,%ecx
  105249:	bb 4c 5e 10 00       	mov    $0x105e4c,%ebx
  10524e:	b8 3a 00 00 00       	mov    $0x3a,%eax
  105253:	ba 1c 75 10 00       	mov    $0x10751c,%edx
  105258:	c7 44 24 10 7e 00 00 	movl   $0x7e,0x10(%esp)
  10525f:	00 
  105260:	89 4c 24 08          	mov    %ecx,0x8(%esp)
  105264:	89 5c 24 0c          	mov    %ebx,0xc(%esp)
  105268:	89 04 24             	mov    %eax,(%esp)
  10526b:	89 54 24 04          	mov    %edx,0x4(%esp)
  10526f:	e8 23 d6 ff ff       	call   102897 <_d_assert_msg>
  105274:	83 c4 14             	add    $0x14,%esp
  105277:	5b                   	pop    %ebx
  105278:	5d                   	pop    %ebp
  105279:	c3                   	ret    

0010527a <_aaLen>:
  10527a:	55                   	push   %ebp
  10527b:	89 e5                	mov    %esp,%ebp
  10527d:	53                   	push   %ebx
  10527e:	83 ec 24             	sub    $0x24,%esp
  105281:	b9 18 00 00 00       	mov    $0x18,%ecx
  105286:	bb 4c 5e 10 00       	mov    $0x105e4c,%ebx
  10528b:	b8 35 00 00 00       	mov    $0x35,%eax
  105290:	ba 58 75 10 00       	mov    $0x107558,%edx
  105295:	c7 44 24 10 84 00 00 	movl   $0x84,0x10(%esp)
  10529c:	00 
  10529d:	89 4c 24 08          	mov    %ecx,0x8(%esp)
  1052a1:	89 5c 24 0c          	mov    %ebx,0xc(%esp)
  1052a5:	89 04 24             	mov    %eax,(%esp)
  1052a8:	89 54 24 04          	mov    %edx,0x4(%esp)
  1052ac:	e8 e6 d5 ff ff       	call   102897 <_d_assert_msg>
  1052b1:	83 c4 24             	add    $0x24,%esp
  1052b4:	5b                   	pop    %ebx
  1052b5:	5d                   	pop    %ebp
  1052b6:	c3                   	ret    

001052b7 <_aaGetp>:
  1052b7:	55                   	push   %ebp
  1052b8:	89 e5                	mov    %esp,%ebp
  1052ba:	53                   	push   %ebx
  1052bb:	83 ec 24             	sub    $0x24,%esp
  1052be:	b9 18 00 00 00       	mov    $0x18,%ecx
  1052c3:	bb 4c 5e 10 00       	mov    $0x105e4c,%ebx
  1052c8:	b8 64 00 00 00       	mov    $0x64,%eax
  1052cd:	ba 90 75 10 00       	mov    $0x107590,%edx
  1052d2:	c7 44 24 10 85 00 00 	movl   $0x85,0x10(%esp)
  1052d9:	00 
  1052da:	89 4c 24 08          	mov    %ecx,0x8(%esp)
  1052de:	89 5c 24 0c          	mov    %ebx,0xc(%esp)
  1052e2:	89 04 24             	mov    %eax,(%esp)
  1052e5:	89 54 24 04          	mov    %edx,0x4(%esp)
  1052e9:	e8 a9 d5 ff ff       	call   102897 <_d_assert_msg>
  1052ee:	83 c4 24             	add    $0x24,%esp
  1052f1:	5b                   	pop    %ebx
  1052f2:	5d                   	pop    %ebp
  1052f3:	c3                   	ret    

001052f4 <_aaGetRvaluep>:
  1052f4:	55                   	push   %ebp
  1052f5:	89 e5                	mov    %esp,%ebp
  1052f7:	53                   	push   %ebx
  1052f8:	83 ec 24             	sub    $0x24,%esp
  1052fb:	b9 18 00 00 00       	mov    $0x18,%ecx
  105300:	bb 4c 5e 10 00       	mov    $0x105e4c,%ebx
  105305:	b8 69 00 00 00       	mov    $0x69,%eax
  10530a:	ba f8 75 10 00       	mov    $0x1075f8,%edx
  10530f:	c7 44 24 10 86 00 00 	movl   $0x86,0x10(%esp)
  105316:	00 
  105317:	89 4c 24 08          	mov    %ecx,0x8(%esp)
  10531b:	89 5c 24 0c          	mov    %ebx,0xc(%esp)
  10531f:	89 04 24             	mov    %eax,(%esp)
  105322:	89 54 24 04          	mov    %edx,0x4(%esp)
  105326:	e8 6c d5 ff ff       	call   102897 <_d_assert_msg>
  10532b:	83 c4 24             	add    $0x24,%esp
  10532e:	5b                   	pop    %ebx
  10532f:	5d                   	pop    %ebp
  105330:	c3                   	ret    

00105331 <_aaInp>:
  105331:	55                   	push   %ebp
  105332:	89 e5                	mov    %esp,%ebp
  105334:	53                   	push   %ebx
  105335:	83 ec 24             	sub    $0x24,%esp
  105338:	b9 18 00 00 00       	mov    $0x18,%ecx
  10533d:	bb 4c 5e 10 00       	mov    $0x105e4c,%ebx
  105342:	b8 50 00 00 00       	mov    $0x50,%eax
  105347:	ba 64 76 10 00       	mov    $0x107664,%edx
  10534c:	c7 44 24 10 87 00 00 	movl   $0x87,0x10(%esp)
  105353:	00 
  105354:	89 4c 24 08          	mov    %ecx,0x8(%esp)
  105358:	89 5c 24 0c          	mov    %ebx,0xc(%esp)
  10535c:	89 04 24             	mov    %eax,(%esp)
  10535f:	89 54 24 04          	mov    %edx,0x4(%esp)
  105363:	e8 2f d5 ff ff       	call   102897 <_d_assert_msg>
  105368:	83 c4 24             	add    $0x24,%esp
  10536b:	5b                   	pop    %ebx
  10536c:	5d                   	pop    %ebp
  10536d:	c3                   	ret    

0010536e <_aaDelp>:
  10536e:	55                   	push   %ebp
  10536f:	89 e5                	mov    %esp,%ebp
  105371:	53                   	push   %ebx
  105372:	83 ec 14             	sub    $0x14,%esp
  105375:	b9 18 00 00 00       	mov    $0x18,%ecx
  10537a:	bb 4c 5e 10 00       	mov    $0x105e4c,%ebx
  10537f:	b8 50 00 00 00       	mov    $0x50,%eax
  105384:	ba b8 76 10 00       	mov    $0x1076b8,%edx
  105389:	c7 44 24 10 88 00 00 	movl   $0x88,0x10(%esp)
  105390:	00 
  105391:	89 4c 24 08          	mov    %ecx,0x8(%esp)
  105395:	89 5c 24 0c          	mov    %ebx,0xc(%esp)
  105399:	89 04 24             	mov    %eax,(%esp)
  10539c:	89 54 24 04          	mov    %edx,0x4(%esp)
  1053a0:	e8 f2 d4 ff ff       	call   102897 <_d_assert_msg>
  1053a5:	83 c4 14             	add    $0x14,%esp
  1053a8:	5b                   	pop    %ebx
  1053a9:	5d                   	pop    %ebp
  1053aa:	c3                   	ret    

001053ab <_aaValues>:
  1053ab:	55                   	push   %ebp
  1053ac:	89 e5                	mov    %esp,%ebp
  1053ae:	53                   	push   %ebx
  1053af:	83 ec 14             	sub    $0x14,%esp
  1053b2:	b9 18 00 00 00       	mov    $0x18,%ecx
  1053b7:	bb 4c 5e 10 00       	mov    $0x105e4c,%ebx
  1053bc:	b8 59 00 00 00       	mov    $0x59,%eax
  1053c1:	ba 0c 77 10 00       	mov    $0x10770c,%edx
  1053c6:	c7 44 24 10 89 00 00 	movl   $0x89,0x10(%esp)
  1053cd:	00 
  1053ce:	89 4c 24 08          	mov    %ecx,0x8(%esp)
  1053d2:	89 5c 24 0c          	mov    %ebx,0xc(%esp)
  1053d6:	89 04 24             	mov    %eax,(%esp)
  1053d9:	89 54 24 04          	mov    %edx,0x4(%esp)
  1053dd:	e8 b5 d4 ff ff       	call   102897 <_d_assert_msg>
  1053e2:	83 c4 14             	add    $0x14,%esp
  1053e5:	5b                   	pop    %ebx
  1053e6:	5d                   	pop    %ebp
  1053e7:	c2 04 00             	ret    $0x4

001053ea <_aaRehash>:
  1053ea:	55                   	push   %ebp
  1053eb:	89 e5                	mov    %esp,%ebp
  1053ed:	53                   	push   %ebx
  1053ee:	83 ec 14             	sub    $0x14,%esp
  1053f1:	b9 18 00 00 00       	mov    $0x18,%ecx
  1053f6:	bb 4c 5e 10 00       	mov    $0x105e4c,%ebx
  1053fb:	b8 46 00 00 00       	mov    $0x46,%eax
  105400:	ba 68 77 10 00       	mov    $0x107768,%edx
  105405:	c7 44 24 10 8a 00 00 	movl   $0x8a,0x10(%esp)
  10540c:	00 
  10540d:	89 4c 24 08          	mov    %ecx,0x8(%esp)
  105411:	89 5c 24 0c          	mov    %ebx,0xc(%esp)
  105415:	89 04 24             	mov    %eax,(%esp)
  105418:	89 54 24 04          	mov    %edx,0x4(%esp)
  10541c:	e8 76 d4 ff ff       	call   102897 <_d_assert_msg>
  105421:	83 c4 14             	add    $0x14,%esp
  105424:	5b                   	pop    %ebx
  105425:	5d                   	pop    %ebp
  105426:	c2 04 00             	ret    $0x4

00105429 <_aaKeys>:
  105429:	55                   	push   %ebp
  10542a:	89 e5                	mov    %esp,%ebp
  10542c:	53                   	push   %ebx
  10542d:	83 ec 14             	sub    $0x14,%esp
  105430:	b9 18 00 00 00       	mov    $0x18,%ecx
  105435:	bb 4c 5e 10 00       	mov    $0x105e4c,%ebx
  10543a:	b8 45 00 00 00       	mov    $0x45,%eax
  10543f:	ba b0 77 10 00       	mov    $0x1077b0,%edx
  105444:	c7 44 24 10 8b 00 00 	movl   $0x8b,0x10(%esp)
  10544b:	00 
  10544c:	89 4c 24 08          	mov    %ecx,0x8(%esp)
  105450:	89 5c 24 0c          	mov    %ebx,0xc(%esp)
  105454:	89 04 24             	mov    %eax,(%esp)
  105457:	89 54 24 04          	mov    %edx,0x4(%esp)
  10545b:	e8 37 d4 ff ff       	call   102897 <_d_assert_msg>
  105460:	83 c4 14             	add    $0x14,%esp
  105463:	5b                   	pop    %ebx
  105464:	5d                   	pop    %ebp
  105465:	c2 04 00             	ret    $0x4

00105468 <_aaApply>:
  105468:	55                   	push   %ebp
  105469:	89 e5                	mov    %esp,%ebp
  10546b:	53                   	push   %ebx
  10546c:	83 ec 24             	sub    $0x24,%esp
  10546f:	b9 18 00 00 00       	mov    $0x18,%ecx
  105474:	bb 4c 5e 10 00       	mov    $0x105e4c,%ebx
  105479:	b8 50 00 00 00       	mov    $0x50,%eax
  10547e:	ba f8 77 10 00       	mov    $0x1077f8,%edx
  105483:	c7 44 24 10 8c 00 00 	movl   $0x8c,0x10(%esp)
  10548a:	00 
  10548b:	89 4c 24 08          	mov    %ecx,0x8(%esp)
  10548f:	89 5c 24 0c          	mov    %ebx,0xc(%esp)
  105493:	89 04 24             	mov    %eax,(%esp)
  105496:	89 54 24 04          	mov    %edx,0x4(%esp)
  10549a:	e8 f8 d3 ff ff       	call   102897 <_d_assert_msg>
  10549f:	83 c4 24             	add    $0x24,%esp
  1054a2:	5b                   	pop    %ebx
  1054a3:	5d                   	pop    %ebp
  1054a4:	c3                   	ret    

001054a5 <_aaApply2>:
  1054a5:	55                   	push   %ebp
  1054a6:	89 e5                	mov    %esp,%ebp
  1054a8:	53                   	push   %ebx
  1054a9:	83 ec 24             	sub    $0x24,%esp
  1054ac:	b9 18 00 00 00       	mov    $0x18,%ecx
  1054b1:	bb 4c 5e 10 00       	mov    $0x105e4c,%ebx
  1054b6:	b8 52 00 00 00       	mov    $0x52,%eax
  1054bb:	ba 4c 78 10 00       	mov    $0x10784c,%edx
  1054c0:	c7 44 24 10 8d 00 00 	movl   $0x8d,0x10(%esp)
  1054c7:	00 
  1054c8:	89 4c 24 08          	mov    %ecx,0x8(%esp)
  1054cc:	89 5c 24 0c          	mov    %ebx,0xc(%esp)
  1054d0:	89 04 24             	mov    %eax,(%esp)
  1054d3:	89 54 24 04          	mov    %edx,0x4(%esp)
  1054d7:	e8 bb d3 ff ff       	call   102897 <_d_assert_msg>
  1054dc:	83 c4 24             	add    $0x24,%esp
  1054df:	5b                   	pop    %ebx
  1054e0:	5d                   	pop    %ebp
  1054e1:	c3                   	ret    

001054e2 <_d_assocarrayliteralTp>:
  1054e2:	55                   	push   %ebp
  1054e3:	89 e5                	mov    %esp,%ebp
  1054e5:	53                   	push   %ebx
  1054e6:	83 ec 24             	sub    $0x24,%esp
  1054e9:	b9 18 00 00 00       	mov    $0x18,%ecx
  1054ee:	bb 4c 5e 10 00       	mov    $0x105e4c,%ebx
  1054f3:	b8 82 00 00 00       	mov    $0x82,%eax
  1054f8:	ba a0 78 10 00       	mov    $0x1078a0,%edx
  1054fd:	c7 44 24 10 8e 00 00 	movl   $0x8e,0x10(%esp)
  105504:	00 
  105505:	89 4c 24 08          	mov    %ecx,0x8(%esp)
  105509:	89 5c 24 0c          	mov    %ebx,0xc(%esp)
  10550d:	89 04 24             	mov    %eax,(%esp)
  105510:	89 54 24 04          	mov    %edx,0x4(%esp)
  105514:	e8 7e d3 ff ff       	call   102897 <_d_assert_msg>
  105519:	83 c4 24             	add    $0x24,%esp
  10551c:	5b                   	pop    %ebx
  10551d:	5d                   	pop    %ebp
  10551e:	c3                   	ret    

0010551f <_aApplycw1>:
  10551f:	55                   	push   %ebp
  105520:	89 e5                	mov    %esp,%ebp
  105522:	53                   	push   %ebx
  105523:	83 ec 24             	sub    $0x24,%esp
  105526:	b9 18 00 00 00       	mov    $0x18,%ecx
  10552b:	bb 4c 5e 10 00       	mov    $0x105e4c,%ebx
  105530:	b8 49 00 00 00       	mov    $0x49,%eax
  105535:	ba 24 79 10 00       	mov    $0x107924,%edx
  10553a:	c7 44 24 10 94 00 00 	movl   $0x94,0x10(%esp)
  105541:	00 
  105542:	89 4c 24 08          	mov    %ecx,0x8(%esp)
  105546:	89 5c 24 0c          	mov    %ebx,0xc(%esp)
  10554a:	89 04 24             	mov    %eax,(%esp)
  10554d:	89 54 24 04          	mov    %edx,0x4(%esp)
  105551:	e8 41 d3 ff ff       	call   102897 <_d_assert_msg>
  105556:	83 c4 24             	add    $0x24,%esp
  105559:	5b                   	pop    %ebx
  10555a:	5d                   	pop    %ebp
  10555b:	c3                   	ret    

0010555c <_aApplycd1>:
  10555c:	55                   	push   %ebp
  10555d:	89 e5                	mov    %esp,%ebp
  10555f:	53                   	push   %ebx
  105560:	83 ec 24             	sub    $0x24,%esp
  105563:	b9 18 00 00 00       	mov    $0x18,%ecx
  105568:	bb 4c 5e 10 00       	mov    $0x105e4c,%ebx
  10556d:	b8 49 00 00 00       	mov    $0x49,%eax
  105572:	ba 70 79 10 00       	mov    $0x107970,%edx
  105577:	c7 44 24 10 95 00 00 	movl   $0x95,0x10(%esp)
  10557e:	00 
  10557f:	89 4c 24 08          	mov    %ecx,0x8(%esp)
  105583:	89 5c 24 0c          	mov    %ebx,0xc(%esp)
  105587:	89 04 24             	mov    %eax,(%esp)
  10558a:	89 54 24 04          	mov    %edx,0x4(%esp)
  10558e:	e8 04 d3 ff ff       	call   102897 <_d_assert_msg>
  105593:	83 c4 24             	add    $0x24,%esp
  105596:	5b                   	pop    %ebx
  105597:	5d                   	pop    %ebp
  105598:	c3                   	ret    

00105599 <_aApplywc1>:
  105599:	55                   	push   %ebp
  10559a:	89 e5                	mov    %esp,%ebp
  10559c:	53                   	push   %ebx
  10559d:	83 ec 24             	sub    $0x24,%esp
  1055a0:	b9 18 00 00 00       	mov    $0x18,%ecx
  1055a5:	bb 4c 5e 10 00       	mov    $0x105e4c,%ebx
  1055aa:	b8 4a 00 00 00       	mov    $0x4a,%eax
  1055af:	ba bc 79 10 00       	mov    $0x1079bc,%edx
  1055b4:	c7 44 24 10 96 00 00 	movl   $0x96,0x10(%esp)
  1055bb:	00 
  1055bc:	89 4c 24 08          	mov    %ecx,0x8(%esp)
  1055c0:	89 5c 24 0c          	mov    %ebx,0xc(%esp)
  1055c4:	89 04 24             	mov    %eax,(%esp)
  1055c7:	89 54 24 04          	mov    %edx,0x4(%esp)
  1055cb:	e8 c7 d2 ff ff       	call   102897 <_d_assert_msg>
  1055d0:	83 c4 24             	add    $0x24,%esp
  1055d3:	5b                   	pop    %ebx
  1055d4:	5d                   	pop    %ebp
  1055d5:	c3                   	ret    

001055d6 <_aApplywd1>:
  1055d6:	55                   	push   %ebp
  1055d7:	89 e5                	mov    %esp,%ebp
  1055d9:	53                   	push   %ebx
  1055da:	83 ec 24             	sub    $0x24,%esp
  1055dd:	b9 18 00 00 00       	mov    $0x18,%ecx
  1055e2:	bb 4c 5e 10 00       	mov    $0x105e4c,%ebx
  1055e7:	b8 4a 00 00 00       	mov    $0x4a,%eax
  1055ec:	ba 08 7a 10 00       	mov    $0x107a08,%edx
  1055f1:	c7 44 24 10 97 00 00 	movl   $0x97,0x10(%esp)
  1055f8:	00 
  1055f9:	89 4c 24 08          	mov    %ecx,0x8(%esp)
  1055fd:	89 5c 24 0c          	mov    %ebx,0xc(%esp)
  105601:	89 04 24             	mov    %eax,(%esp)
  105604:	89 54 24 04          	mov    %edx,0x4(%esp)
  105608:	e8 8a d2 ff ff       	call   102897 <_d_assert_msg>
  10560d:	83 c4 24             	add    $0x24,%esp
  105610:	5b                   	pop    %ebx
  105611:	5d                   	pop    %ebp
  105612:	c3                   	ret    

00105613 <_aApplydc1>:
  105613:	55                   	push   %ebp
  105614:	89 e5                	mov    %esp,%ebp
  105616:	53                   	push   %ebx
  105617:	83 ec 24             	sub    $0x24,%esp
  10561a:	b9 18 00 00 00       	mov    $0x18,%ecx
  10561f:	bb 4c 5e 10 00       	mov    $0x105e4c,%ebx
  105624:	b8 4a 00 00 00       	mov    $0x4a,%eax
  105629:	ba 54 7a 10 00       	mov    $0x107a54,%edx
  10562e:	c7 44 24 10 98 00 00 	movl   $0x98,0x10(%esp)
  105635:	00 
  105636:	89 4c 24 08          	mov    %ecx,0x8(%esp)
  10563a:	89 5c 24 0c          	mov    %ebx,0xc(%esp)
  10563e:	89 04 24             	mov    %eax,(%esp)
  105641:	89 54 24 04          	mov    %edx,0x4(%esp)
  105645:	e8 4d d2 ff ff       	call   102897 <_d_assert_msg>
  10564a:	83 c4 24             	add    $0x24,%esp
  10564d:	5b                   	pop    %ebx
  10564e:	5d                   	pop    %ebp
  10564f:	c3                   	ret    

00105650 <_aApplydw1>:
  105650:	55                   	push   %ebp
  105651:	89 e5                	mov    %esp,%ebp
  105653:	53                   	push   %ebx
  105654:	83 ec 24             	sub    $0x24,%esp
  105657:	b9 18 00 00 00       	mov    $0x18,%ecx
  10565c:	bb 4c 5e 10 00       	mov    $0x105e4c,%ebx
  105661:	b8 4a 00 00 00       	mov    $0x4a,%eax
  105666:	ba a0 7a 10 00       	mov    $0x107aa0,%edx
  10566b:	c7 44 24 10 99 00 00 	movl   $0x99,0x10(%esp)
  105672:	00 
  105673:	89 4c 24 08          	mov    %ecx,0x8(%esp)
  105677:	89 5c 24 0c          	mov    %ebx,0xc(%esp)
  10567b:	89 04 24             	mov    %eax,(%esp)
  10567e:	89 54 24 04          	mov    %edx,0x4(%esp)
  105682:	e8 10 d2 ff ff       	call   102897 <_d_assert_msg>
  105687:	83 c4 24             	add    $0x24,%esp
  10568a:	5b                   	pop    %ebx
  10568b:	5d                   	pop    %ebp
  10568c:	c3                   	ret    

0010568d <_aApplycw2>:
  10568d:	55                   	push   %ebp
  10568e:	89 e5                	mov    %esp,%ebp
  105690:	53                   	push   %ebx
  105691:	83 ec 24             	sub    $0x24,%esp
  105694:	b9 18 00 00 00       	mov    $0x18,%ecx
  105699:	bb 4c 5e 10 00       	mov    $0x105e4c,%ebx
  10569e:	b8 4a 00 00 00       	mov    $0x4a,%eax
  1056a3:	ba ec 7a 10 00       	mov    $0x107aec,%edx
  1056a8:	c7 44 24 10 9a 00 00 	movl   $0x9a,0x10(%esp)
  1056af:	00 
  1056b0:	89 4c 24 08          	mov    %ecx,0x8(%esp)
  1056b4:	89 5c 24 0c          	mov    %ebx,0xc(%esp)
  1056b8:	89 04 24             	mov    %eax,(%esp)
  1056bb:	89 54 24 04          	mov    %edx,0x4(%esp)
  1056bf:	e8 d3 d1 ff ff       	call   102897 <_d_assert_msg>
  1056c4:	83 c4 24             	add    $0x24,%esp
  1056c7:	5b                   	pop    %ebx
  1056c8:	5d                   	pop    %ebp
  1056c9:	c3                   	ret    

001056ca <_aApplycd2>:
  1056ca:	55                   	push   %ebp
  1056cb:	89 e5                	mov    %esp,%ebp
  1056cd:	53                   	push   %ebx
  1056ce:	83 ec 24             	sub    $0x24,%esp
  1056d1:	b9 18 00 00 00       	mov    $0x18,%ecx
  1056d6:	bb 4c 5e 10 00       	mov    $0x105e4c,%ebx
  1056db:	b8 4a 00 00 00       	mov    $0x4a,%eax
  1056e0:	ba 38 7b 10 00       	mov    $0x107b38,%edx
  1056e5:	c7 44 24 10 9b 00 00 	movl   $0x9b,0x10(%esp)
  1056ec:	00 
  1056ed:	89 4c 24 08          	mov    %ecx,0x8(%esp)
  1056f1:	89 5c 24 0c          	mov    %ebx,0xc(%esp)
  1056f5:	89 04 24             	mov    %eax,(%esp)
  1056f8:	89 54 24 04          	mov    %edx,0x4(%esp)
  1056fc:	e8 96 d1 ff ff       	call   102897 <_d_assert_msg>
  105701:	83 c4 24             	add    $0x24,%esp
  105704:	5b                   	pop    %ebx
  105705:	5d                   	pop    %ebp
  105706:	c3                   	ret    

00105707 <_aApplywc2>:
  105707:	55                   	push   %ebp
  105708:	89 e5                	mov    %esp,%ebp
  10570a:	53                   	push   %ebx
  10570b:	83 ec 24             	sub    $0x24,%esp
  10570e:	b9 18 00 00 00       	mov    $0x18,%ecx
  105713:	bb 4c 5e 10 00       	mov    $0x105e4c,%ebx
  105718:	b8 4b 00 00 00       	mov    $0x4b,%eax
  10571d:	ba 84 7b 10 00       	mov    $0x107b84,%edx
  105722:	c7 44 24 10 9c 00 00 	movl   $0x9c,0x10(%esp)
  105729:	00 
  10572a:	89 4c 24 08          	mov    %ecx,0x8(%esp)
  10572e:	89 5c 24 0c          	mov    %ebx,0xc(%esp)
  105732:	89 04 24             	mov    %eax,(%esp)
  105735:	89 54 24 04          	mov    %edx,0x4(%esp)
  105739:	e8 59 d1 ff ff       	call   102897 <_d_assert_msg>
  10573e:	83 c4 24             	add    $0x24,%esp
  105741:	5b                   	pop    %ebx
  105742:	5d                   	pop    %ebp
  105743:	c3                   	ret    

00105744 <_aApplywd2>:
  105744:	55                   	push   %ebp
  105745:	89 e5                	mov    %esp,%ebp
  105747:	53                   	push   %ebx
  105748:	83 ec 24             	sub    $0x24,%esp
  10574b:	b9 18 00 00 00       	mov    $0x18,%ecx
  105750:	bb 4c 5e 10 00       	mov    $0x105e4c,%ebx
  105755:	b8 4b 00 00 00       	mov    $0x4b,%eax
  10575a:	ba d0 7b 10 00       	mov    $0x107bd0,%edx
  10575f:	c7 44 24 10 9d 00 00 	movl   $0x9d,0x10(%esp)
  105766:	00 
  105767:	89 4c 24 08          	mov    %ecx,0x8(%esp)
  10576b:	89 5c 24 0c          	mov    %ebx,0xc(%esp)
  10576f:	89 04 24             	mov    %eax,(%esp)
  105772:	89 54 24 04          	mov    %edx,0x4(%esp)
  105776:	e8 1c d1 ff ff       	call   102897 <_d_assert_msg>
  10577b:	83 c4 24             	add    $0x24,%esp
  10577e:	5b                   	pop    %ebx
  10577f:	5d                   	pop    %ebp
  105780:	c3                   	ret    

00105781 <_aApplydc2>:
  105781:	55                   	push   %ebp
  105782:	89 e5                	mov    %esp,%ebp
  105784:	53                   	push   %ebx
  105785:	83 ec 24             	sub    $0x24,%esp
  105788:	b9 18 00 00 00       	mov    $0x18,%ecx
  10578d:	bb 4c 5e 10 00       	mov    $0x105e4c,%ebx
  105792:	b8 4b 00 00 00       	mov    $0x4b,%eax
  105797:	ba 1c 7c 10 00       	mov    $0x107c1c,%edx
  10579c:	c7 44 24 10 9e 00 00 	movl   $0x9e,0x10(%esp)
  1057a3:	00 
  1057a4:	89 4c 24 08          	mov    %ecx,0x8(%esp)
  1057a8:	89 5c 24 0c          	mov    %ebx,0xc(%esp)
  1057ac:	89 04 24             	mov    %eax,(%esp)
  1057af:	89 54 24 04          	mov    %edx,0x4(%esp)
  1057b3:	e8 df d0 ff ff       	call   102897 <_d_assert_msg>
  1057b8:	83 c4 24             	add    $0x24,%esp
  1057bb:	5b                   	pop    %ebx
  1057bc:	5d                   	pop    %ebp
  1057bd:	c3                   	ret    

001057be <_aApplydw2>:
  1057be:	55                   	push   %ebp
  1057bf:	89 e5                	mov    %esp,%ebp
  1057c1:	53                   	push   %ebx
  1057c2:	83 ec 24             	sub    $0x24,%esp
  1057c5:	b9 18 00 00 00       	mov    $0x18,%ecx
  1057ca:	bb 4c 5e 10 00       	mov    $0x105e4c,%ebx
  1057cf:	b8 4b 00 00 00       	mov    $0x4b,%eax
  1057d4:	ba 68 7c 10 00       	mov    $0x107c68,%edx
  1057d9:	c7 44 24 10 9f 00 00 	movl   $0x9f,0x10(%esp)
  1057e0:	00 
  1057e1:	89 4c 24 08          	mov    %ecx,0x8(%esp)
  1057e5:	89 5c 24 0c          	mov    %ebx,0xc(%esp)
  1057e9:	89 04 24             	mov    %eax,(%esp)
  1057ec:	89 54 24 04          	mov    %edx,0x4(%esp)
  1057f0:	e8 a2 d0 ff ff       	call   102897 <_d_assert_msg>
  1057f5:	83 c4 24             	add    $0x24,%esp
  1057f8:	5b                   	pop    %ebx
  1057f9:	5d                   	pop    %ebp
  1057fa:	c3                   	ret    

001057fb <_aApplyRcw1>:
  1057fb:	55                   	push   %ebp
  1057fc:	89 e5                	mov    %esp,%ebp
  1057fe:	53                   	push   %ebx
  1057ff:	83 ec 24             	sub    $0x24,%esp
  105802:	b9 18 00 00 00       	mov    $0x18,%ecx
  105807:	bb 4c 5e 10 00       	mov    $0x105e4c,%ebx
  10580c:	b8 4a 00 00 00       	mov    $0x4a,%eax
  105811:	ba b4 7c 10 00       	mov    $0x107cb4,%edx
  105816:	c7 44 24 10 a0 00 00 	movl   $0xa0,0x10(%esp)
  10581d:	00 
  10581e:	89 4c 24 08          	mov    %ecx,0x8(%esp)
  105822:	89 5c 24 0c          	mov    %ebx,0xc(%esp)
  105826:	89 04 24             	mov    %eax,(%esp)
  105829:	89 54 24 04          	mov    %edx,0x4(%esp)
  10582d:	e8 65 d0 ff ff       	call   102897 <_d_assert_msg>
  105832:	83 c4 24             	add    $0x24,%esp
  105835:	5b                   	pop    %ebx
  105836:	5d                   	pop    %ebp
  105837:	c3                   	ret    

00105838 <_aApplyRcd1>:
  105838:	55                   	push   %ebp
  105839:	89 e5                	mov    %esp,%ebp
  10583b:	53                   	push   %ebx
  10583c:	83 ec 24             	sub    $0x24,%esp
  10583f:	b9 18 00 00 00       	mov    $0x18,%ecx
  105844:	bb 4c 5e 10 00       	mov    $0x105e4c,%ebx
  105849:	b8 4a 00 00 00       	mov    $0x4a,%eax
  10584e:	ba 00 7d 10 00       	mov    $0x107d00,%edx
  105853:	c7 44 24 10 a1 00 00 	movl   $0xa1,0x10(%esp)
  10585a:	00 
  10585b:	89 4c 24 08          	mov    %ecx,0x8(%esp)
  10585f:	89 5c 24 0c          	mov    %ebx,0xc(%esp)
  105863:	89 04 24             	mov    %eax,(%esp)
  105866:	89 54 24 04          	mov    %edx,0x4(%esp)
  10586a:	e8 28 d0 ff ff       	call   102897 <_d_assert_msg>
  10586f:	83 c4 24             	add    $0x24,%esp
  105872:	5b                   	pop    %ebx
  105873:	5d                   	pop    %ebp
  105874:	c3                   	ret    

00105875 <_aApplyRwc1>:
  105875:	55                   	push   %ebp
  105876:	89 e5                	mov    %esp,%ebp
  105878:	53                   	push   %ebx
  105879:	83 ec 24             	sub    $0x24,%esp
  10587c:	b9 18 00 00 00       	mov    $0x18,%ecx
  105881:	bb 4c 5e 10 00       	mov    $0x105e4c,%ebx
  105886:	b8 4b 00 00 00       	mov    $0x4b,%eax
  10588b:	ba 4c 7d 10 00       	mov    $0x107d4c,%edx
  105890:	c7 44 24 10 a2 00 00 	movl   $0xa2,0x10(%esp)
  105897:	00 
  105898:	89 4c 24 08          	mov    %ecx,0x8(%esp)
  10589c:	89 5c 24 0c          	mov    %ebx,0xc(%esp)
  1058a0:	89 04 24             	mov    %eax,(%esp)
  1058a3:	89 54 24 04          	mov    %edx,0x4(%esp)
  1058a7:	e8 eb cf ff ff       	call   102897 <_d_assert_msg>
  1058ac:	83 c4 24             	add    $0x24,%esp
  1058af:	5b                   	pop    %ebx
  1058b0:	5d                   	pop    %ebp
  1058b1:	c3                   	ret    

001058b2 <_aApplyRwd1>:
  1058b2:	55                   	push   %ebp
  1058b3:	89 e5                	mov    %esp,%ebp
  1058b5:	53                   	push   %ebx
  1058b6:	83 ec 24             	sub    $0x24,%esp
  1058b9:	b9 18 00 00 00       	mov    $0x18,%ecx
  1058be:	bb 4c 5e 10 00       	mov    $0x105e4c,%ebx
  1058c3:	b8 4b 00 00 00       	mov    $0x4b,%eax
  1058c8:	ba 98 7d 10 00       	mov    $0x107d98,%edx
  1058cd:	c7 44 24 10 a3 00 00 	movl   $0xa3,0x10(%esp)
  1058d4:	00 
  1058d5:	89 4c 24 08          	mov    %ecx,0x8(%esp)
  1058d9:	89 5c 24 0c          	mov    %ebx,0xc(%esp)
  1058dd:	89 04 24             	mov    %eax,(%esp)
  1058e0:	89 54 24 04          	mov    %edx,0x4(%esp)
  1058e4:	e8 ae cf ff ff       	call   102897 <_d_assert_msg>
  1058e9:	83 c4 24             	add    $0x24,%esp
  1058ec:	5b                   	pop    %ebx
  1058ed:	5d                   	pop    %ebp
  1058ee:	c3                   	ret    

001058ef <_aApplyRdc1>:
  1058ef:	55                   	push   %ebp
  1058f0:	89 e5                	mov    %esp,%ebp
  1058f2:	53                   	push   %ebx
  1058f3:	83 ec 24             	sub    $0x24,%esp
  1058f6:	b9 18 00 00 00       	mov    $0x18,%ecx
  1058fb:	bb 4c 5e 10 00       	mov    $0x105e4c,%ebx
  105900:	b8 4b 00 00 00       	mov    $0x4b,%eax
  105905:	ba e4 7d 10 00       	mov    $0x107de4,%edx
  10590a:	c7 44 24 10 a4 00 00 	movl   $0xa4,0x10(%esp)
  105911:	00 
  105912:	89 4c 24 08          	mov    %ecx,0x8(%esp)
  105916:	89 5c 24 0c          	mov    %ebx,0xc(%esp)
  10591a:	89 04 24             	mov    %eax,(%esp)
  10591d:	89 54 24 04          	mov    %edx,0x4(%esp)
  105921:	e8 71 cf ff ff       	call   102897 <_d_assert_msg>
  105926:	83 c4 24             	add    $0x24,%esp
  105929:	5b                   	pop    %ebx
  10592a:	5d                   	pop    %ebp
  10592b:	c3                   	ret    

0010592c <_aApplyRdw1>:
  10592c:	55                   	push   %ebp
  10592d:	89 e5                	mov    %esp,%ebp
  10592f:	53                   	push   %ebx
  105930:	83 ec 24             	sub    $0x24,%esp
  105933:	b9 18 00 00 00       	mov    $0x18,%ecx
  105938:	bb 4c 5e 10 00       	mov    $0x105e4c,%ebx
  10593d:	b8 4b 00 00 00       	mov    $0x4b,%eax
  105942:	ba 30 7e 10 00       	mov    $0x107e30,%edx
  105947:	c7 44 24 10 a5 00 00 	movl   $0xa5,0x10(%esp)
  10594e:	00 
  10594f:	89 4c 24 08          	mov    %ecx,0x8(%esp)
  105953:	89 5c 24 0c          	mov    %ebx,0xc(%esp)
  105957:	89 04 24             	mov    %eax,(%esp)
  10595a:	89 54 24 04          	mov    %edx,0x4(%esp)
  10595e:	e8 34 cf ff ff       	call   102897 <_d_assert_msg>
  105963:	83 c4 24             	add    $0x24,%esp
  105966:	5b                   	pop    %ebx
  105967:	5d                   	pop    %ebp
  105968:	c3                   	ret    

00105969 <_aApplyRcw2>:
  105969:	55                   	push   %ebp
  10596a:	89 e5                	mov    %esp,%ebp
  10596c:	53                   	push   %ebx
  10596d:	83 ec 24             	sub    $0x24,%esp
  105970:	b9 18 00 00 00       	mov    $0x18,%ecx
  105975:	bb 4c 5e 10 00       	mov    $0x105e4c,%ebx
  10597a:	b8 4b 00 00 00       	mov    $0x4b,%eax
  10597f:	ba 7c 7e 10 00       	mov    $0x107e7c,%edx
  105984:	c7 44 24 10 a6 00 00 	movl   $0xa6,0x10(%esp)
  10598b:	00 
  10598c:	89 4c 24 08          	mov    %ecx,0x8(%esp)
  105990:	89 5c 24 0c          	mov    %ebx,0xc(%esp)
  105994:	89 04 24             	mov    %eax,(%esp)
  105997:	89 54 24 04          	mov    %edx,0x4(%esp)
  10599b:	e8 f7 ce ff ff       	call   102897 <_d_assert_msg>
  1059a0:	83 c4 24             	add    $0x24,%esp
  1059a3:	5b                   	pop    %ebx
  1059a4:	5d                   	pop    %ebp
  1059a5:	c3                   	ret    

001059a6 <_aApplyRcd2>:
  1059a6:	55                   	push   %ebp
  1059a7:	89 e5                	mov    %esp,%ebp
  1059a9:	53                   	push   %ebx
  1059aa:	83 ec 24             	sub    $0x24,%esp
  1059ad:	b9 18 00 00 00       	mov    $0x18,%ecx
  1059b2:	bb 4c 5e 10 00       	mov    $0x105e4c,%ebx
  1059b7:	b8 4b 00 00 00       	mov    $0x4b,%eax
  1059bc:	ba c8 7e 10 00       	mov    $0x107ec8,%edx
  1059c1:	c7 44 24 10 a7 00 00 	movl   $0xa7,0x10(%esp)
  1059c8:	00 
  1059c9:	89 4c 24 08          	mov    %ecx,0x8(%esp)
  1059cd:	89 5c 24 0c          	mov    %ebx,0xc(%esp)
  1059d1:	89 04 24             	mov    %eax,(%esp)
  1059d4:	89 54 24 04          	mov    %edx,0x4(%esp)
  1059d8:	e8 ba ce ff ff       	call   102897 <_d_assert_msg>
  1059dd:	83 c4 24             	add    $0x24,%esp
  1059e0:	5b                   	pop    %ebx
  1059e1:	5d                   	pop    %ebp
  1059e2:	c3                   	ret    

001059e3 <_aApplyRwc2>:
  1059e3:	55                   	push   %ebp
  1059e4:	89 e5                	mov    %esp,%ebp
  1059e6:	53                   	push   %ebx
  1059e7:	83 ec 24             	sub    $0x24,%esp
  1059ea:	b9 18 00 00 00       	mov    $0x18,%ecx
  1059ef:	bb 4c 5e 10 00       	mov    $0x105e4c,%ebx
  1059f4:	b8 4c 00 00 00       	mov    $0x4c,%eax
  1059f9:	ba 14 7f 10 00       	mov    $0x107f14,%edx
  1059fe:	c7 44 24 10 a8 00 00 	movl   $0xa8,0x10(%esp)
  105a05:	00 
  105a06:	89 4c 24 08          	mov    %ecx,0x8(%esp)
  105a0a:	89 5c 24 0c          	mov    %ebx,0xc(%esp)
  105a0e:	89 04 24             	mov    %eax,(%esp)
  105a11:	89 54 24 04          	mov    %edx,0x4(%esp)
  105a15:	e8 7d ce ff ff       	call   102897 <_d_assert_msg>
  105a1a:	83 c4 24             	add    $0x24,%esp
  105a1d:	5b                   	pop    %ebx
  105a1e:	5d                   	pop    %ebp
  105a1f:	c3                   	ret    

00105a20 <_aApplyRwd2>:
  105a20:	55                   	push   %ebp
  105a21:	89 e5                	mov    %esp,%ebp
  105a23:	53                   	push   %ebx
  105a24:	83 ec 24             	sub    $0x24,%esp
  105a27:	b9 18 00 00 00       	mov    $0x18,%ecx
  105a2c:	bb 4c 5e 10 00       	mov    $0x105e4c,%ebx
  105a31:	b8 4c 00 00 00       	mov    $0x4c,%eax
  105a36:	ba 64 7f 10 00       	mov    $0x107f64,%edx
  105a3b:	c7 44 24 10 a9 00 00 	movl   $0xa9,0x10(%esp)
  105a42:	00 
  105a43:	89 4c 24 08          	mov    %ecx,0x8(%esp)
  105a47:	89 5c 24 0c          	mov    %ebx,0xc(%esp)
  105a4b:	89 04 24             	mov    %eax,(%esp)
  105a4e:	89 54 24 04          	mov    %edx,0x4(%esp)
  105a52:	e8 40 ce ff ff       	call   102897 <_d_assert_msg>
  105a57:	83 c4 24             	add    $0x24,%esp
  105a5a:	5b                   	pop    %ebx
  105a5b:	5d                   	pop    %ebp
  105a5c:	c3                   	ret    

00105a5d <_aApplyRdc2>:
  105a5d:	55                   	push   %ebp
  105a5e:	89 e5                	mov    %esp,%ebp
  105a60:	53                   	push   %ebx
  105a61:	83 ec 24             	sub    $0x24,%esp
  105a64:	b9 18 00 00 00       	mov    $0x18,%ecx
  105a69:	bb 4c 5e 10 00       	mov    $0x105e4c,%ebx
  105a6e:	b8 4c 00 00 00       	mov    $0x4c,%eax
  105a73:	ba b4 7f 10 00       	mov    $0x107fb4,%edx
  105a78:	c7 44 24 10 aa 00 00 	movl   $0xaa,0x10(%esp)
  105a7f:	00 
  105a80:	89 4c 24 08          	mov    %ecx,0x8(%esp)
  105a84:	89 5c 24 0c          	mov    %ebx,0xc(%esp)
  105a88:	89 04 24             	mov    %eax,(%esp)
  105a8b:	89 54 24 04          	mov    %edx,0x4(%esp)
  105a8f:	e8 03 ce ff ff       	call   102897 <_d_assert_msg>
  105a94:	83 c4 24             	add    $0x24,%esp
  105a97:	5b                   	pop    %ebx
  105a98:	5d                   	pop    %ebp
  105a99:	c3                   	ret    

00105a9a <_aApplyRdw2>:
  105a9a:	55                   	push   %ebp
  105a9b:	89 e5                	mov    %esp,%ebp
  105a9d:	53                   	push   %ebx
  105a9e:	83 ec 24             	sub    $0x24,%esp
  105aa1:	b9 18 00 00 00       	mov    $0x18,%ecx
  105aa6:	bb 4c 5e 10 00       	mov    $0x105e4c,%ebx
  105aab:	b8 4c 00 00 00       	mov    $0x4c,%eax
  105ab0:	ba 04 80 10 00       	mov    $0x108004,%edx
  105ab5:	c7 44 24 10 ab 00 00 	movl   $0xab,0x10(%esp)
  105abc:	00 
  105abd:	89 4c 24 08          	mov    %ecx,0x8(%esp)
  105ac1:	89 5c 24 0c          	mov    %ebx,0xc(%esp)
  105ac5:	89 04 24             	mov    %eax,(%esp)
  105ac8:	89 54 24 04          	mov    %edx,0x4(%esp)
  105acc:	e8 c6 cd ff ff       	call   102897 <_d_assert_msg>
  105ad1:	83 c4 24             	add    $0x24,%esp
  105ad4:	5b                   	pop    %ebx
  105ad5:	5d                   	pop    %ebp
  105ad6:	c3                   	ret    

00105ad7 <_adSortChar>:
  105ad7:	55                   	push   %ebp
  105ad8:	89 e5                	mov    %esp,%ebp
  105ada:	53                   	push   %ebx
  105adb:	83 ec 14             	sub    $0x14,%esp
  105ade:	b9 18 00 00 00       	mov    $0x18,%ecx
  105ae3:	bb 4c 5e 10 00       	mov    $0x105e4c,%ebx
  105ae8:	b8 3d 00 00 00       	mov    $0x3d,%eax
  105aed:	ba 54 80 10 00       	mov    $0x108054,%edx
  105af2:	c7 44 24 10 ac 00 00 	movl   $0xac,0x10(%esp)
  105af9:	00 
  105afa:	89 4c 24 08          	mov    %ecx,0x8(%esp)
  105afe:	89 5c 24 0c          	mov    %ebx,0xc(%esp)
  105b02:	89 04 24             	mov    %eax,(%esp)
  105b05:	89 54 24 04          	mov    %edx,0x4(%esp)
  105b09:	e8 89 cd ff ff       	call   102897 <_d_assert_msg>
  105b0e:	83 c4 14             	add    $0x14,%esp
  105b11:	5b                   	pop    %ebx
  105b12:	5d                   	pop    %ebp
  105b13:	c2 04 00             	ret    $0x4

00105b16 <_adSortWchar>:
  105b16:	55                   	push   %ebp
  105b17:	89 e5                	mov    %esp,%ebp
  105b19:	53                   	push   %ebx
  105b1a:	83 ec 14             	sub    $0x14,%esp
  105b1d:	b9 18 00 00 00       	mov    $0x18,%ecx
  105b22:	bb 4c 5e 10 00       	mov    $0x105e4c,%ebx
  105b27:	b8 40 00 00 00       	mov    $0x40,%eax
  105b2c:	ba 94 80 10 00       	mov    $0x108094,%edx
  105b31:	c7 44 24 10 ad 00 00 	movl   $0xad,0x10(%esp)
  105b38:	00 
  105b39:	89 4c 24 08          	mov    %ecx,0x8(%esp)
  105b3d:	89 5c 24 0c          	mov    %ebx,0xc(%esp)
  105b41:	89 04 24             	mov    %eax,(%esp)
  105b44:	89 54 24 04          	mov    %edx,0x4(%esp)
  105b48:	e8 4a cd ff ff       	call   102897 <_d_assert_msg>
  105b4d:	83 c4 14             	add    $0x14,%esp
  105b50:	5b                   	pop    %ebx
  105b51:	5d                   	pop    %ebp
  105b52:	c2 04 00             	ret    $0x4

00105b55 <_d_arrayappendcT>:
  105b55:	55                   	push   %ebp
  105b56:	89 e5                	mov    %esp,%ebp
  105b58:	53                   	push   %ebx
  105b59:	83 ec 14             	sub    $0x14,%esp
  105b5c:	b9 18 00 00 00       	mov    $0x18,%ecx
  105b61:	bb 4c 5e 10 00       	mov    $0x105e4c,%ebx
  105b66:	b8 5f 00 00 00       	mov    $0x5f,%eax
  105b6b:	ba d8 80 10 00       	mov    $0x1080d8,%edx
  105b70:	c7 44 24 10 ae 00 00 	movl   $0xae,0x10(%esp)
  105b77:	00 
  105b78:	89 4c 24 08          	mov    %ecx,0x8(%esp)
  105b7c:	89 5c 24 0c          	mov    %ebx,0xc(%esp)
  105b80:	89 04 24             	mov    %eax,(%esp)
  105b83:	89 54 24 04          	mov    %edx,0x4(%esp)
  105b87:	e8 0b cd ff ff       	call   102897 <_d_assert_msg>
  105b8c:	83 c4 14             	add    $0x14,%esp
  105b8f:	5b                   	pop    %ebx
  105b90:	5d                   	pop    %ebp
  105b91:	c3                   	ret    
	...

00105b94 <onOutOfMemoryError>:
  105b94:	55                   	push   %ebp
  105b95:	89 e5                	mov    %esp,%ebp
  105b97:	5d                   	pop    %ebp
  105b98:	c3                   	ret    
  105b99:	00 00                	add    %al,(%eax)
	...

00105b9c <_D6common6memsetFPvhkZv>:
  105b9c:	55                   	push   %ebp
  105b9d:	89 e5                	mov    %esp,%ebp
  105b9f:	83 ec 10             	sub    $0x10,%esp
  105ba2:	8b 45 08             	mov    0x8(%ebp),%eax
  105ba5:	89 45 fc             	mov    %eax,-0x4(%ebp)
  105ba8:	83 7d 10 00          	cmpl   $0x0,0x10(%ebp)
  105bac:	0f 95 c0             	setne  %al
  105baf:	83 f0 01             	xor    $0x1,%eax
  105bb2:	83 6d 10 01          	subl   $0x1,0x10(%ebp)
  105bb6:	84 c0                	test   %al,%al
  105bb8:	75 0f                	jne    105bc9 <_D6common6memsetFPvhkZv+0x2d>
  105bba:	8b 55 fc             	mov    -0x4(%ebp),%edx
  105bbd:	0f b6 45 0c          	movzbl 0xc(%ebp),%eax
  105bc1:	88 02                	mov    %al,(%edx)
  105bc3:	83 45 fc 01          	addl   $0x1,-0x4(%ebp)
  105bc7:	eb df                	jmp    105ba8 <_D6common6memsetFPvhkZv+0xc>
  105bc9:	c9                   	leave  
  105bca:	c3                   	ret    
	...

00105bcc <_D6kernel3x863isr4IRQ0i>:
  105bcc:	20 00 00 00                                          ...

00105bd0 <_D6kernel3x863isr4IRQ1i>:
  105bd0:	21 00 00 00                                         !...

00105bd4 <_D6kernel3x863isr4IRQ2i>:
  105bd4:	22 00 00 00                                         "...

00105bd8 <_D6kernel3x863isr4IRQ3i>:
  105bd8:	23 00 00 00                                         #...

00105bdc <_D6kernel3x863isr4IRQ4i>:
  105bdc:	24 00 00 00                                         $...

00105be0 <_D6kernel3x863isr4IRQ5i>:
  105be0:	25 00 00 00                                         %...

00105be4 <_D6kernel3x863isr4IRQ6i>:
  105be4:	26 00 00 00                                         &...

00105be8 <_D6kernel3x863isr4IRQ7i>:
  105be8:	27 00 00 00                                         '...

00105bec <_D6kernel3x863isr4IRQ8i>:
  105bec:	28 00 00 00                                         (...

00105bf0 <_D6kernel3x863isr4IRQ9i>:
  105bf0:	29 00 00 00                                         )...

00105bf4 <_D6kernel3x863isr5IRQ10i>:
  105bf4:	2a 00 00 00                                         *...

00105bf8 <_D6kernel3x863isr5IRQ11i>:
  105bf8:	2b 00 00 00                                         +...

00105bfc <_D6kernel3x863isr5IRQ12i>:
  105bfc:	2c 00 00 00                                         ,...

00105c00 <_D6kernel3x863isr5IRQ13i>:
  105c00:	2d 00 00 00                                         -...

00105c04 <_D6kernel3x863isr5IRQ14i>:
  105c04:	2e 00 00 00                                         ....

00105c08 <_D6kernel3x863isr5IRQ15i>:
  105c08:	2f 00 00 00 72 65 63 69 65 76 65 64 20 69 6e 74     /...recieved int
  105c18:	65 72 72 75 70 74 3a 20 00 6b 65 72 6e 65 6c 2f     errupt: .kernel/
  105c28:	78 38 36 2f 69 73 72 2e 64 00 6b 65 72 6e 65 6c     x86/isr.d.kernel
  105c38:	2e 78 38 36 2e 69 73 72 2e 69 73 72 00 54 69 63     .x86.isr.isr.Tic
  105c48:	6b 3a 20 00 6b 65 72 6e 65 6c 2f 78 38 36 2f 69     k: .kernel/x86/i
  105c58:	64 74 2e 64 00 6b 65 72 6e 65 6c 2f 78 38 36 2f     dt.d.kernel/x86/
  105c68:	67 64 74 2e 64 00 48 65 6c 6c 6f 2c 20 77 6f 72     gdt.d.Hello, wor
  105c78:	6c 64 21 0a 00 30 78 00 76 69 64 65 6f 2f 74 65     ld!..0x.video/te
  105c88:	78 74 2f 74 65 78 74 2e 64 00 00 00 00 00 00 00     xt/text.d.......
	...
  105ca0:	72 75 6e 74 69 6d 65 73 2f 6d 69 6e 64 72 74 2f     runtimes/mindrt/
  105cb0:	64 73 74 61 74 69 63 2e 64 00 00 00 00 00 00 00     dstatic.d.......

00105cc0 <UTF8stride>:
  105cc0:	01 01 01 01 01 01 01 01 01 01 01 01 01 01 01 01     ................
  105cd0:	01 01 01 01 01 01 01 01 01 01 01 01 01 01 01 01     ................
  105ce0:	01 01 01 01 01 01 01 01 01 01 01 01 01 01 01 01     ................
  105cf0:	01 01 01 01 01 01 01 01 01 01 01 01 01 01 01 01     ................
  105d00:	01 01 01 01 01 01 01 01 01 01 01 01 01 01 01 01     ................
  105d10:	01 01 01 01 01 01 01 01 01 01 01 01 01 01 01 01     ................
  105d20:	01 01 01 01 01 01 01 01 01 01 01 01 01 01 01 01     ................
  105d30:	01 01 01 01 01 01 01 01 01 01 01 01 01 01 01 01     ................
  105d40:	ff ff ff ff ff ff ff ff ff ff ff ff ff ff ff ff     ................
  105d50:	ff ff ff ff ff ff ff ff ff ff ff ff ff ff ff ff     ................
  105d60:	ff ff ff ff ff ff ff ff ff ff ff ff ff ff ff ff     ................
  105d70:	ff ff ff ff ff ff ff ff ff ff ff ff ff ff ff ff     ................
  105d80:	02 02 02 02 02 02 02 02 02 02 02 02 02 02 02 02     ................
  105d90:	02 02 02 02 02 02 02 02 02 02 02 02 02 02 02 02     ................
  105da0:	03 03 03 03 03 03 03 03 03 03 03 03 03 03 03 03     ................
  105db0:	04 04 04 04 04 04 04 04 05 05 05 05 06 06 ff ff     ................

00105dc0 <_D8runtimes6mindrt7dstatic7_adSortUS8runtimes6mindrt6common5ArrayC8TypeInfoZS8runtimes6mindrt6common5Array15Qsort_Thresholdk>:
  105dc0:	07 00 00 00 6d 69 73 73 69 6e 67 20 72 65 74 75     ....missing retu
  105dd0:	72 6e 20 65 78 70 72 65 73 73 69 6f 6e 00 61 72     rn expression.ar
  105de0:	72 61 79 20 63 61 73 74 20 6d 69 73 61 6c 69 67     ray cast misalig
  105df0:	6e 6d 65 6e 74 00 00 00 6c 65 6e 67 74 68 73 20     nment...lengths 
  105e00:	64 6f 6e 27 74 20 6d 61 74 63 68 20 66 6f 72 20     don't match for 
  105e10:	61 72 72 61 79 20 63 6f 70 79 00 6f 76 65 72 6c     array copy.overl
  105e20:	61 70 70 69 6e 67 20 61 72 72 61 79 20 63 6f 70     apping array cop
  105e30:	79 00 72 75 6e 74 69 6d 65 73 2f 6d 69 6e 64 72     y.runtimes/mindr
  105e40:	74 2f 75 74 69 6c 2e 64 00 00 00 00 72 75 6e 74     t/util.d....runt
  105e50:	69 6d 65 73 2f 6d 69 6e 64 72 74 2f 64 73 74 75     imes/mindrt/dstu
  105e60:	62 73 2e 64 00 00 00 00 55 6e 64 65 66 69 6e 65     bs.d....Undefine
  105e70:	64 20 72 75 6e 74 69 6d 65 20 73 74 75 62 20 65     d runtime stub e
  105e80:	78 65 63 75 74 65 64 3a 20 76 6f 69 64 20 61 62     xecuted: void ab
  105e90:	6f 72 74 28 29 00 00 00 55 6e 64 65 66 69 6e 65     ort()...Undefine
  105ea0:	64 20 72 75 6e 74 69 6d 65 20 73 74 75 62 20 65     d runtime stub e
  105eb0:	78 65 63 75 74 65 64 3a 20 62 6f 6f 6c 20 72 74     xecuted: bool rt
  105ec0:	5f 69 73 48 61 6c 74 69 6e 67 28 29 00 00 00 00     _isHalting()....
  105ed0:	55 6e 64 65 66 69 6e 65 64 20 72 75 6e 74 69 6d     Undefined runtim
  105ee0:	65 20 73 74 75 62 20 65 78 65 63 75 74 65 64 3a     e stub executed:
  105ef0:	20 62 6f 6f 6c 20 72 75 6e 4d 6f 64 75 6c 65 55      bool runModuleU
  105f00:	6e 69 74 54 65 73 74 73 28 29 00 00 55 6e 64 65     nitTests()..Unde
  105f10:	66 69 6e 65 64 20 72 75 6e 74 69 6d 65 20 73 74     fined runtime st
  105f20:	75 62 20 65 78 65 63 75 74 65 64 3a 20 76 6f 69     ub executed: voi
  105f30:	64 20 5f 64 5f 6d 6f 6e 69 74 6f 72 64 65 6c 65     d _d_monitordele
  105f40:	74 65 28 4f 62 6a 65 63 74 20 68 2c 20 62 6f 6f     te(Object h, boo
  105f50:	6c 20 64 65 74 20 3d 20 74 72 75 65 29 00 00 00     l det = true)...
  105f60:	55 6e 64 65 66 69 6e 65 64 20 72 75 6e 74 69 6d     Undefined runtim
  105f70:	65 20 73 74 75 62 20 65 78 65 63 75 74 65 64 3a     e stub executed:
  105f80:	20 76 6f 69 64 2a 20 61 6c 6c 6f 63 61 28 69 6e      void* alloca(in
  105f90:	74 20 73 29 00 00 00 00 55 6e 64 65 66 69 6e 65     t s)....Undefine
  105fa0:	64 20 72 75 6e 74 69 6d 65 20 73 74 75 62 20 65     d runtime stub e
  105fb0:	78 65 63 75 74 65 64 3a 20 76 6f 69 64 20 5f 44     xecuted: void _D
  105fc0:	39 69 6e 76 61 72 69 61 6e 74 31 32 5f 64 5f 69     9invariant12_d_i
  105fd0:	6e 76 61 72 69 61 6e 74 46 43 36 4f 62 6a 65 63     nvariantFC6Objec
  105fe0:	74 5a 76 28 29 00 00 00 55 6e 64 65 66 69 6e 65     tZv()...Undefine
  105ff0:	64 20 72 75 6e 74 69 6d 65 20 73 74 75 62 20 65     d runtime stub e
  106000:	78 65 63 75 74 65 64 3a 20 76 6f 69 64 20 5f 44     xecuted: void _D
  106010:	31 35 54 79 70 65 49 6e 66 6f 5f 53 74 72 75 63     15TypeInfo_Struc
  106020:	74 36 5f 5f 76 74 62 6c 5a 28 29 00 55 6e 64 65     t6__vtblZ().Unde
  106030:	66 69 6e 65 64 20 72 75 6e 74 69 6d 65 20 73 74     fined runtime st
  106040:	75 62 20 65 78 65 63 75 74 65 64 3a 20 76 6f 69     ub executed: voi
  106050:	64 20 5f 44 31 37 54 79 70 65 49 6e 66 6f 5f 44     d _D17TypeInfo_D
  106060:	65 6c 65 67 61 74 65 36 5f 5f 76 74 62 6c 5a 28     elegate6__vtblZ(
  106070:	29 00 00 00 55 6e 64 65 66 69 6e 65 64 20 72 75     )...Undefined ru
  106080:	6e 74 69 6d 65 20 73 74 75 62 20 65 78 65 63 75     ntime stub execu
  106090:	74 65 64 3a 20 76 6f 69 64 20 5f 44 31 36 54 79     ted: void _D16Ty
  1060a0:	70 65 49 6e 66 6f 5f 54 79 70 65 64 65 66 36 5f     peInfo_Typedef6_
  1060b0:	5f 76 74 62 6c 5a 28 29 00 00 00 00 55 6e 64 65     _vtblZ()....Unde
  1060c0:	66 69 6e 65 64 20 72 75 6e 74 69 6d 65 20 73 74     fined runtime st
  1060d0:	75 62 20 65 78 65 63 75 74 65 64 3a 20 76 6f 69     ub executed: voi
  1060e0:	64 20 5f 44 31 30 54 79 70 65 49 6e 66 6f 5f 69     d _D10TypeInfo_i
  1060f0:	36 5f 5f 69 6e 69 74 5a 28 29 00 00 55 6e 64 65     6__initZ()..Unde
  106100:	66 69 6e 65 64 20 72 75 6e 74 69 6d 65 20 73 74     fined runtime st
  106110:	75 62 20 65 78 65 63 75 74 65 64 3a 20 76 6f 69     ub executed: voi
  106120:	64 20 5f 44 31 33 54 79 70 65 49 6e 66 6f 5f 45     d _D13TypeInfo_E
  106130:	6e 75 6d 36 5f 5f 76 74 62 6c 5a 28 29 00 00 00     num6__vtblZ()...
  106140:	55 6e 64 65 66 69 6e 65 64 20 72 75 6e 74 69 6d     Undefined runtim
  106150:	65 20 73 74 75 62 20 65 78 65 63 75 74 65 64 3a     e stub executed:
  106160:	20 76 6f 69 64 20 5f 44 31 30 54 79 70 65 49 6e      void _D10TypeIn
  106170:	66 6f 5f 6b 36 5f 5f 69 6e 69 74 5a 28 29 00 00     fo_k6__initZ()..
  106180:	55 6e 64 65 66 69 6e 65 64 20 72 75 6e 74 69 6d     Undefined runtim
  106190:	65 20 73 74 75 62 20 65 78 65 63 75 74 65 64 3a     e stub executed:
  1061a0:	20 76 6f 69 64 20 5f 5f 75 6d 6f 64 64 69 33 28      void __umoddi3(
  1061b0:	29 00 00 00 55 6e 64 65 66 69 6e 65 64 20 72 75     )...Undefined ru
  1061c0:	6e 74 69 6d 65 20 73 74 75 62 20 65 78 65 63 75     ntime stub execu
  1061d0:	74 65 64 3a 20 76 6f 69 64 20 5f 5f 75 64 69 76     ted: void __udiv
  1061e0:	64 69 33 28 29 00 00 00 55 6e 64 65 66 69 6e 65     di3()...Undefine
  1061f0:	64 20 72 75 6e 74 69 6d 65 20 73 74 75 62 20 65     d runtime stub e
  106200:	78 65 63 75 74 65 64 3a 20 76 6f 69 64 20 5f 44     xecuted: void _D
  106210:	31 30 54 79 70 65 49 6e 66 6f 5f 76 36 5f 5f 69     10TypeInfo_v6__i
  106220:	6e 69 74 5a 28 29 00 00 55 6e 64 65 66 69 6e 65     nitZ()..Undefine
  106230:	64 20 72 75 6e 74 69 6d 65 20 73 74 75 62 20 65     d runtime stub e
  106240:	78 65 63 75 74 65 64 3a 20 76 6f 69 64 20 5f 44     xecuted: void _D
  106250:	31 36 54 79 70 65 49 6e 66 6f 5f 50 6f 69 6e 74     16TypeInfo_Point
  106260:	65 72 36 5f 5f 76 74 62 6c 5a 28 29 00 00 00 00     er6__vtblZ()....
  106270:	55 6e 64 65 66 69 6e 65 64 20 72 75 6e 74 69 6d     Undefined runtim
  106280:	65 20 73 74 75 62 20 65 78 65 63 75 74 65 64 3a     e stub executed:
  106290:	20 76 6f 69 64 20 5f 44 31 37 54 79 70 65 49 6e      void _D17TypeIn
  1062a0:	66 6f 5f 46 75 6e 63 74 69 6f 6e 36 5f 5f 76 74     fo_Function6__vt
  1062b0:	62 6c 5a 28 29 00 00 00 55 6e 64 65 66 69 6e 65     blZ()...Undefine
  1062c0:	64 20 72 75 6e 74 69 6d 65 20 73 74 75 62 20 65     d runtime stub e
  1062d0:	78 65 63 75 74 65 64 3a 20 4f 62 6a 65 63 74 20     xecuted: Object 
  1062e0:	5f 64 5f 61 6c 6c 6f 63 63 6c 61 73 73 28 43 6c     _d_allocclass(Cl
  1062f0:	61 73 73 49 6e 66 6f 20 63 69 29 00 55 6e 64 65     assInfo ci).Unde
  106300:	66 69 6e 65 64 20 72 75 6e 74 69 6d 65 20 73 74     fined runtime st
  106310:	75 62 20 65 78 65 63 75 74 65 64 3a 20 4f 62 6a     ub executed: Obj
  106320:	65 63 74 20 5f 64 5f 6e 65 77 63 6c 61 73 73 28     ect _d_newclass(
  106330:	43 6c 61 73 73 49 6e 66 6f 20 63 69 29 00 00 00     ClassInfo ci)...
  106340:	55 6e 64 65 66 69 6e 65 64 20 72 75 6e 74 69 6d     Undefined runtim
  106350:	65 20 73 74 75 62 20 65 78 65 63 75 74 65 64 3a     e stub executed:
  106360:	20 76 6f 69 64 20 5f 64 5f 64 65 6c 69 6e 74 65      void _d_delinte
  106370:	72 66 61 63 65 28 76 6f 69 64 2a 2a 20 70 29 00     rface(void** p).
  106380:	55 6e 64 65 66 69 6e 65 64 20 72 75 6e 74 69 6d     Undefined runtim
  106390:	65 20 73 74 75 62 20 65 78 65 63 75 74 65 64 3a     e stub executed:
  1063a0:	20 76 6f 69 64 20 5f 64 5f 64 65 6c 63 6c 61 73      void _d_delclas
  1063b0:	73 28 4f 62 6a 65 63 74 2a 20 70 29 00 00 00 00     s(Object* p)....
  1063c0:	55 6e 64 65 66 69 6e 65 64 20 72 75 6e 74 69 6d     Undefined runtim
  1063d0:	65 20 73 74 75 62 20 65 78 65 63 75 74 65 64 3a     e stub executed:
  1063e0:	20 41 72 72 61 79 20 5f 64 5f 6e 65 77 61 72 72      Array _d_newarr
  1063f0:	61 79 54 28 54 79 70 65 49 6e 66 6f 20 74 69 2c     ayT(TypeInfo ti,
  106400:	20 73 69 7a 65 5f 74 20 6c 65 6e 67 74 68 29 00      size_t length).
  106410:	55 6e 64 65 66 69 6e 65 64 20 72 75 6e 74 69 6d     Undefined runtim
  106420:	65 20 73 74 75 62 20 65 78 65 63 75 74 65 64 3a     e stub executed:
  106430:	20 41 72 72 61 79 20 5f 64 5f 6e 65 77 61 72 72      Array _d_newarr
  106440:	61 79 69 54 28 54 79 70 65 49 6e 66 6f 20 74 69     ayiT(TypeInfo ti
  106450:	2c 20 73 69 7a 65 5f 74 20 6c 65 6e 67 74 68 29     , size_t length)
  106460:	00 00 00 00 55 6e 64 65 66 69 6e 65 64 20 72 75     ....Undefined ru
  106470:	6e 74 69 6d 65 20 73 74 75 62 20 65 78 65 63 75     ntime stub execu
  106480:	74 65 64 3a 20 41 72 72 61 79 20 5f 64 5f 6e 65     ted: Array _d_ne
  106490:	77 61 72 72 61 79 76 54 28 54 79 70 65 49 6e 66     warrayvT(TypeInf
  1064a0:	6f 20 74 69 2c 20 73 69 7a 65 5f 74 20 6c 65 6e     o ti, size_t len
  1064b0:	67 74 68 29 00 00 00 00 55 6e 64 65 66 69 6e 65     gth)....Undefine
  1064c0:	64 20 72 75 6e 74 69 6d 65 20 73 74 75 62 20 65     d runtime stub e
  1064d0:	78 65 63 75 74 65 64 3a 20 76 6f 69 64 5b 5d 20     xecuted: void[] 
  1064e0:	5f 64 5f 6e 65 77 61 72 72 61 79 6d 54 70 28 54     _d_newarraymTp(T
  1064f0:	79 70 65 49 6e 66 6f 20 74 69 2c 20 69 6e 74 20     ypeInfo ti, int 
  106500:	6e 64 69 6d 73 2c 20 73 69 7a 65 5f 74 2a 20 70     ndims, size_t* p
  106510:	64 69 6d 29 00 00 00 00 55 6e 64 65 66 69 6e 65     dim)....Undefine
  106520:	64 20 72 75 6e 74 69 6d 65 20 73 74 75 62 20 65     d runtime stub e
  106530:	78 65 63 75 74 65 64 3a 20 76 6f 69 64 5b 5d 20     xecuted: void[] 
  106540:	5f 64 5f 6e 65 77 61 72 72 61 79 6d 69 54 70 28     _d_newarraymiTp(
  106550:	54 79 70 65 49 6e 66 6f 20 74 69 2c 20 69 6e 74     TypeInfo ti, int
  106560:	20 6e 64 69 6d 73 2c 20 73 69 7a 65 5f 74 2a 20      ndims, size_t* 
  106570:	70 64 69 6d 29 00 00 00 55 6e 64 65 66 69 6e 65     pdim)...Undefine
  106580:	64 20 72 75 6e 74 69 6d 65 20 73 74 75 62 20 65     d runtime stub e
  106590:	78 65 63 75 74 65 64 3a 20 76 6f 69 64 20 5f 64     xecuted: void _d
  1065a0:	5f 64 65 6c 61 72 72 61 79 28 41 72 72 61 79 20     _delarray(Array 
  1065b0:	2a 70 29 00 55 6e 64 65 66 69 6e 65 64 20 72 75     *p).Undefined ru
  1065c0:	6e 74 69 6d 65 20 73 74 75 62 20 65 78 65 63 75     ntime stub execu
  1065d0:	74 65 64 3a 20 76 6f 69 64 20 5f 64 5f 64 65 6c     ted: void _d_del
  1065e0:	6d 65 6d 6f 72 79 28 76 6f 69 64 2a 20 2a 70 29     memory(void* *p)
  1065f0:	00 00 00 00 55 6e 64 65 66 69 6e 65 64 20 72 75     ....Undefined ru
  106600:	6e 74 69 6d 65 20 73 74 75 62 20 65 78 65 63 75     ntime stub execu
  106610:	74 65 64 3a 20 76 6f 69 64 20 5f 64 5f 63 61 6c     ted: void _d_cal
  106620:	6c 66 69 6e 61 6c 69 7a 65 72 28 76 6f 69 64 2a     lfinalizer(void*
  106630:	20 70 29 00 55 6e 64 65 66 69 6e 65 64 20 72 75      p).Undefined ru
  106640:	6e 74 69 6d 65 20 73 74 75 62 20 65 78 65 63 75     ntime stub execu
  106650:	74 65 64 3a 20 76 6f 69 64 20 72 74 5f 66 69 6e     ted: void rt_fin
  106660:	61 6c 69 7a 65 28 76 6f 69 64 2a 20 70 2c 20 62     alize(void* p, b
  106670:	6f 6f 6c 20 64 65 74 20 3d 20 74 72 75 65 29 00     ool det = true).
  106680:	55 6e 64 65 66 69 6e 65 64 20 72 75 6e 74 69 6d     Undefined runtim
  106690:	65 20 73 74 75 62 20 65 78 65 63 75 74 65 64 3a     e stub executed:
  1066a0:	20 62 79 74 65 5b 5d 20 5f 64 5f 61 72 72 61 79      byte[] _d_array
  1066b0:	73 65 74 6c 65 6e 67 74 68 54 28 54 79 70 65 49     setlengthT(TypeI
  1066c0:	6e 66 6f 20 74 69 2c 20 73 69 7a 65 5f 74 20 6e     nfo ti, size_t n
  1066d0:	65 77 6c 65 6e 67 74 68 2c 20 41 72 72 61 79 20     ewlength, Array 
  1066e0:	2a 70 29 00 55 6e 64 65 66 69 6e 65 64 20 72 75     *p).Undefined ru
  1066f0:	6e 74 69 6d 65 20 73 74 75 62 20 65 78 65 63 75     ntime stub execu
  106700:	74 65 64 3a 20 62 79 74 65 5b 5d 20 5f 64 5f 61     ted: byte[] _d_a
  106710:	72 72 61 79 73 65 74 6c 65 6e 67 74 68 69 54 28     rraysetlengthiT(
  106720:	54 79 70 65 49 6e 66 6f 20 74 69 2c 20 73 69 7a     TypeInfo ti, siz
  106730:	65 5f 74 20 6e 65 77 6c 65 6e 67 74 68 2c 20 41     e_t newlength, A
  106740:	72 72 61 79 20 2a 70 29 00 00 00 00 55 6e 64 65     rray *p)....Unde
  106750:	66 69 6e 65 64 20 72 75 6e 74 69 6d 65 20 73 74     fined runtime st
  106760:	75 62 20 65 78 65 63 75 74 65 64 3a 20 41 72 72     ub executed: Arr
  106770:	61 79 20 5f 64 5f 61 72 72 61 79 61 70 70 65 6e     ay _d_arrayappen
  106780:	64 54 28 54 79 70 65 49 6e 66 6f 20 74 69 2c 20     dT(TypeInfo ti, 
  106790:	41 72 72 61 79 20 2a 70 78 2c 20 62 79 74 65 5b     Array *px, byte[
  1067a0:	5d 20 79 29 00 00 00 00 55 6e 64 65 66 69 6e 65     ] y)....Undefine
  1067b0:	64 20 72 75 6e 74 69 6d 65 20 73 74 75 62 20 65     d runtime stub e
  1067c0:	78 65 63 75 74 65 64 3a 20 62 79 74 65 5b 5d 20     xecuted: byte[] 
  1067d0:	5f 64 5f 61 72 72 61 79 61 70 70 65 6e 64 63 54     _d_arrayappendcT
  1067e0:	70 28 54 79 70 65 49 6e 66 6f 20 74 69 2c 20 69     p(TypeInfo ti, i
  1067f0:	6e 6f 75 74 20 62 79 74 65 5b 5d 20 78 2c 20 76     nout byte[] x, v
  106800:	6f 69 64 20 2a 61 72 67 70 29 00 00 55 6e 64 65     oid *argp)..Unde
  106810:	66 69 6e 65 64 20 72 75 6e 74 69 6d 65 20 73 74     fined runtime st
  106820:	75 62 20 65 78 65 63 75 74 65 64 3a 20 62 79 74     ub executed: byt
  106830:	65 5b 5d 20 5f 64 5f 61 72 72 61 79 63 61 74 54     e[] _d_arraycatT
  106840:	28 54 79 70 65 49 6e 66 6f 20 74 69 2c 20 62 79     (TypeInfo ti, by
  106850:	74 65 5b 5d 20 78 2c 20 62 79 74 65 5b 5d 20 79     te[] x, byte[] y
  106860:	29 00 00 00 55 6e 64 65 66 69 6e 65 64 20 72 75     )...Undefined ru
  106870:	6e 74 69 6d 65 20 73 74 75 62 20 65 78 65 63 75     ntime stub execu
  106880:	74 65 64 3a 20 62 79 74 65 5b 5d 20 5f 64 5f 61     ted: byte[] _d_a
  106890:	72 72 61 79 63 61 74 6e 54 28 54 79 70 65 49 6e     rraycatnT(TypeIn
  1068a0:	66 6f 20 74 69 2c 20 75 69 6e 74 20 6e 2c 20 2e     fo ti, uint n, .
  1068b0:	2e 2e 29 00 55 6e 64 65 66 69 6e 65 64 20 72 75     ..).Undefined ru
  1068c0:	6e 74 69 6d 65 20 73 74 75 62 20 65 78 65 63 75     ntime stub execu
  1068d0:	74 65 64 3a 20 41 72 72 61 79 20 5f 61 64 44 75     ted: Array _adDu
  1068e0:	70 54 28 54 79 70 65 49 6e 66 6f 20 74 69 2c 20     pT(TypeInfo ti, 
  1068f0:	41 72 72 61 79 20 61 29 00 00 00 00 55 6e 64 65     Array a)....Unde
  106900:	66 69 6e 65 64 20 72 75 6e 74 69 6d 65 20 73 74     fined runtime st
  106910:	75 62 20 65 78 65 63 75 74 65 64 3a 20 76 6f 69     ub executed: voi
  106920:	64 20 67 63 5f 69 6e 69 74 28 29 00 55 6e 64 65     d gc_init().Unde
  106930:	66 69 6e 65 64 20 72 75 6e 74 69 6d 65 20 73 74     fined runtime st
  106940:	75 62 20 65 78 65 63 75 74 65 64 3a 20 76 6f 69     ub executed: voi
  106950:	64 20 67 63 5f 74 65 72 6d 28 29 00 55 6e 64 65     d gc_term().Unde
  106960:	66 69 6e 65 64 20 72 75 6e 74 69 6d 65 20 73 74     fined runtime st
  106970:	75 62 20 65 78 65 63 75 74 65 64 3a 20 76 6f 69     ub executed: voi
  106980:	64 20 67 63 5f 65 6e 61 62 6c 65 28 29 00 00 00     d gc_enable()...
  106990:	55 6e 64 65 66 69 6e 65 64 20 72 75 6e 74 69 6d     Undefined runtim
  1069a0:	65 20 73 74 75 62 20 65 78 65 63 75 74 65 64 3a     e stub executed:
  1069b0:	20 76 6f 69 64 20 67 63 5f 64 69 73 61 62 6c 65      void gc_disable
  1069c0:	28 29 00 00 55 6e 64 65 66 69 6e 65 64 20 72 75     ()..Undefined ru
  1069d0:	6e 74 69 6d 65 20 73 74 75 62 20 65 78 65 63 75     ntime stub execu
  1069e0:	74 65 64 3a 20 76 6f 69 64 20 67 63 5f 63 6f 6c     ted: void gc_col
  1069f0:	6c 65 63 74 28 29 00 00 55 6e 64 65 66 69 6e 65     lect()..Undefine
  106a00:	64 20 72 75 6e 74 69 6d 65 20 73 74 75 62 20 65     d runtime stub e
  106a10:	78 65 63 75 74 65 64 3a 20 75 69 6e 74 20 67 63     xecuted: uint gc
  106a20:	5f 67 65 74 41 74 74 72 28 20 76 6f 69 64 2a 20     _getAttr( void* 
  106a30:	70 20 29 00 55 6e 64 65 66 69 6e 65 64 20 72 75     p ).Undefined ru
  106a40:	6e 74 69 6d 65 20 73 74 75 62 20 65 78 65 63 75     ntime stub execu
  106a50:	74 65 64 3a 20 75 69 6e 74 20 67 63 5f 73 65 74     ted: uint gc_set
  106a60:	41 74 74 72 28 20 76 6f 69 64 2a 20 70 2c 20 75     Attr( void* p, u
  106a70:	69 6e 74 20 61 20 29 00 55 6e 64 65 66 69 6e 65     int a ).Undefine
  106a80:	64 20 72 75 6e 74 69 6d 65 20 73 74 75 62 20 65     d runtime stub e
  106a90:	78 65 63 75 74 65 64 3a 20 75 69 6e 74 20 67 63     xecuted: uint gc
  106aa0:	5f 63 6c 72 41 74 74 72 28 20 76 6f 69 64 2a 20     _clrAttr( void* 
  106ab0:	70 2c 20 75 69 6e 74 20 61 20 29 00 55 6e 64 65     p, uint a ).Unde
  106ac0:	66 69 6e 65 64 20 72 75 6e 74 69 6d 65 20 73 74     fined runtime st
  106ad0:	75 62 20 65 78 65 63 75 74 65 64 3a 20 76 6f 69     ub executed: voi
  106ae0:	64 2a 20 67 63 5f 6d 61 6c 6c 6f 63 28 20 73 69     d* gc_malloc( si
  106af0:	7a 65 5f 74 20 73 7a 2c 20 75 69 6e 74 20 62 61     ze_t sz, uint ba
  106b00:	20 3d 20 30 20 29 00 00 55 6e 64 65 66 69 6e 65      = 0 )..Undefine
  106b10:	64 20 72 75 6e 74 69 6d 65 20 73 74 75 62 20 65     d runtime stub e
  106b20:	78 65 63 75 74 65 64 3a 20 76 6f 69 64 2a 20 67     xecuted: void* g
  106b30:	63 5f 63 61 6c 6c 6f 63 28 20 73 69 7a 65 5f 74     c_calloc( size_t
  106b40:	20 73 7a 2c 20 75 69 6e 74 20 62 61 20 3d 20 30      sz, uint ba = 0
  106b50:	20 29 00 00 55 6e 64 65 66 69 6e 65 64 20 72 75      )..Undefined ru
  106b60:	6e 74 69 6d 65 20 73 74 75 62 20 65 78 65 63 75     ntime stub execu
  106b70:	74 65 64 3a 20 76 6f 69 64 2a 20 67 63 5f 72 65     ted: void* gc_re
  106b80:	61 6c 6c 6f 63 28 20 76 6f 69 64 2a 20 70 2c 20     alloc( void* p, 
  106b90:	73 69 7a 65 5f 74 20 73 7a 2c 20 75 69 6e 74 20     size_t sz, uint 
  106ba0:	62 61 20 3d 20 30 20 29 00 00 00 00 55 6e 64 65     ba = 0 )....Unde
  106bb0:	66 69 6e 65 64 20 72 75 6e 74 69 6d 65 20 73 74     fined runtime st
  106bc0:	75 62 20 65 78 65 63 75 74 65 64 3a 20 73 69 7a     ub executed: siz
  106bd0:	65 5f 74 20 67 63 5f 65 78 74 65 6e 64 28 20 76     e_t gc_extend( v
  106be0:	6f 69 64 2a 20 70 2c 20 73 69 7a 65 5f 74 20 6d     oid* p, size_t m
  106bf0:	78 2c 20 73 69 7a 65 5f 74 20 73 7a 20 29 00 00     x, size_t sz )..
  106c00:	55 6e 64 65 66 69 6e 65 64 20 72 75 6e 74 69 6d     Undefined runtim
  106c10:	65 20 73 74 75 62 20 65 78 65 63 75 74 65 64 3a     e stub executed:
  106c20:	20 76 6f 69 64 20 67 63 5f 66 72 65 65 28 20 76      void gc_free( v
  106c30:	6f 69 64 2a 20 70 20 29 00 00 00 00 55 6e 64 65     oid* p )....Unde
  106c40:	66 69 6e 65 64 20 72 75 6e 74 69 6d 65 20 73 74     fined runtime st
  106c50:	75 62 20 65 78 65 63 75 74 65 64 3a 20 73 69 7a     ub executed: siz
  106c60:	65 5f 74 20 67 63 5f 73 69 7a 65 4f 66 28 20 76     e_t gc_sizeOf( v
  106c70:	6f 69 64 2a 20 70 20 29 00 00 00 00 55 6e 64 65     oid* p )....Unde
  106c80:	66 69 6e 65 64 20 72 75 6e 74 69 6d 65 20 73 74     fined runtime st
  106c90:	75 62 20 65 78 65 63 75 74 65 64 3a 20 76 6f 69     ub executed: voi
  106ca0:	64 20 67 63 5f 61 64 64 52 6f 6f 74 28 20 76 6f     d gc_addRoot( vo
  106cb0:	69 64 2a 20 70 20 29 00 55 6e 64 65 66 69 6e 65     id* p ).Undefine
  106cc0:	64 20 72 75 6e 74 69 6d 65 20 73 74 75 62 20 65     d runtime stub e
  106cd0:	78 65 63 75 74 65 64 3a 20 76 6f 69 64 20 67 63     xecuted: void gc
  106ce0:	5f 61 64 64 52 61 6e 67 65 28 20 76 6f 69 64 2a     _addRange( void*
  106cf0:	20 70 2c 20 73 69 7a 65 5f 74 20 73 7a 20 29 00      p, size_t sz ).
  106d00:	55 6e 64 65 66 69 6e 65 64 20 72 75 6e 74 69 6d     Undefined runtim
  106d10:	65 20 73 74 75 62 20 65 78 65 63 75 74 65 64 3a     e stub executed:
  106d20:	20 76 6f 69 64 20 67 63 5f 72 65 6d 6f 76 65 52      void gc_removeR
  106d30:	6f 6f 74 28 20 76 6f 69 64 20 2a 70 20 29 00 00     oot( void *p )..
  106d40:	55 6e 64 65 66 69 6e 65 64 20 72 75 6e 74 69 6d     Undefined runtim
  106d50:	65 20 73 74 75 62 20 65 78 65 63 75 74 65 64 3a     e stub executed:
  106d60:	20 76 6f 69 64 20 67 63 5f 72 65 6d 6f 76 65 52      void gc_removeR
  106d70:	61 6e 67 65 28 20 76 6f 69 64 20 2a 70 20 29 00     ange( void *p ).
  106d80:	55 6e 64 65 66 69 6e 65 64 20 72 75 6e 74 69 6d     Undefined runtim
  106d90:	65 20 73 74 75 62 20 65 78 65 63 75 74 65 64 3a     e stub executed:
  106da0:	20 62 6f 6f 6c 20 6f 6e 43 6f 6c 6c 65 63 74 52      bool onCollectR
  106db0:	65 73 6f 75 72 63 65 28 20 4f 62 6a 65 63 74 20     esource( Object 
  106dc0:	6f 62 6a 20 29 00 00 00 55 6e 64 65 66 69 6e 65     obj )...Undefine
  106dd0:	64 20 72 75 6e 74 69 6d 65 20 73 74 75 62 20 65     d runtime stub e
  106de0:	78 65 63 75 74 65 64 3a 20 76 6f 69 64 20 6f 6e     xecuted: void on
  106df0:	46 69 6e 61 6c 69 7a 65 45 72 72 6f 72 28 20 43     FinalizeError( C
  106e00:	6c 61 73 73 49 6e 66 6f 20 69 6e 66 6f 2c 20 45     lassInfo info, E
  106e10:	78 63 65 70 74 69 6f 6e 20 65 78 20 29 00 00 00     xception ex )...
  106e20:	55 6e 64 65 66 69 6e 65 64 20 72 75 6e 74 69 6d     Undefined runtim
  106e30:	65 20 73 74 75 62 20 65 78 65 63 75 74 65 64 3a     e stub executed:
  106e40:	20 76 6f 69 64 20 6f 6e 55 6e 69 63 6f 64 65 45      void onUnicodeE
  106e50:	72 72 6f 72 28 20 63 68 61 72 5b 5d 20 6d 73 67     rror( char[] msg
  106e60:	2c 20 73 69 7a 65 5f 74 20 69 64 78 20 29 00 00     , size_t idx )..
  106e70:	55 6e 64 65 66 69 6e 65 64 20 72 75 6e 74 69 6d     Undefined runtim
  106e80:	65 20 73 74 75 62 20 65 78 65 63 75 74 65 64 3a     e stub executed:
  106e90:	20 76 6f 69 64 20 5f 64 5f 74 68 72 6f 77 5f 65      void _d_throw_e
  106ea0:	78 63 65 70 74 69 6f 6e 28 4f 62 6a 65 63 74 20     xception(Object 
  106eb0:	65 29 00 00 55 6e 64 65 66 69 6e 65 64 20 72 75     e)..Undefined ru
  106ec0:	6e 74 69 6d 65 20 73 74 75 62 20 65 78 65 63 75     ntime stub execu
  106ed0:	74 65 64 3a 20 76 6f 69 64 20 5f 67 64 63 5f 63     ted: void _gdc_c
  106ee0:	6c 65 61 6e 75 70 45 78 63 65 70 74 69 6f 6e 28     leanupException(
  106ef0:	29 00 00 00 55 6e 64 65 66 69 6e 65 64 20 72 75     )...Undefined ru
  106f00:	6e 74 69 6d 65 20 73 74 75 62 20 65 78 65 63 75     ntime stub execu
  106f10:	74 65 64 3a 20 76 6f 69 64 20 5f 64 5f 74 68 72     ted: void _d_thr
  106f20:	6f 77 28 4f 62 6a 65 63 74 20 6f 62 6a 29 00 00     ow(Object obj)..
  106f30:	55 6e 64 65 66 69 6e 65 64 20 72 75 6e 74 69 6d     Undefined runtim
  106f40:	65 20 73 74 75 62 20 65 78 65 63 75 74 65 64 3a     e stub executed:
  106f50:	20 69 6e 74 20 5f 5f 67 64 63 5f 70 65 72 73 6f      int __gdc_perso
  106f60:	6e 61 6c 69 74 79 5f 76 30 28 29 00 55 6e 64 65     nality_v0().Unde
  106f70:	66 69 6e 65 64 20 72 75 6e 74 69 6d 65 20 73 74     fined runtime st
  106f80:	75 62 20 65 78 65 63 75 74 65 64 3a 20 76 6f 69     ub executed: voi
  106f90:	64 20 5f 55 6e 77 69 6e 64 5f 52 61 69 73 65 45     d _Unwind_RaiseE
  106fa0:	78 63 65 70 74 69 6f 6e 20 28 29 00 55 6e 64 65     xception ().Unde
  106fb0:	66 69 6e 65 64 20 72 75 6e 74 69 6d 65 20 73 74     fined runtime st
  106fc0:	75 62 20 65 78 65 63 75 74 65 64 3a 20 76 6f 69     ub executed: voi
  106fd0:	64 20 5f 55 6e 77 69 6e 64 5f 46 6f 72 63 65 64     d _Unwind_Forced
  106fe0:	55 6e 77 69 6e 64 20 28 29 00 00 00 55 6e 64 65     Unwind ()...Unde
  106ff0:	66 69 6e 65 64 20 72 75 6e 74 69 6d 65 20 73 74     fined runtime st
  107000:	75 62 20 65 78 65 63 75 74 65 64 3a 20 76 6f 69     ub executed: voi
  107010:	64 20 5f 55 6e 77 69 6e 64 5f 44 65 6c 65 74 65     d _Unwind_Delete
  107020:	45 78 63 65 70 74 69 6f 6e 20 28 29 00 00 00 00     Exception ()....
  107030:	55 6e 64 65 66 69 6e 65 64 20 72 75 6e 74 69 6d     Undefined runtim
  107040:	65 20 73 74 75 62 20 65 78 65 63 75 74 65 64 3a     e stub executed:
  107050:	20 76 6f 69 64 20 5f 55 6e 77 69 6e 64 5f 52 65      void _Unwind_Re
  107060:	73 75 6d 65 28 29 00 00 55 6e 64 65 66 69 6e 65     sume()..Undefine
  107070:	64 20 72 75 6e 74 69 6d 65 20 73 74 75 62 20 65     d runtime stub e
  107080:	78 65 63 75 74 65 64 3a 20 76 6f 69 64 20 5f 55     xecuted: void _U
  107090:	6e 77 69 6e 64 5f 52 65 73 75 6d 65 5f 6f 72 5f     nwind_Resume_or_
  1070a0:	52 65 74 68 72 6f 77 20 28 29 00 00 55 6e 64 65     Rethrow ()..Unde
  1070b0:	66 69 6e 65 64 20 72 75 6e 74 69 6d 65 20 73 74     fined runtime st
  1070c0:	75 62 20 65 78 65 63 75 74 65 64 3a 20 76 6f 69     ub executed: voi
  1070d0:	64 20 5f 55 6e 77 69 6e 64 5f 42 61 63 6b 74 72     d _Unwind_Backtr
  1070e0:	61 63 65 20 28 29 00 00 55 6e 64 65 66 69 6e 65     ace ()..Undefine
  1070f0:	64 20 72 75 6e 74 69 6d 65 20 73 74 75 62 20 65     d runtime stub e
  107100:	78 65 63 75 74 65 64 3a 20 76 6f 69 64 20 5f 55     xecuted: void _U
  107110:	6e 77 69 6e 64 5f 47 65 74 47 52 20 28 29 00 00     nwind_GetGR ()..
  107120:	55 6e 64 65 66 69 6e 65 64 20 72 75 6e 74 69 6d     Undefined runtim
  107130:	65 20 73 74 75 62 20 65 78 65 63 75 74 65 64 3a     e stub executed:
  107140:	20 76 6f 69 64 20 5f 55 6e 77 69 6e 64 5f 53 65      void _Unwind_Se
  107150:	74 47 52 20 28 29 00 00 55 6e 64 65 66 69 6e 65     tGR ()..Undefine
  107160:	64 20 72 75 6e 74 69 6d 65 20 73 74 75 62 20 65     d runtime stub e
  107170:	78 65 63 75 74 65 64 3a 20 76 6f 69 64 20 5f 55     xecuted: void _U
  107180:	6e 77 69 6e 64 5f 47 65 74 49 50 20 28 29 00 00     nwind_GetIP ()..
  107190:	55 6e 64 65 66 69 6e 65 64 20 72 75 6e 74 69 6d     Undefined runtim
  1071a0:	65 20 73 74 75 62 20 65 78 65 63 75 74 65 64 3a     e stub executed:
  1071b0:	20 76 6f 69 64 20 5f 55 6e 77 69 6e 64 5f 53 65      void _Unwind_Se
  1071c0:	74 49 50 20 28 29 00 00 55 6e 64 65 66 69 6e 65     tIP ()..Undefine
  1071d0:	64 20 72 75 6e 74 69 6d 65 20 73 74 75 62 20 65     d runtime stub e
  1071e0:	78 65 63 75 74 65 64 3a 20 76 6f 69 64 20 5f 55     xecuted: void _U
  1071f0:	6e 77 69 6e 64 5f 47 65 74 43 46 41 20 28 29 00     nwind_GetCFA ().
  107200:	55 6e 64 65 66 69 6e 65 64 20 72 75 6e 74 69 6d     Undefined runtim
  107210:	65 20 73 74 75 62 20 65 78 65 63 75 74 65 64 3a     e stub executed:
  107220:	20 76 6f 69 64 20 2a 5f 55 6e 77 69 6e 64 5f 47      void *_Unwind_G
  107230:	65 74 4c 61 6e 67 75 61 67 65 53 70 65 63 69 66     etLanguageSpecif
  107240:	69 63 44 61 74 61 20 28 29 00 00 00 55 6e 64 65     icData ()...Unde
  107250:	66 69 6e 65 64 20 72 75 6e 74 69 6d 65 20 73 74     fined runtime st
  107260:	75 62 20 65 78 65 63 75 74 65 64 3a 20 76 6f 69     ub executed: voi
  107270:	64 20 5f 55 6e 77 69 6e 64 5f 47 65 74 52 65 67     d _Unwind_GetReg
  107280:	69 6f 6e 53 74 61 72 74 20 28 29 00 55 6e 64 65     ionStart ().Unde
  107290:	66 69 6e 65 64 20 72 75 6e 74 69 6d 65 20 73 74     fined runtime st
  1072a0:	75 62 20 65 78 65 63 75 74 65 64 3a 20 76 6f 69     ub executed: voi
  1072b0:	64 20 5f 55 6e 77 69 6e 64 5f 53 6a 4c 6a 5f 52     d _Unwind_SjLj_R
  1072c0:	61 69 73 65 45 78 63 65 70 74 69 6f 6e 28 29 00     aiseException().
  1072d0:	55 6e 64 65 66 69 6e 65 64 20 72 75 6e 74 69 6d     Undefined runtim
  1072e0:	65 20 73 74 75 62 20 65 78 65 63 75 74 65 64 3a     e stub executed:
  1072f0:	20 76 6f 69 64 20 5f 55 6e 77 69 6e 64 5f 53 6a      void _Unwind_Sj
  107300:	4c 6a 5f 46 6f 72 63 65 64 55 6e 77 69 6e 64 28     Lj_ForcedUnwind(
  107310:	29 00 00 00 55 6e 64 65 66 69 6e 65 64 20 72 75     )...Undefined ru
  107320:	6e 74 69 6d 65 20 73 74 75 62 20 65 78 65 63 75     ntime stub execu
  107330:	74 65 64 3a 20 76 6f 69 64 20 5f 55 6e 77 69 6e     ted: void _Unwin
  107340:	64 5f 53 6a 4c 6a 5f 52 65 73 75 6d 65 20 28 29     d_SjLj_Resume ()
  107350:	00 00 00 00 55 6e 64 65 66 69 6e 65 64 20 72 75     ....Undefined ru
  107360:	6e 74 69 6d 65 20 73 74 75 62 20 65 78 65 63 75     ntime stub execu
  107370:	74 65 64 3a 20 76 6f 69 64 20 5f 55 6e 77 69 6e     ted: void _Unwin
  107380:	64 5f 47 65 74 44 61 74 61 52 65 6c 42 61 73 65     d_GetDataRelBase
  107390:	20 28 29 00 55 6e 64 65 66 69 6e 65 64 20 72 75      ().Undefined ru
  1073a0:	6e 74 69 6d 65 20 73 74 75 62 20 65 78 65 63 75     ntime stub execu
  1073b0:	74 65 64 3a 20 76 6f 69 64 20 5f 55 6e 77 69 6e     ted: void _Unwin
  1073c0:	64 5f 47 65 74 54 65 78 74 52 65 6c 42 61 73 65     d_GetTextRelBase
  1073d0:	20 28 29 00 55 6e 64 65 66 69 6e 65 64 20 72 75      ().Undefined ru
  1073e0:	6e 74 69 6d 65 20 73 74 75 62 20 65 78 65 63 75     ntime stub execu
  1073f0:	74 65 64 3a 20 75 69 6e 74 20 73 69 7a 65 5f 6f     ted: uint size_o
  107400:	66 5f 65 6e 63 6f 64 65 64 5f 76 61 6c 75 65 20     f_encoded_value 
  107410:	28 75 62 79 74 65 20 65 6e 63 6f 64 69 6e 67 29     (ubyte encoding)
  107420:	00 00 00 00 55 6e 64 65 66 69 6e 65 64 20 72 75     ....Undefined ru
  107430:	6e 74 69 6d 65 20 73 74 75 62 20 65 78 65 63 75     ntime stub execu
  107440:	74 65 64 3a 20 76 6f 69 64 20 62 61 73 65 5f 6f     ted: void base_o
  107450:	66 5f 65 6e 63 6f 64 65 64 5f 76 61 6c 75 65 20     f_encoded_value 
  107460:	28 29 00 00 55 6e 64 65 66 69 6e 65 64 20 72 75     ()..Undefined ru
  107470:	6e 74 69 6d 65 20 73 74 75 62 20 65 78 65 63 75     ntime stub execu
  107480:	74 65 64 3a 20 76 6f 69 64 20 72 65 61 64 5f 75     ted: void read_u
  107490:	6c 65 62 31 32 38 28 29 00 00 00 00 55 6e 64 65     leb128()....Unde
  1074a0:	66 69 6e 65 64 20 72 75 6e 74 69 6d 65 20 73 74     fined runtime st
  1074b0:	75 62 20 65 78 65 63 75 74 65 64 3a 20 76 6f 69     ub executed: voi
  1074c0:	64 20 72 65 61 64 5f 73 6c 65 62 31 32 38 28 29     d read_sleb128()
  1074d0:	00 00 00 00 55 6e 64 65 66 69 6e 65 64 20 72 75     ....Undefined ru
  1074e0:	6e 74 69 6d 65 20 73 74 75 62 20 65 78 65 63 75     ntime stub execu
  1074f0:	74 65 64 3a 20 76 6f 69 64 20 72 65 61 64 5f 65     ted: void read_e
  107500:	6e 63 6f 64 65 64 5f 76 61 6c 75 65 5f 77 69 74     ncoded_value_wit
  107510:	68 5f 62 61 73 65 28 29 00 00 00 00 55 6e 64 65     h_base()....Unde
  107520:	66 69 6e 65 64 20 72 75 6e 74 69 6d 65 20 73 74     fined runtime st
  107530:	75 62 20 65 78 65 63 75 74 65 64 3a 20 76 6f 69     ub executed: voi
  107540:	64 20 72 65 61 64 5f 65 6e 63 6f 64 65 64 5f 76     d read_encoded_v
  107550:	61 6c 75 65 28 29 00 00 55 6e 64 65 66 69 6e 65     alue()..Undefine
  107560:	64 20 72 75 6e 74 69 6d 65 20 73 74 75 62 20 65     d runtime stub e
  107570:	78 65 63 75 74 65 64 3a 20 73 69 7a 65 5f 74 20     xecuted: size_t 
  107580:	5f 61 61 4c 65 6e 28 41 41 20 61 61 29 00 00 00     _aaLen(AA aa)...
  107590:	55 6e 64 65 66 69 6e 65 64 20 72 75 6e 74 69 6d     Undefined runtim
  1075a0:	65 20 73 74 75 62 20 65 78 65 63 75 74 65 64 3a     e stub executed:
  1075b0:	20 76 6f 69 64 20 2a 5f 61 61 47 65 74 70 28 41      void *_aaGetp(A
  1075c0:	41 2a 20 61 61 2c 20 54 79 70 65 49 6e 66 6f 20     A* aa, TypeInfo 
  1075d0:	6b 65 79 74 69 2c 20 73 69 7a 65 5f 74 20 76 61     keyti, size_t va
  1075e0:	6c 75 65 73 69 7a 65 2c 20 76 6f 69 64 20 2a 70     luesize, void *p
  1075f0:	6b 65 79 29 00 00 00 00 55 6e 64 65 66 69 6e 65     key)....Undefine
  107600:	64 20 72 75 6e 74 69 6d 65 20 73 74 75 62 20 65     d runtime stub e
  107610:	78 65 63 75 74 65 64 3a 20 76 6f 69 64 20 2a 5f     xecuted: void *_
  107620:	61 61 47 65 74 52 76 61 6c 75 65 70 28 41 41 20     aaGetRvaluep(AA 
  107630:	61 61 2c 20 54 79 70 65 49 6e 66 6f 20 6b 65 79     aa, TypeInfo key
  107640:	74 69 2c 20 73 69 7a 65 5f 74 20 76 61 6c 75 65     ti, size_t value
  107650:	73 69 7a 65 2c 20 76 6f 69 64 20 2a 70 6b 65 79     size, void *pkey
  107660:	29 00 00 00 55 6e 64 65 66 69 6e 65 64 20 72 75     )...Undefined ru
  107670:	6e 74 69 6d 65 20 73 74 75 62 20 65 78 65 63 75     ntime stub execu
  107680:	74 65 64 3a 20 76 6f 69 64 2a 20 5f 61 61 49 6e     ted: void* _aaIn
  107690:	70 28 41 41 20 61 61 2c 20 54 79 70 65 49 6e 66     p(AA aa, TypeInf
  1076a0:	6f 20 6b 65 79 74 69 2c 20 76 6f 69 64 20 2a 70     o keyti, void *p
  1076b0:	6b 65 79 29 00 00 00 00 55 6e 64 65 66 69 6e 65     key)....Undefine
  1076c0:	64 20 72 75 6e 74 69 6d 65 20 73 74 75 62 20 65     d runtime stub e
  1076d0:	78 65 63 75 74 65 64 3a 20 76 6f 69 64 20 5f 61     xecuted: void _a
  1076e0:	61 44 65 6c 70 28 41 41 20 61 61 2c 20 54 79 70     aDelp(AA aa, Typ
  1076f0:	65 49 6e 66 6f 20 6b 65 79 74 69 2c 20 76 6f 69     eInfo keyti, voi
  107700:	64 20 2a 70 6b 65 79 29 00 00 00 00 55 6e 64 65     d *pkey)....Unde
  107710:	66 69 6e 65 64 20 72 75 6e 74 69 6d 65 20 73 74     fined runtime st
  107720:	75 62 20 65 78 65 63 75 74 65 64 3a 20 41 72 72     ub executed: Arr
  107730:	61 79 20 5f 61 61 56 61 6c 75 65 73 28 41 41 20     ay _aaValues(AA 
  107740:	61 61 2c 20 73 69 7a 65 5f 74 20 6b 65 79 73 69     aa, size_t keysi
  107750:	7a 65 2c 20 73 69 7a 65 5f 74 20 76 61 6c 75 65     ze, size_t value
  107760:	73 69 7a 65 29 00 00 00 55 6e 64 65 66 69 6e 65     size)...Undefine
  107770:	64 20 72 75 6e 74 69 6d 65 20 73 74 75 62 20 65     d runtime stub e
  107780:	78 65 63 75 74 65 64 3a 20 41 41 20 5f 61 61 52     xecuted: AA _aaR
  107790:	65 68 61 73 68 28 41 41 2a 20 70 61 61 2c 20 54     ehash(AA* paa, T
  1077a0:	79 70 65 49 6e 66 6f 20 6b 65 79 74 69 29 00 00     ypeInfo keyti)..
  1077b0:	55 6e 64 65 66 69 6e 65 64 20 72 75 6e 74 69 6d     Undefined runtim
  1077c0:	65 20 73 74 75 62 20 65 78 65 63 75 74 65 64 3a     e stub executed:
  1077d0:	20 41 72 72 61 79 20 5f 61 61 4b 65 79 73 28 41      Array _aaKeys(A
  1077e0:	41 20 61 61 2c 20 73 69 7a 65 5f 74 20 6b 65 79     A aa, size_t key
  1077f0:	73 69 7a 65 29 00 00 00 55 6e 64 65 66 69 6e 65     size)...Undefine
  107800:	64 20 72 75 6e 74 69 6d 65 20 73 74 75 62 20 65     d runtime stub e
  107810:	78 65 63 75 74 65 64 3a 20 69 6e 74 20 5f 61 61     xecuted: int _aa
  107820:	41 70 70 6c 79 28 41 41 20 61 61 2c 20 73 69 7a     Apply(AA aa, siz
  107830:	65 5f 74 20 6b 65 79 73 69 7a 65 2c 20 61 61 5f     e_t keysize, aa_
  107840:	64 67 5f 74 20 64 67 29 00 00 00 00 55 6e 64 65     dg_t dg)....Unde
  107850:	66 69 6e 65 64 20 72 75 6e 74 69 6d 65 20 73 74     fined runtime st
  107860:	75 62 20 65 78 65 63 75 74 65 64 3a 20 69 6e 74     ub executed: int
  107870:	20 5f 61 61 41 70 70 6c 79 32 28 41 41 20 61 61      _aaApply2(AA aa
  107880:	2c 20 73 69 7a 65 5f 74 20 6b 65 79 73 69 7a 65     , size_t keysize
  107890:	2c 20 61 61 5f 64 67 32 5f 74 20 64 67 29 00 00     , aa_dg2_t dg)..
  1078a0:	55 6e 64 65 66 69 6e 65 64 20 72 75 6e 74 69 6d     Undefined runtim
  1078b0:	65 20 73 74 75 62 20 65 78 65 63 75 74 65 64 3a     e stub executed:
  1078c0:	20 42 42 2a 20 5f 64 5f 61 73 73 6f 63 61 72 72      BB* _d_assocarr
  1078d0:	61 79 6c 69 74 65 72 61 6c 54 70 28 54 79 70 65     ayliteralTp(Type
  1078e0:	49 6e 66 6f 5f 41 73 73 6f 63 69 61 74 69 76 65     Info_Associative
  1078f0:	41 72 72 61 79 20 74 69 2c 20 73 69 7a 65 5f 74     Array ti, size_t
  107900:	20 6c 65 6e 67 74 68 2c 20 76 6f 69 64 20 2a 6b      length, void *k
  107910:	65 79 73 2c 20 76 6f 69 64 20 2a 76 61 6c 75 65     eys, void *value
  107920:	73 29 00 00 55 6e 64 65 66 69 6e 65 64 20 72 75     s)..Undefined ru
  107930:	6e 74 69 6d 65 20 73 74 75 62 20 65 78 65 63 75     ntime stub execu
  107940:	74 65 64 3a 20 69 6e 74 20 5f 61 41 70 70 6c 79     ted: int _aApply
  107950:	63 77 31 28 63 68 61 72 5b 5d 20 61 61 2c 20 61     cw1(char[] aa, a
  107960:	72 72 61 79 5f 64 67 5f 74 20 64 67 29 00 00 00     rray_dg_t dg)...
  107970:	55 6e 64 65 66 69 6e 65 64 20 72 75 6e 74 69 6d     Undefined runtim
  107980:	65 20 73 74 75 62 20 65 78 65 63 75 74 65 64 3a     e stub executed:
  107990:	20 69 6e 74 20 5f 61 41 70 70 6c 79 63 64 31 28      int _aApplycd1(
  1079a0:	63 68 61 72 5b 5d 20 61 61 2c 20 61 72 72 61 79     char[] aa, array
  1079b0:	5f 64 67 5f 74 20 64 67 29 00 00 00 55 6e 64 65     _dg_t dg)...Unde
  1079c0:	66 69 6e 65 64 20 72 75 6e 74 69 6d 65 20 73 74     fined runtime st
  1079d0:	75 62 20 65 78 65 63 75 74 65 64 3a 20 69 6e 74     ub executed: int
  1079e0:	20 5f 61 41 70 70 6c 79 77 63 31 28 77 63 68 61      _aApplywc1(wcha
  1079f0:	72 5b 5d 20 61 61 2c 20 61 72 72 61 79 5f 64 67     r[] aa, array_dg
  107a00:	5f 74 20 64 67 29 00 00 55 6e 64 65 66 69 6e 65     _t dg)..Undefine
  107a10:	64 20 72 75 6e 74 69 6d 65 20 73 74 75 62 20 65     d runtime stub e
  107a20:	78 65 63 75 74 65 64 3a 20 69 6e 74 20 5f 61 41     xecuted: int _aA
  107a30:	70 70 6c 79 77 64 31 28 77 63 68 61 72 5b 5d 20     pplywd1(wchar[] 
  107a40:	61 61 2c 20 61 72 72 61 79 5f 64 67 5f 74 20 64     aa, array_dg_t d
  107a50:	67 29 00 00 55 6e 64 65 66 69 6e 65 64 20 72 75     g)..Undefined ru
  107a60:	6e 74 69 6d 65 20 73 74 75 62 20 65 78 65 63 75     ntime stub execu
  107a70:	74 65 64 3a 20 69 6e 74 20 5f 61 41 70 70 6c 79     ted: int _aApply
  107a80:	64 63 31 28 64 63 68 61 72 5b 5d 20 61 61 2c 20     dc1(dchar[] aa, 
  107a90:	61 72 72 61 79 5f 64 67 5f 74 20 64 67 29 00 00     array_dg_t dg)..
  107aa0:	55 6e 64 65 66 69 6e 65 64 20 72 75 6e 74 69 6d     Undefined runtim
  107ab0:	65 20 73 74 75 62 20 65 78 65 63 75 74 65 64 3a     e stub executed:
  107ac0:	20 69 6e 74 20 5f 61 41 70 70 6c 79 64 77 31 28      int _aApplydw1(
  107ad0:	64 63 68 61 72 5b 5d 20 61 61 2c 20 61 72 72 61     dchar[] aa, arra
  107ae0:	79 5f 64 67 5f 74 20 64 67 29 00 00 55 6e 64 65     y_dg_t dg)..Unde
  107af0:	66 69 6e 65 64 20 72 75 6e 74 69 6d 65 20 73 74     fined runtime st
  107b00:	75 62 20 65 78 65 63 75 74 65 64 3a 20 69 6e 74     ub executed: int
  107b10:	20 5f 61 41 70 70 6c 79 63 77 32 28 63 68 61 72      _aApplycw2(char
  107b20:	5b 5d 20 61 61 2c 20 61 72 72 61 79 5f 64 67 32     [] aa, array_dg2
  107b30:	5f 74 20 64 67 29 00 00 55 6e 64 65 66 69 6e 65     _t dg)..Undefine
  107b40:	64 20 72 75 6e 74 69 6d 65 20 73 74 75 62 20 65     d runtime stub e
  107b50:	78 65 63 75 74 65 64 3a 20 69 6e 74 20 5f 61 41     xecuted: int _aA
  107b60:	70 70 6c 79 63 64 32 28 63 68 61 72 5b 5d 20 61     pplycd2(char[] a
  107b70:	61 2c 20 61 72 72 61 79 5f 64 67 32 5f 74 20 64     a, array_dg2_t d
  107b80:	67 29 00 00 55 6e 64 65 66 69 6e 65 64 20 72 75     g)..Undefined ru
  107b90:	6e 74 69 6d 65 20 73 74 75 62 20 65 78 65 63 75     ntime stub execu
  107ba0:	74 65 64 3a 20 69 6e 74 20 5f 61 41 70 70 6c 79     ted: int _aApply
  107bb0:	77 63 32 28 77 63 68 61 72 5b 5d 20 61 61 2c 20     wc2(wchar[] aa, 
  107bc0:	61 72 72 61 79 5f 64 67 32 5f 74 20 64 67 29 00     array_dg2_t dg).
  107bd0:	55 6e 64 65 66 69 6e 65 64 20 72 75 6e 74 69 6d     Undefined runtim
  107be0:	65 20 73 74 75 62 20 65 78 65 63 75 74 65 64 3a     e stub executed:
  107bf0:	20 69 6e 74 20 5f 61 41 70 70 6c 79 77 64 32 28      int _aApplywd2(
  107c00:	77 63 68 61 72 5b 5d 20 61 61 2c 20 61 72 72 61     wchar[] aa, arra
  107c10:	79 5f 64 67 32 5f 74 20 64 67 29 00 55 6e 64 65     y_dg2_t dg).Unde
  107c20:	66 69 6e 65 64 20 72 75 6e 74 69 6d 65 20 73 74     fined runtime st
  107c30:	75 62 20 65 78 65 63 75 74 65 64 3a 20 69 6e 74     ub executed: int
  107c40:	20 5f 61 41 70 70 6c 79 64 63 32 28 64 63 68 61      _aApplydc2(dcha
  107c50:	72 5b 5d 20 61 61 2c 20 61 72 72 61 79 5f 64 67     r[] aa, array_dg
  107c60:	32 5f 74 20 64 67 29 00 55 6e 64 65 66 69 6e 65     2_t dg).Undefine
  107c70:	64 20 72 75 6e 74 69 6d 65 20 73 74 75 62 20 65     d runtime stub e
  107c80:	78 65 63 75 74 65 64 3a 20 69 6e 74 20 5f 61 41     xecuted: int _aA
  107c90:	70 70 6c 79 64 77 32 28 64 63 68 61 72 5b 5d 20     pplydw2(dchar[] 
  107ca0:	61 61 2c 20 61 72 72 61 79 5f 64 67 32 5f 74 20     aa, array_dg2_t 
  107cb0:	64 67 29 00 55 6e 64 65 66 69 6e 65 64 20 72 75     dg).Undefined ru
  107cc0:	6e 74 69 6d 65 20 73 74 75 62 20 65 78 65 63 75     ntime stub execu
  107cd0:	74 65 64 3a 20 69 6e 74 20 5f 61 41 70 70 6c 79     ted: int _aApply
  107ce0:	52 63 77 31 28 63 68 61 72 5b 5d 20 61 61 2c 20     Rcw1(char[] aa, 
  107cf0:	61 72 72 61 79 5f 64 67 5f 74 20 64 67 29 00 00     array_dg_t dg)..
  107d00:	55 6e 64 65 66 69 6e 65 64 20 72 75 6e 74 69 6d     Undefined runtim
  107d10:	65 20 73 74 75 62 20 65 78 65 63 75 74 65 64 3a     e stub executed:
  107d20:	20 69 6e 74 20 5f 61 41 70 70 6c 79 52 63 64 31      int _aApplyRcd1
  107d30:	28 63 68 61 72 5b 5d 20 61 61 2c 20 61 72 72 61     (char[] aa, arra
  107d40:	79 5f 64 67 5f 74 20 64 67 29 00 00 55 6e 64 65     y_dg_t dg)..Unde
  107d50:	66 69 6e 65 64 20 72 75 6e 74 69 6d 65 20 73 74     fined runtime st
  107d60:	75 62 20 65 78 65 63 75 74 65 64 3a 20 69 6e 74     ub executed: int
  107d70:	20 5f 61 41 70 70 6c 79 52 77 63 31 28 77 63 68      _aApplyRwc1(wch
  107d80:	61 72 5b 5d 20 61 61 2c 20 61 72 72 61 79 5f 64     ar[] aa, array_d
  107d90:	67 5f 74 20 64 67 29 00 55 6e 64 65 66 69 6e 65     g_t dg).Undefine
  107da0:	64 20 72 75 6e 74 69 6d 65 20 73 74 75 62 20 65     d runtime stub e
  107db0:	78 65 63 75 74 65 64 3a 20 69 6e 74 20 5f 61 41     xecuted: int _aA
  107dc0:	70 70 6c 79 52 77 64 31 28 77 63 68 61 72 5b 5d     pplyRwd1(wchar[]
  107dd0:	20 61 61 2c 20 61 72 72 61 79 5f 64 67 5f 74 20      aa, array_dg_t 
  107de0:	64 67 29 00 55 6e 64 65 66 69 6e 65 64 20 72 75     dg).Undefined ru
  107df0:	6e 74 69 6d 65 20 73 74 75 62 20 65 78 65 63 75     ntime stub execu
  107e00:	74 65 64 3a 20 69 6e 74 20 5f 61 41 70 70 6c 79     ted: int _aApply
  107e10:	52 64 63 31 28 64 63 68 61 72 5b 5d 20 61 61 2c     Rdc1(dchar[] aa,
  107e20:	20 61 72 72 61 79 5f 64 67 5f 74 20 64 67 29 00      array_dg_t dg).
  107e30:	55 6e 64 65 66 69 6e 65 64 20 72 75 6e 74 69 6d     Undefined runtim
  107e40:	65 20 73 74 75 62 20 65 78 65 63 75 74 65 64 3a     e stub executed:
  107e50:	20 69 6e 74 20 5f 61 41 70 70 6c 79 52 64 77 31      int _aApplyRdw1
  107e60:	28 64 63 68 61 72 5b 5d 20 61 61 2c 20 61 72 72     (dchar[] aa, arr
  107e70:	61 79 5f 64 67 5f 74 20 64 67 29 00 55 6e 64 65     ay_dg_t dg).Unde
  107e80:	66 69 6e 65 64 20 72 75 6e 74 69 6d 65 20 73 74     fined runtime st
  107e90:	75 62 20 65 78 65 63 75 74 65 64 3a 20 69 6e 74     ub executed: int
  107ea0:	20 5f 61 41 70 70 6c 79 52 63 77 32 28 63 68 61      _aApplyRcw2(cha
  107eb0:	72 5b 5d 20 61 61 2c 20 61 72 72 61 79 5f 64 67     r[] aa, array_dg
  107ec0:	32 5f 74 20 64 67 29 00 55 6e 64 65 66 69 6e 65     2_t dg).Undefine
  107ed0:	64 20 72 75 6e 74 69 6d 65 20 73 74 75 62 20 65     d runtime stub e
  107ee0:	78 65 63 75 74 65 64 3a 20 69 6e 74 20 5f 61 41     xecuted: int _aA
  107ef0:	70 70 6c 79 52 63 64 32 28 63 68 61 72 5b 5d 20     pplyRcd2(char[] 
  107f00:	61 61 2c 20 61 72 72 61 79 5f 64 67 32 5f 74 20     aa, array_dg2_t 
  107f10:	64 67 29 00 55 6e 64 65 66 69 6e 65 64 20 72 75     dg).Undefined ru
  107f20:	6e 74 69 6d 65 20 73 74 75 62 20 65 78 65 63 75     ntime stub execu
  107f30:	74 65 64 3a 20 69 6e 74 20 5f 61 41 70 70 6c 79     ted: int _aApply
  107f40:	52 77 63 32 28 77 63 68 61 72 5b 5d 20 61 61 2c     Rwc2(wchar[] aa,
  107f50:	20 61 72 72 61 79 5f 64 67 32 5f 74 20 64 67 29      array_dg2_t dg)
  107f60:	00 00 00 00 55 6e 64 65 66 69 6e 65 64 20 72 75     ....Undefined ru
  107f70:	6e 74 69 6d 65 20 73 74 75 62 20 65 78 65 63 75     ntime stub execu
  107f80:	74 65 64 3a 20 69 6e 74 20 5f 61 41 70 70 6c 79     ted: int _aApply
  107f90:	52 77 64 32 28 77 63 68 61 72 5b 5d 20 61 61 2c     Rwd2(wchar[] aa,
  107fa0:	20 61 72 72 61 79 5f 64 67 32 5f 74 20 64 67 29      array_dg2_t dg)
  107fb0:	00 00 00 00 55 6e 64 65 66 69 6e 65 64 20 72 75     ....Undefined ru
  107fc0:	6e 74 69 6d 65 20 73 74 75 62 20 65 78 65 63 75     ntime stub execu
  107fd0:	74 65 64 3a 20 69 6e 74 20 5f 61 41 70 70 6c 79     ted: int _aApply
  107fe0:	52 64 63 32 28 64 63 68 61 72 5b 5d 20 61 61 2c     Rdc2(dchar[] aa,
  107ff0:	20 61 72 72 61 79 5f 64 67 32 5f 74 20 64 67 29      array_dg2_t dg)
  108000:	00 00 00 00 55 6e 64 65 66 69 6e 65 64 20 72 75     ....Undefined ru
  108010:	6e 74 69 6d 65 20 73 74 75 62 20 65 78 65 63 75     ntime stub execu
  108020:	74 65 64 3a 20 69 6e 74 20 5f 61 41 70 70 6c 79     ted: int _aApply
  108030:	52 64 77 32 28 64 63 68 61 72 5b 5d 20 61 61 2c     Rdw2(dchar[] aa,
  108040:	20 61 72 72 61 79 5f 64 67 32 5f 74 20 64 67 29      array_dg2_t dg)
  108050:	00 00 00 00 55 6e 64 65 66 69 6e 65 64 20 72 75     ....Undefined ru
  108060:	6e 74 69 6d 65 20 73 74 75 62 20 65 78 65 63 75     ntime stub execu
  108070:	74 65 64 3a 20 63 68 61 72 5b 5d 20 5f 61 64 53     ted: char[] _adS
  108080:	6f 72 74 43 68 61 72 28 63 68 61 72 5b 5d 20 61     ortChar(char[] a
  108090:	29 00 00 00 55 6e 64 65 66 69 6e 65 64 20 72 75     )...Undefined ru
  1080a0:	6e 74 69 6d 65 20 73 74 75 62 20 65 78 65 63 75     ntime stub execu
  1080b0:	74 65 64 3a 20 77 63 68 61 72 5b 5d 20 5f 61 64     ted: wchar[] _ad
  1080c0:	53 6f 72 74 57 63 68 61 72 28 77 63 68 61 72 5b     SortWchar(wchar[
  1080d0:	5d 20 61 29 00 00 00 00 55 6e 64 65 66 69 6e 65     ] a)....Undefine
  1080e0:	64 20 72 75 6e 74 69 6d 65 20 73 74 75 62 20 65     d runtime stub e
  1080f0:	78 65 63 75 74 65 64 3a 20 76 6f 69 64 20 5f 64     xecuted: void _d
  108100:	5f 61 72 72 61 79 61 70 70 65 6e 64 63 54 28 54     _arrayappendcT(T
  108110:	79 70 65 49 6e 66 6f 20 74 69 2c 20 76 6f 69 64     ypeInfo ti, void
  108120:	2a 20 61 72 72 61 79 2c 20 76 6f 69 64 2a 20 65     * array, void* e
  108130:	6c 65 6d 65 6e 74 29 00 72 75 6e 74 69 6d 65 73     lement).runtimes
  108140:	2e 6d 69 6e 64 72 74 2e 63 6f 6d 6d 6f 6e 2e 61     .mindrt.common.a
  108150:	61 5f 64 67 5f 74 00 00 72 75 6e 74 69 6d 65 73     a_dg_t..runtimes
  108160:	2e 6d 69 6e 64 72 74 2e 63 6f 6d 6d 6f 6e 2e 61     .mindrt.common.a
  108170:	61 5f 64 67 32 5f 74 00 72 75 6e 74 69 6d 65 73     a_dg2_t.runtimes
  108180:	2e 6d 69 6e 64 72 74 2e 63 6f 6d 6d 6f 6e 2e 61     .mindrt.common.a
  108190:	72 72 61 79 5f 64 67 5f 74 00 00 00 72 75 6e 74     rray_dg_t...runt
  1081a0:	69 6d 65 73 2e 6d 69 6e 64 72 74 2e 63 6f 6d 6d     imes.mindrt.comm
  1081b0:	6f 6e 2e 61 72 72 61 79 5f 64 67 32 5f 74 00 00     on.array_dg2_t..
  1081c0:	72 75 6e 74 69 6d 65 73 2e 6d 69 6e 64 72 74 2e     runtimes.mindrt.
  1081d0:	63 6f 6d 6d 6f 6e 2e 42 6c 6b 41 74 74 72 00 00     common.BlkAttr..

001081e0 <_D8runtimes6mindrt6common7BlkAttr6__initZ>:
  1081e0:	01 00 00 00 01 00 00 00                             ........
